0000: ba           DI      
0001: ba           DI      
0002: 68 ff        MVI     V,$FF
0004: 48 ad        illegal 
0006: 4e 24        JRE     $002C
0008: ba           DI      
0009: b0           PUSH    VA
000a: b1           PUSH    BC
000b: b2           PUSH    DE
000c: b3           PUSH    HL
000d: 54 f2 25     JMP     $25F2
0010: ba           DI      
0011: b0           PUSH    VA
0012: b1           PUSH    BC
0013: b2           PUSH    DE
0014: b3           PUSH    HL
0015: 54 30 1b     JMP     $1B30
0018: ba           DI      
0019: b0           PUSH    VA
001a: b1           PUSH    BC
001b: b2           PUSH    DE
001c: b3           PUSH    HL
001d: 54 0a 1b     JMP     $1B0A
0020: ff           JR      $0020
0021: ff           JR      $0021
0022: ff           JR      $0022
0023: ff           JR      $0023
0024: ff           JR      $0024
0025: ff           JR      $0025
0026: ff           JR      $0026
0027: ff           JR      $0027
0028: ba           DI      
0029: 54 02 21     JMP     $2102
002c: 68 ff        MVI     V,$FF
002e: 69 00        MVI     A,$00
0030: 70 79 72 fe  MOV     ($FE72),A
0034: 34 00 fe     LXI     HL,$FE00
0037: 3d           STAX    (HL+)
0038: 32           INX     HL
0039: 3d           STAX    (HL+)
003a: 32           INX     HL
003b: 3b           STAX    (HL)
003c: 70 79 06 fe  MOV     ($FE06),A
0040: 4d d2        MOV     MA,A
0042: 69 20        MVI     A,$20
0044: 4d d4        MOV     MC,A
0046: 69 0f        MVI     A,$0F
0048: 4d d1        MOV     MCC,A
004a: 69 00        MVI     A,$00
004c: 4d d3        MOV     MB,A
004e: 64 02 c0     MVI     PC,$C0
0051: 69 08        MVI     A,$08
0053: 4d e5        illegal 
0055: 64 00 0c     MVI     PA,$0C
0058: 5f b2        BIT     7,VV:B2
005a: 5a e1        BIT     2,VV:E1
005c: 6b 07        MVI     C,$07
005e: 34 00 a0     LXI     HL,$A000
0061: 2b           LDAX    (HL)
0062: 53           DCR     C
0063: fd           JR      $0061
0064: 69 18        MVI     A,$18
0066: 4d d0        MOV     MM,A
0068: 6a 03        MVI     B,$03
006a: 6c 00        MVI     D,$00
006c: 34 00 80     LXI     HL,$8000
006f: 6b 07        MVI     C,$07
0071: 70 7c 10 fe  MOV     ($FE10),D
0075: 2b           LDAX    (HL)
0076: 53           DCR     C
0077: fd           JR      $0075
0078: 74 44 20     ADI     D,$20
007b: 52           DCR     B
007c: f2           JR      $006F
007d: 4e 41        JRE     $00C0
007f: ff           JR      $007F
0080: bb 25        STAX    (DE+$25)
0082: 8d           CALT    ($009A)
0083: 43           INR     C
0084: 7d 43        CALF    $0D43
0086: 9c           CALT    ($00B8)
0087: 43           INR     C
0088: 37 21        LTI     A,$21
008a: a1           POP     BC
008b: 22           INX     DE
008c: 39           STAX    (BC)
008d: 25 8d 0a     GTIW    VV:8D,$0A
0090: d6           JR      $00A7
0091: 0a           MOV     A,B
0092: 6f 0b        MVI     L,$0B
0094: 83           CALT    ($0086)
0095: 0b           MOV     A,C
0096: a5           DMOV    EA,BC
0097: 26 ba        ADINC   A,$BA
0099: 26 3e        ADINC   A,$3E
009b: 04 8e 10     LXI     SP,$108E
009e: bb 27        STAX    (DE+$27)
00a0: 5d 27        BIT     5,VV:27
00a2: da           JR      $00BD
00a3: 3c           STAX    (DE+)
00a4: fc           JR      $00A1
00a5: 3b           STAX    (HL)
00a6: 73           illegal 
00a7: 36 15        SUINB   A,$15
00a9: 3a           STAX    (DE)
00aa: a8           INX     EA
00ab: 3b           STAX    (HL)
00ac: a5           DMOV    EA,BC
00ad: 3b           STAX    (HL)
00ae: 19           MOV     EAL,A
00af: 3d           STAX    (HL+)
00b0: 19           MOV     EAL,A
00b1: 3b           STAX    (HL)
00b2: 45 3b 2a     ONIW    VV:3B,$2A
00b5: 3d           STAX    (HL+)
00b6: 07 3d        ANI     A,$3D
00b8: ed           JR      $00A6
00b9: 24 82 0a     LXI     DE,$0A82
00bc: 9f           CALT    ($00BE)
00bd: 10           EXA     
00be: 23           DCX     DE
00bf: 3d           STAX    (HL+)
00c0: 69 08        MVI     A,$08
00c2: 4d d0        MOV     MM,A
00c4: 69 00        MVI     A,$00
00c6: 34 03 ff     LXI     HL,$FF03
00c9: 6b fc        MVI     C,$FC
00cb: 3d           STAX    (HL+)
00cc: 53           DCR     C
00cd: fd           JR      $00CB
00ce: 04 28 ac     LXI     SP,$AC28
00d1: 54 2d 44     JMP     $442D
00d4: 34 5a 00     LXI     HL,$005A
00d7: 24 00 a0     LXI     DE,$A000
00da: 74 7e 00     EQI     H,$00
00dd: c9           JR      $00E7
00de: 0f           MOV     A,L
00df: 3c           STAX    (DE+)
00e0: 74 7c c0     EQI     D,$C0
00e3: fb           JR      $00DF
00e4: 6e 01        MVI     H,$01
00e6: f0           JR      $00D7
00e7: 2c           LDAX    (DE+)
00e8: 60 ff        EQA     A,L
00ea: 54 70 24     JMP     $2470
00ed: 74 7c c0     EQI     D,$C0
00f0: f6           JR      $00E7
00f1: 74 7f 5a     EQI     L,$5A
00f4: 4f de        JRE     $00D4
00f6: 69 00        MVI     A,$00
00f8: 24 00 a0     LXI     DE,$A000
00fb: 3c           STAX    (DE+)
00fc: 74 7c c0     EQI     D,$C0
00ff: fb           JR      $00FB
0100: 40 3a 02     CALL    $023A
0103: 34 00 08     LXI     HL,$0800
0106: 70 3e 64 aa  SHLD    $AA64
010a: 6e b8        MVI     H,$B8
010c: 70 3e 66 aa  SHLD    $AA66
0110: 70 3e 02 aa  SHLD    $AA02
0114: 70 3e 04 aa  SHLD    $AA04
0118: 6e c0        MVI     H,$C0
011a: 70 3e 68 aa  SHLD    $AA68
011e: 5d 61        BIT     5,VV:61
0120: ca           JR      $012B
0121: 69 1c        MVI     A,$1C
0123: 4d da        MOV     TM0,A
0125: 5d e1        BIT     5,VV:E1
0127: d9           JR      $0141
0128: 40 3c 24     CALL    $243C
012b: 5f 41        BIT     7,VV:41
012d: 5a 66        BIT     2,VV:66
012f: 70 69 01 ff  MOV     A,($FF01)
0133: 07 03        ANI     A,$03
0135: 44 6b 03     LXI     EA,$036B
0138: 70 41        EADD    EA,A
013a: b7           DMOV    HL,EA
013b: 2b           LDAX    (HL)
013c: 4d da        MOV     TM0,A
013e: 58 c6        BIT     0,VV:C6
0140: c5           JR      $0146
0141: 64 02 10     MVI     PC,$10
0144: 58 a6        BIT     0,VV:A6
0146: 5d 66        BIT     5,VV:66
0148: ca           JR      $0153
0149: 64 0a bf     ANI     PC,$BF
014c: 34 0a 01     LXI     HL,$010A
014f: 14 50 01     LXI     BC,$0150
0152: c6           JR      $0159
0153: 34 1e 00     LXI     HL,$001E
0156: 14 63 00     LXI     BC,$0063
0159: 70 3e b3 a8  SHLD    $A8B3
015d: 70 1e 85 a8  SBCD    $A885
0161: 40 e9 7f     CALL    $7FE9
0164: 58 63        BIT     0,VV:63
0166: 40 89 39     CALL    $3989
0169: 40 5a 02     CALL    $025A
016c: 40 39 44     CALL    $4439
016f: 00           NOP     
0170: 77 0e        EQI     A,$0E
0172: c3           JR      $0176
0173: 58 09        BIT     0,VV:09
0175: d0           JR      $0186
0176: 77 0d        EQI     A,$0D
0178: c3           JR      $017C
0179: 58 29        BIT     0,VV:29
017b: ca           JR      $0186
017c: 77 0b        EQI     A,$0B
017e: c3           JR      $0182
017f: 54 cf 43     JMP     $43CF
0182: 67 07        NEI     A,$07
0184: 58 69        BIT     0,VV:69
0186: 70 69 09 ff  MOV     A,($FF09)
018a: 47 0e        ONI     A,$0E
018c: c4           JR      $0191
018d: 5b a6        BIT     3,VV:A6
018f: 58 c6        BIT     0,VV:C6
0191: 69 88        MVI     A,$88
0193: 4d db        MOV     TM1,A
0195: 69 04        MVI     A,$04
0197: 4d cc        MOV     ETMM,A
0199: 69 4e        MVI     A,$4E
019b: 4d ca        MOV     SML,A
019d: 64 83 0c     MVI     EOM,$0C
01a0: 64 81 00     MVI     SMH,$00
01a3: 69 28        MVI     A,$28
01a5: 5d c6        BIT     5,VV:C6
01a7: 69 27        MVI     A,$27
01a9: 4d cd        MOV     TMM,A
01ab: 69 a0        MVI     A,$A0
01ad: 70 79 74 fe  MOV     ($FE74),A
01b1: 70 79 63 fe  MOV     ($FE63),A
01b5: 34 6c fe     LXI     HL,$FE6C
01b8: 3d           STAX    (HL+)
01b9: 3d           STAX    (HL+)
01ba: 3d           STAX    (HL+)
01bb: 3b           STAX    (HL)
01bc: 70 79 63 fe  MOV     ($FE63),A
01c0: 48 41        SKIT    FT0
01c2: 00           NOP     
01c3: 48 42        SKIT    FT1
01c5: 00           NOP     
01c6: 48 43        SKIT    F1
01c8: 00           NOP     
01c9: 48 44        SKIT    F2
01cb: 00           NOP     
01cc: 48 45        SKIT    FE0
01ce: 00           NOP     
01cf: 48 46        SKIT    FE1
01d1: 00           NOP     
01d2: 48 47        SKIT    FEIN
01d4: 00           NOP     
01d5: 48 49        SKIT    FSR
01d7: 00           NOP     
01d8: 48 4a        SKIT    FST
01da: 00           NOP     
01db: 4c d9        MOV     A,RXB
01dd: 34 f2 06     LXI     HL,$06F2
01e0: 5f c6        BIT     7,VV:C6
01e2: 5c 69        BIT     4,VV:69
01e4: 48 1a        SKN     CY
01e6: 34 f2 04     LXI     HL,$04F2
01e9: 0f           MOV     A,L
01ea: 4d c7        MOV     MKL,A
01ec: 0e           MOV     A,H
01ed: 4d c6        MOV     MKH,A
01ef: 40 8f 02     CALL    $028F
01f2: 70 6a 09 ff  MOV     B,($FF09)
01f6: 74 0a 0f     ANI     B,$0F
01f9: 74 6a 00     NEI     B,$00
01fc: ca           JR      $0207
01fd: 4c ce        illegal 
01ff: 60 ca        ONA     A,B
0201: fb           JR      $01FD
0202: 4c ce        illegal 
0204: 60 ca        ONA     A,B
0206: f6           JR      $01FD
0207: 74 4a 06     ONI     B,$06
020a: c4           JR      $020F
020b: 64 1f 02     ORI     MKL,$02
020e: c3           JR      $0212
020f: 64 81 0c     MVI     SMH,$0C
0212: 74 4a 08     ONI     B,$08
0215: d3           JR      $0229
0216: 69 28        MVI     A,$28
0218: 4d cd        MOV     TMM,A
021a: 64 02 90     MVI     PC,$90
021d: 70 69 01 ff  MOV     A,($FF01)
0221: 07 03        ANI     A,$03
0223: 34 6b 03     LXI     HL,$036B
0226: ac           LDAX    (HL+A)
0227: 4d da        MOV     TM0,A
0229: 40 ee 21     CALL    $21EE
022c: aa           EI      
022d: 58 e3        BIT     0,VV:E3
022f: 40 f9 03     CALL    $03F9
0232: 50           EXH     
0233: e3           JR      $0217
0234: 40 49 04     CALL    $0449
0237: 54 f1 24     JMP     $24F1
023a: 34 60 fe     LXI     HL,$FE60
023d: 2b           LDAX    (HL)
023e: 16 ff        XRI     A,$FF
0240: 70 79 00 ff  MOV     ($FF00),A
0244: 34 04 fe     LXI     HL,$FE04
0247: 2b           LDAX    (HL)
0248: 16 ff        XRI     A,$FF
024a: 07 0f        ANI     A,$0F
024c: 70 6a 01 ff  MOV     B,($FF01)
0250: 74 0a 80     ANI     B,$80
0253: 60 9a        ORA     A,B
0255: 70 79 01 ff  MOV     ($FF01),A
0259: b8           RET     
025a: 34 00 a0     LXI     HL,$A000
025d: 70 3e a1 aa  SHLD    $AAA1
0261: 69 30        MVI     A,$30
0263: 70 79 ac aa  MOV     ($AAAC),A
0267: 69 1f        MVI     A,$1F
0269: 70 79 ad aa  MOV     ($AAAD),A
026d: 70 79 ae aa  MOV     ($AAAE),A
0271: 58 85        BIT     0,VV:85
0273: 64 ce        illegal 
0275: 40 58 a5     CALL    $A558
0278: 88           CALT    ($0090)
0279: 5d 63        BIT     5,VV:63
027b: c4           JR      $0280
027c: 58 03        BIT     0,VV:03
027e: 58 43        BIT     0,VV:43
0280: 34 20 01     LXI     HL,$0120
0283: 70 3e 8c aa  SHLD    $AA8C
0287: 34 83 aa     LXI     HL,$AA83
028a: 70 3e 81 aa  SHLD    $AA81
028e: b8           RET     
028f: aa           EI      
0290: 55 02 07     OFFIW   VV:02,$07
0293: fb           JR      $028F
0294: 5b 25        BIT     3,VV:25
0296: 5b 05        BIT     3,VV:05
0298: 5b 06        BIT     3,VV:06
029a: 5b 26        BIT     3,VV:26
029c: ba           DI      
029d: 34 be a8     LXI     HL,$A8BE
02a0: 4b 05        MVIX    HL,$05
02a2: 34 af a8     LXI     HL,$A8AF
02a5: 4b 0a        MVIX    HL,$0A
02a7: 69 00        MVI     A,$00
02a9: 70 79 ae a8  MOV     ($A8AE),A
02ad: 34 ff ff     LXI     HL,$FFFF
02b0: 70 3e 66 fe  SHLD    $FE66
02b4: 6e 0f        MVI     H,$0F
02b6: 70 3e 64 fe  SHLD    $FE64
02ba: 34 ff 41     LXI     HL,$41FF
02bd: 69 7b        MVI     A,$7B
02bf: 40 64 1d     CALL    $1D64
02c2: 70 79 73 fe  MOV     ($FE73),A
02c6: 69 00        MVI     A,$00
02c8: 70 79 75 fe  MOV     ($FE75),A
02cc: 70 79 76 fe  MOV     ($FE76),A
02d0: 70 79 62 fe  MOV     ($FE62),A
02d4: 58 02        BIT     0,VV:02
02d6: aa           EI      
02d7: 50           EXH     
02d8: 02           INX     SP
02d9: fd           JR      $02D7
02da: ba           DI      
02db: 70 79 6f fe  MOV     ($FE6F),A
02df: 70 79 be a8  MOV     ($A8BE),A
02e3: 34 c1 a8     LXI     HL,$A8C1
02e6: 3d           STAX    (HL+)
02e7: 3b           STAX    (HL)
02e8: ba           DI      
02e9: 34 0c 00     LXI     HL,$000C
02ec: 58 2e        BIT     0,VV:2E
02ee: 5b c4        BIT     3,VV:C4
02f0: 40 33 16     CALL    $1633
02f3: aa           EI      
02f4: 50           EXH     
02f5: 22           INX     DE
02f6: fd           JR      $02F4
02f7: 50           EXH     
02f8: 25 d5 34     GTIW    VV:D5,$34
02fb: a0           POP     VA
02fc: 32           INX     HL
02fd: 5b a4        BIT     3,VV:A4
02ff: 40 6f 17     CALL    $176F
0302: 00           NOP     
0303: 50           EXH     
0304: 02           INX     SP
0305: fd           JR      $0303
0306: 34 a0 32     LXI     HL,$32A0
0309: 5d 25        BIT     5,VV:25
030b: 70 3e c1 a8  SHLD    $A8C1
030f: ba           DI      
0310: 34 24 00     LXI     HL,$0024
0313: 58 2e        BIT     0,VV:2E
0315: 58 c4        BIT     0,VV:C4
0317: 40 33 16     CALL    $1633
031a: aa           EI      
031b: 50           EXH     
031c: 22           INX     DE
031d: fd           JR      $031B
031e: ba           DI      
031f: 34 18 00     LXI     HL,$0018
0322: 5b c4        BIT     3,VV:C4
0324: 40 33 16     CALL    $1633
0327: aa           EI      
0328: 50           EXH     
0329: 22           INX     DE
032a: fd           JR      $0328
032b: 5b 2e        BIT     3,VV:2E
032d: 69 34        MVI     A,$34
032f: 58 04        BIT     0,VV:04
0331: 40 8a 15     CALL    $158A
0334: aa           EI      
0335: 50           EXH     
0336: 42           INR     B
0337: fd           JR      $0335
0338: ba           DI      
0339: 69 03        MVI     A,$03
033b: 70 79 ca a8  MOV     ($A8CA),A
033f: 58 42        BIT     0,VV:42
0341: 34 50 c3     LXI     HL,$C350
0344: 40 fb 20     CALL    $20FB
0347: 74 c6        DADD    EA,DE
0349: 48 d2        DMOV    ETM0,EA
034b: 5b b7        BIT     3,VV:B7
034d: aa           EI      
034e: 50           EXH     
034f: 42           INR     B
0350: fd           JR      $034E
0351: ba           DI      
0352: 5b 04        BIT     3,VV:04
0354: 69 27        MVI     A,$27
0356: 6a 03        MVI     B,$03
0358: 50           EXH     
0359: a5           DMOV    EA,BC
035a: c4           JR      $035F
035b: 69 1a        MVI     A,$1A
035d: 6a 02        MVI     B,$02
035f: 70 7a 6c a8  MOV     ($A86C),B
0363: 40 8a 15     CALL    $158A
0366: aa           EI      
0367: 50           EXH     
0368: 42           INR     B
0369: fd           JR      $0367
036a: b8           RET     
036b: 40 10 08     CALL    $0810
036e: 02           INX     SP
036f: 40 c8 22     CALL    $22C8
0372: 40 e6 0a     CALL    $0AE6
0375: 40 9b 03     CALL    $039B
0378: 5d e3        BIT     5,VV:E3
037a: c4           JR      $037F
037b: 40 59 04     CALL    $0459
037e: c3           JR      $0382
037f: 40 c3 05     CALL    $05C3
0382: 40 00 06     CALL    $0600
0385: 40 d0 08     CALL    $08D0
0388: 40 64 06     CALL    $0664
038b: 40 d5 07     CALL    $07D5
038e: 40 ea 06     CALL    $06EA
0391: 40 4d 07     CALL    $074D
0394: 40 94 07     CALL    $0794
0397: 86           CALT    ($008C)
0398: 54 6f 03     JMP     $036F
039b: 34 c4 a8     LXI     HL,$A8C4
039e: 2b           LDAX    (HL)
039f: 48 25        SLL     A
03a1: 48 a8        TABLE   
03a3: 21           JB      
03a4: ac           LDAX    (HL+A)
03a5: 03           DCX     SP
03a6: b3           PUSH    HL
03a7: 03           DCX     SP
03a8: db           JR      $03C4
03a9: 03           DCX     SP
03aa: e7           JR      $0392
03ab: 03           DCX     SP
03ac: 40 63 0b     CALL    $0B63
03af: 4b 01        MVIX    HL,$01
03b1: 4e 2e        JRE     $03E1
03b3: 40 63 0b     CALL    $0B63
03b6: c3           JR      $03BA
03b7: 4b 00        MVIX    HL,$00
03b9: b8           RET     
03ba: 24 c5 a8     LXI     DE,$A8C5
03bd: 2a           LDAX    (DE)
03be: 51           DCR     A
03bf: 3a           STAX    (DE)
03c0: 77 00        EQI     A,$00
03c2: b8           RET     
03c3: 4b 02        MVIX    HL,$02
03c5: 50           EXH     
03c6: e3           JR      $03AA
03c7: c7           JR      $03CF
03c8: 45 09 0e     ONIW    VV:09,$0E
03cb: 40 49 04     CALL    $0449
03ce: b8           RET     
03cf: 5d 63        BIT     5,VV:63
03d1: 87           CALT    ($008E)
03d2: c5           JR      $03D8
03d3: 58 46        BIT     0,VV:46
03d5: 69 01        MVI     A,$01
03d7: 8c           CALT    ($0098)
03d8: 54 f9 03     JMP     $03F9
03db: 40 63 0b     CALL    $0B63
03de: c7           JR      $03E6
03df: 4b 03        MVIX    HL,$03
03e1: 34 c5 a8     LXI     HL,$A8C5
03e4: 4b 0a        MVIX    HL,$0A
03e6: b8           RET     
03e7: 40 63 0b     CALL    $0B63
03ea: c1           JR      $03EC
03eb: c3           JR      $03EF
03ec: 4b 02        MVIX    HL,$02
03ee: c9           JR      $03F8
03ef: 24 c5 a8     LXI     DE,$A8C5
03f2: 2a           LDAX    (DE)
03f3: 51           DCR     A
03f4: 3a           STAX    (DE)
03f5: 67 00        NEI     A,$00
03f7: 3b           STAX    (HL)
03f8: b8           RET     
03f9: 89           CALT    ($0092)
03fa: c1           JR      $03FC
03fb: c3           JR      $03FF
03fc: 5b 46        BIT     3,VV:46
03fe: b8           RET     
03ff: 5d 63        BIT     5,VV:63
0401: d3           JR      $0415
0402: 45 03 03     ONIW    VV:03,$03
0405: 8d           CALT    ($009A)
0406: 5d 83        BIT     5,VV:83
0408: d2           JR      $041B
0409: 5b 83        BIT     3,VV:83
040b: 69 01        MVI     A,$01
040d: 8c           CALT    ($0098)
040e: 58 85        BIT     0,VV:85
0410: 5b 43        BIT     3,VV:43
0412: 58 23        BIT     0,VV:23
0414: c6           JR      $041B
0415: 5d 46        BIT     5,VV:46
0417: 87           CALT    ($008E)
0418: c1           JR      $041A
0419: b8           RET     
041a: 8d           CALT    ($009A)
041b: 70 69 70 aa  MOV     A,($AA70)
041f: 70 79 71 aa  MOV     ($AA71),A
0423: 5d c2        BIT     5,VV:C2
0425: 40 ef 0a     CALL    $0AEF
0428: 45 09 0e     ONIW    VV:09,$0E
042b: 64 18 20     ORI     PA,$20
042e: 5b e3        BIT     3,VV:E3
0430: 5b a2        BIT     3,VV:A2
0432: 5b 4e        BIT     3,VV:4E
0434: 34 c6 a8     LXI     HL,$A8C6
0437: 4b 00        MVIX    HL,$00
0439: 5b 65        BIT     3,VV:65
043b: 5b c3        BIT     3,VV:C3
043d: b8           RET     
043e: 45 05 03     ONIW    VV:05,$03
0441: c6           JR      $0448
0442: 40 8f 02     CALL    $028F
0445: 69 03        MVI     A,$03
0447: 8c           CALT    ($0098)
0448: b8           RET     
0449: ba           DI      
044a: 40 14 0b     CALL    $0B14
044d: aa           EI      
044e: 64 08 df     ANI     PA,$DF
0451: 58 e3        BIT     0,VV:E3
0453: 34 c6 a8     LXI     HL,$A8C6
0456: 4b 00        MVIX    HL,$00
0458: b8           RET     
0459: 87           CALT    ($008E)
045a: cf           JR      $046A
045b: 70 69 c6 a8  MOV     A,($A8C6)
045f: 67 01        NEI     A,$01
0461: 50           EXH     
0462: 63 c6        STAW    VV:C6
0464: 45 02 03     ONIW    VV:02,$03
0467: 40 4c 0a     CALL    $0A4C
046a: 5d 63        BIT     5,VV:63
046c: d7           JR      $0484
046d: 55 03 03     OFFIW   VV:03,$03
0470: b8           RET     
0471: 40 c6 04     CALL    $04C6
0474: 5d 83        BIT     5,VV:83
0476: c5           JR      $047C
0477: 5b 46        BIT     3,VV:46
0479: 58 c3        BIT     0,VV:C3
047b: b8           RET     
047c: 34 c6 a8     LXI     HL,$A8C6
047f: 2b           LDAX    (HL)
0480: 77 00        EQI     A,$00
0482: ce           JR      $0491
0483: d0           JR      $0494
0484: 40 c6 04     CALL    $04C6
0487: 34 c6 a8     LXI     HL,$A8C6
048a: 2b           LDAX    (HL)
048b: 67 00        NEI     A,$00
048d: c6           JR      $0494
048e: 40 db 09     CALL    $09DB
0491: 54 e4 04     JMP     $04E4
0494: 8a           CALT    ($0094)
0495: cf           JR      $04A5
0496: 58 c3        BIT     0,VV:C3
0498: 4b 01        MVIX    HL,$01
049a: 6a 0a        MVI     B,$0A
049c: 8a           CALT    ($0094)
049d: c1           JR      $049F
049e: fb           JR      $049A
049f: 52           DCR     B
04a0: 74 6a 00     NEI     B,$00
04a3: b8           RET     
04a4: f7           JR      $049C
04a5: 14 54 aa     LXI     BC,$AA54
04a8: 24 32 aa     LXI     DE,$AA32
04ab: 2c           LDAX    (DE+)
04ac: 70 9a        ORAX    (DE)
04ae: 70 99        ORAX    (BC)
04b0: 12           INX     BC
04b1: 70 99        ORAX    (BC)
04b3: 77 00        EQI     A,$00
04b5: ca           JR      $04C0
04b6: 70 1f 5c aa  LBCD    $AA5C
04ba: 44 10 00     LXI     EA,$0010
04bd: 74 bd        DLT     EA,BC
04bf: da           JR      $04DA
04c0: 87           CALT    ($008E)
04c1: b8           RET     
04c2: 5d 63        BIT     5,VV:63
04c4: d5           JR      $04DA
04c5: d8           JR      $04DE
04c6: 69 03        MVI     A,$03
04c8: 50           EXH     
04c9: 25 8b 89     GTIW    VV:8B,$89
04cc: 00           NOP     
04cd: 69 05        MVI     A,$05
04cf: 48 0a        SK      CY
04d1: c2           JR      $04D4
04d2: 8b           CALT    ($0096)
04d3: c4           JR      $04D8
04d4: 8c           CALT    ($0098)
04d5: 5d 25        BIT     5,VV:25
04d7: cb           JR      $04E3
04d8: 58 05        BIT     0,VV:05
04da: 5b 46        BIT     3,VV:46
04dc: 58 c3        BIT     0,VV:C3
04de: 34 c6 a8     LXI     HL,$A8C6
04e1: 4b 01        MVIX    HL,$01
04e3: b8           RET     
04e4: 8a           CALT    ($0094)
04e5: c2           JR      $04E8
04e6: 4e 20        JRE     $0508
04e8: 34 c8 a8     LXI     HL,$A8C8
04eb: 2b           LDAX    (HL)
04ec: 67 00        NEI     A,$00
04ee: c5           JR      $04F4
04ef: 51           DCR     A
04f0: 3b           STAX    (HL)
04f1: 77 00        EQI     A,$00
04f3: d3           JR      $0507
04f4: 5b 65        BIT     3,VV:65
04f6: 5f 45        BIT     7,VV:45
04f8: 31           BLOCK   
04f9: 63 48        STAW    VV:48
04fb: 0a           MOV     A,B
04fc: c4           JR      $0501
04fd: 58 03        BIT     0,VV:03
04ff: 58 43        BIT     0,VV:43
0501: 5b 45        BIT     3,VV:45
0503: 34 c7 a8     LXI     HL,$A8C7
0506: 3b           STAX    (HL)
0507: b8           RET     
0508: 34 c7 a8     LXI     HL,$A8C7
050b: 2b           LDAX    (HL)
050c: 48 25        SLL     A
050e: 48 a8        TABLE   
0510: 21           JB      
0511: 17 05        ORI     A,$05
0513: ae           LDAX    (HL+EA)
0514: 05 c1 05     ANIW    VV:C1,$05
0517: 55 02 03     OFFIW   VV:02,$03
051a: b8           RET     
051b: 14 bd a8     LXI     BC,$A8BD
051e: 49 00        MVIX    BC,$00
0520: 5d 63        BIT     5,VV:63
0522: 4e 2e        JRE     $0552
0524: 89           CALT    ($0092)
0525: 00           NOP     
0526: 5c 83        BIT     4,VV:83
0528: 5c 25        BIT     4,VV:25
052a: 48 1a        SKN     CY
052c: 4e 28        JRE     $0556
052e: 87           CALT    ($008E)
052f: c2           JR      $0532
0530: 4e 24        JRE     $0556
0532: 40 49 0a     CALL    $0A49
0535: c2           JR      $0538
0536: 4e 1e        JRE     $0556
0538: 34 00 00     LXI     HL,$0000
053b: 70 3e 0e aa  SHLD    $AA0E
053f: 40 a8 09     CALL    $09A8
0542: 86           CALT    ($008C)
0543: 50           EXH     
0544: 22           INX     DE
0545: fc           JR      $0542
0546: 87           CALT    ($008E)
0547: c5           JR      $054D
0548: 58 03        BIT     0,VV:03
054a: 58 43        BIT     0,VV:43
054c: c9           JR      $0556
054d: 40 68 05     CALL    $0568
0550: b8           RET     
0551: e6           JR      $0538
0552: 40 49 0a     CALL    $0A49
0555: c6           JR      $055C
0556: 34 c7 a8     LXI     HL,$A8C7
0559: 4b 02        MVIX    HL,$02
055b: b8           RET     
055c: 40 a8 09     CALL    $09A8
055f: 86           CALT    ($008C)
0560: 50           EXH     
0561: 22           INX     DE
0562: fc           JR      $055F
0563: 40 68 05     CALL    $0568
0566: b8           RET     
0567: f4           JR      $055C
0568: 69 02        MVI     A,$02
056a: 50           EXH     
056b: 45 4e 20     ONIW    VV:4E,$20
056e: 86           CALT    ($008C)
056f: 40 99 05     CALL    $0599
0572: 69 02        MVI     A,$02
0574: 50           EXH     
0575: 83           CALT    ($0086)
0576: d7           JR      $058E
0577: 44 00 00     LXI     EA,$0000
057a: 14 ff 2f     LXI     BC,$2FFF
057d: 8a           CALT    ($0094)
057e: d3           JR      $0592
057f: 13           DCX     BC
0580: 74 fd        DEQ     EA,BC
0582: fa           JR      $057D
0583: 34 bd a8     LXI     HL,$A8BD
0586: 2b           LDAX    (HL)
0587: 41           INR     A
0588: 3b           STAX    (HL)
0589: 77 04        EQI     A,$04
058b: b9           RETS    
058c: 69 01        MVI     A,$01
058e: 34 c7 a8     LXI     HL,$A8C7
0591: 3b           STAX    (HL)
0592: 69 1e        MVI     A,$1E
0594: 70 79 c8 a8  MOV     ($A8C8),A
0598: b8           RET     
0599: 6b 01        MVI     C,$01
059b: 6a 0f        MVI     B,$0F
059d: 69 ff        MVI     A,$FF
059f: 51           DCR     A
05a0: 77 00        EQI     A,$00
05a2: fc           JR      $059F
05a3: 52           DCR     B
05a4: 74 7a 00     EQI     B,$00
05a7: f5           JR      $059D
05a8: 53           DCR     C
05a9: 74 7b 00     EQI     C,$00
05ac: ee           JR      $059B
05ad: b8           RET     
05ae: 50           EXH     
05af: 22           INX     DE
05b0: cf           JR      $05C0
05b1: 4b 02        MVIX    HL,$02
05b3: 34 c8 a8     LXI     HL,$A8C8
05b6: 4b 1e        MVIX    HL,$1E
05b8: 50           EXH     
05b9: 83           CALT    ($0086)
05ba: c5           JR      $05C0
05bb: 40 a8 09     CALL    $09A8
05be: 58 65        BIT     0,VV:65
05c0: b8           RET     
05c1: 4f cf        JRE     $0592
05c3: 5d 63        BIT     5,VV:63
05c5: d3           JR      $05D9
05c6: 50           EXH     
05c7: 83           CALT    ($0086)
05c8: 4e 20        JRE     $05EA
05ca: 89           CALT    ($0092)
05cb: ca           JR      $05D6
05cc: 45 03 03     ONIW    VV:03,$03
05cf: 87           CALT    ($008E)
05d0: c2           JR      $05D3
05d1: 58 03        BIT     0,VV:03
05d3: 5d 25        BIT     5,VV:25
05d5: d9           JR      $05EF
05d6: 58 05        BIT     0,VV:05
05d8: d1           JR      $05EA
05d9: 89           CALT    ($0092)
05da: c8           JR      $05E3
05db: 50           EXH     
05dc: 25 c5 5d     GTIW    VV:C5,$5D
05df: 46 87        ADI     A,$87
05e1: cd           JR      $05EF
05e2: c2           JR      $05E5
05e3: 58 05        BIT     0,VV:05
05e5: 34 ad a8     LXI     HL,$A8AD
05e8: 4b 00        MVIX    HL,$00
05ea: 5b c3        BIT     3,VV:C3
05ec: 54 49 04     JMP     $0449
05ef: 5d c2        BIT     5,VV:C2
05f1: 40 ef 0a     CALL    $0AEF
05f4: 55 09 0e     OFFIW   VV:09,$0E
05f7: 8a           CALT    ($0094)
05f8: c6           JR      $05FF
05f9: 40 49 04     CALL    $0449
05fc: 40 96 04     CALL    $0496
05ff: b8           RET     
0600: 24 a2 a8     LXI     DE,$A8A2
0603: 34 c9 a8     LXI     HL,$A8C9
0606: 5d 63        BIT     5,VV:63
0608: c4           JR      $060D
0609: 40 91 0b     CALL    $0B91
060c: d2           JR      $061F
060d: 69 00        MVI     A,$00
060f: 3b           STAX    (HL)
0610: 50           EXH     
0611: 22           INX     DE
0612: c6           JR      $0619
0613: 2a           LDAX    (DE)
0614: 67 00        NEI     A,$00
0616: c3           JR      $061A
0617: 51           DCR     A
0618: 3a           STAX    (DE)
0619: b8           RET     
061a: 70 79 a1 a8  MOV     ($A8A1),A
061e: b8           RET     
061f: 5d 22        BIT     5,VV:22
0621: c2           JR      $0624
0622: 4b 00        MVIX    HL,$00
0624: 4a 0a        MVIX    DE,$0A
0626: 34 a1 a8     LXI     HL,$A8A1
0629: 2b           LDAX    (HL)
062a: 48 25        SLL     A
062c: 48 a8        TABLE   
062e: 21           JB      
062f: 35 06 41     LTIW    VV:06,$41
0632: 06           illegal 
0633: 63 06        STAW    VV:06
0635: 14 c9 a8     LXI     BC,$A8C9
0638: 29           LDAX    (BC)
0639: 41           INR     A
063a: 39           STAX    (BC)
063b: 77 0a        EQI     A,$0A
063d: c2           JR      $0640
063e: 4b 01        MVIX    HL,$01
0640: b8           RET     
0641: 50           EXH     
0642: 02           INX     SP
0643: da           JR      $065E
0644: 50           EXH     
0645: e3           JR      $0629
0646: c4           JR      $064B
0647: 00           NOP     
0648: 00           NOP     
0649: d4           JR      $065E
064a: c9           JR      $0654
064b: 89           CALT    ($0092)
064c: 00           NOP     
064d: 5c 25        BIT     4,VV:25
064f: 48 1a        SKN     CY
0651: cc           JR      $065E
0652: 5d 83        BIT     5,VV:83
0654: 5d 43        BIT     5,VV:43
0656: c3           JR      $065A
0657: 58 03        BIT     0,VV:03
0659: c4           JR      $065E
065a: 5b 43        BIT     3,VV:43
065c: 58 23        BIT     0,VV:23
065e: 34 a1 a8     LXI     HL,$A8A1
0661: 4b 02        MVIX    HL,$02
0663: b8           RET     
0664: 55 09 06     OFFIW   VV:09,$06
0667: 4e 63        JRE     $06CC
0669: 70 69 05 fe  MOV     A,($FE05)
066d: 57 08        OFFI    A,$08
066f: 58 c2        BIT     0,VV:C2
0671: 5d c2        BIT     5,VV:C2
0673: 4e 57        JRE     $06CC
0675: ba           DI      
0676: 40 14 0b     CALL    $0B14
0679: 24 54 aa     LXI     DE,$AA54
067c: 34 00 aa     LXI     HL,$AA00
067f: 2c           LDAX    (DE+)
0680: 70 9a        ORAX    (DE)
0682: 70 9d        ORAX    (HL+)
0684: 70 9b        ORAX    (HL)
0686: 24 32 aa     LXI     DE,$AA32
0689: 70 9c        ORAX    (DE+)
068b: 70 9a        ORAX    (DE)
068d: 77 00        EQI     A,$00
068f: 4e 3b        JRE     $06CC
0691: 70 1f 5c aa  LBCD    $AA5C
0695: 44 10 00     LXI     EA,$0010
0698: 74 fd        DEQ     EA,BC
069a: 4e 30        JRE     $06CC
069c: 40 8f 02     CALL    $028F
069f: 5b 64        BIT     3,VV:64
06a1: 40 8f 39     CALL    $398F
06a4: 70 79 06 fe  MOV     ($FE06),A
06a8: 14 6f 00     LXI     BC,$006F
06ab: 24 e8 03     LXI     DE,$03E8
06ae: 23           DCX     DE
06af: 0c           MOV     A,D
06b0: 60 9d        ORA     A,E
06b2: 77 00        EQI     A,$00
06b4: f9           JR      $06AE
06b5: 13           DCX     BC
06b6: 0a           MOV     A,B
06b7: 60 9b        ORA     A,C
06b9: 77 00        EQI     A,$00
06bb: ef           JR      $06AB
06bc: 70 69 05 fe  MOV     A,($FE05)
06c0: 57 08        OFFI    A,$08
06c2: 4f e0        JRE     $06A4
06c4: 5b c2        BIT     3,VV:C2
06c6: 50           EXH     
06c7: e3           JR      $06AB
06c8: c3           JR      $06CC
06c9: 40 ef 0a     CALL    $0AEF
06cc: aa           EI      
06cd: 5f c3        BIT     7,VV:C3
06cf: 5c 83        BIT     4,VV:83
06d1: 48 0a        SK      CY
06d3: 5d 63        BIT     5,VV:63
06d5: d3           JR      $06E9
06d6: 87           CALT    ($008E)
06d7: d1           JR      $06E9
06d8: 70 1f 54 aa  LBCD    $AA54
06dc: 40 50 44     CALL    $4450
06df: c9           JR      $06E9
06e0: 00           NOP     
06e1: 5d 43        BIT     5,VV:43
06e3: c3           JR      $06E7
06e4: 58 03        BIT     0,VV:03
06e6: c2           JR      $06E9
06e7: 58 23        BIT     0,VV:23
06e9: b8           RET     
06ea: 4c ce        illegal 
06ec: 07 c0        ANI     A,$C0
06ee: 1a           MOV     B,A
06ef: 4c ce        illegal 
06f1: 07 c0        ANI     A,$C0
06f3: 60 fa        EQA     A,B
06f5: f4           JR      $06EA
06f6: 48 35        RLL     A
06f8: 48 35        RLL     A
06fa: 48 aa        illegal 
06fc: 5a a5        BIT     2,VV:A5
06fe: 48 31        RLR     A
0700: 5e 63        BIT     6,VV:63
0702: 48 1a        SKN     CY
0704: 4e 46        JRE     $074C
0706: 45 03 03     ONIW    VV:03,$03
0709: 55 02 07     OFFIW   VV:02,$07
070c: 4e 3e        JRE     $074C
070e: 59 63        BIT     1,VV:63
0710: 58 c3        BIT     0,VV:C3
0712: 58 4e        BIT     0,VV:4E
0714: 40 f0 7f     CALL    $7FF0
0717: 34 00 00     LXI     HL,$0000
071a: 70 3e 0e aa  SHLD    $AA0E
071e: 70 3f dc a8  LHLD    $A8DC
0722: 70 3e e0 a8  SHLD    $A8E0
0726: 5b 83        BIT     3,VV:83
0728: 69 01        MVI     A,$01
072a: 8c           CALT    ($0098)
072b: 5d 63        BIT     5,VV:63
072d: 4e 1d        JRE     $074C
072f: 58 85        BIT     0,VV:85
0731: 70 3f da a8  LHLD    $A8DA
0735: 44 72 00     LXI     EA,$0072
0738: 74 bf        DLT     EA,HL
073a: 40 af 3a     CALL    $3AAF
073d: 88           CALT    ($0090)
073e: c1           JR      $0740
073f: ca           JR      $074A
0740: 34 aa a8     LXI     HL,$A8AA
0743: 4b 00        MVIX    HL,$00
0745: 40 12 09     CALL    $0912
0748: c1           JR      $074A
0749: fb           JR      $0745
074a: 5b 43        BIT     3,VV:43
074c: b8           RET     
074d: 34 a8 a8     LXI     HL,$A8A8
0750: 64 ce        illegal 
0752: 08           MOV     A,EAH
0753: d1           JR      $0765
0754: 14 a5 a8     LXI     BC,$A8A5
0757: 49 00        MVIX    BC,$00
0759: 2b           LDAX    (HL)
075a: 67 00        NEI     A,$00
075c: c3           JR      $0760
075d: 51           DCR     A
075e: 3b           STAX    (HL)
075f: b8           RET     
0760: 70 79 a6 a8  MOV     ($A8A6),A
0764: b8           RET     
0765: 4b 0a        MVIX    HL,$0A
0767: 34 a6 a8     LXI     HL,$A8A6
076a: 2b           LDAX    (HL)
076b: 48 25        SLL     A
076d: 48 a8        TABLE   
076f: 21           JB      
0770: 76 07        SBI     A,$07
0772: 84           CALT    ($0088)
0773: 07 93        ANI     A,$93
0775: 07 5d        ANI     A,$5D
0777: e3           JR      $075B
0778: ca           JR      $0783
0779: 14 a5 a8     LXI     BC,$A8A5
077c: 29           LDAX    (BC)
077d: 41           INR     A
077e: 39           STAX    (BC)
077f: 67 0a        NEI     A,$0A
0781: 4b 01        MVIX    HL,$01
0783: b8           RET     
0784: 14 70 aa     LXI     BC,$AA70
0787: 29           LDAX    (BC)
0788: 41           INR     A
0789: 67 03        NEI     A,$03
078b: 69 00        MVI     A,$00
078d: 39           STAX    (BC)
078e: 40 9f 0b     CALL    $0B9F
0791: 4b 02        MVIX    HL,$02
0793: b8           RET     
0794: 5d a6        BIT     5,VV:A6
0796: 4e 3c        JRE     $07D4
0798: 69 00        MVI     A,$00
079a: 5f a5        BIT     7,VV:A5
079c: 48 35        RLL     A
079e: 5f 63        BIT     7,VV:63
07a0: 48 35        RLL     A
07a2: b0           PUSH    VA
07a3: 87           CALT    ($008E)
07a4: 00           NOP     
07a5: a0           POP     VA
07a6: 48 35        RLL     A
07a8: b0           PUSH    VA
07a9: 89           CALT    ($0092)
07aa: 00           NOP     
07ab: a0           POP     VA
07ac: 48 35        RLL     A
07ae: 5f e3        BIT     7,VV:E3
07b0: 48 35        RLL     A
07b2: 5f 83        BIT     7,VV:83
07b4: 48 35        RLL     A
07b6: 48 2a        CLC     
07b8: 48 35        RLL     A
07ba: 48 35        RLL     A
07bc: 50           EXH     
07bd: 25 17 02     GTIW    VV:17,$02
07c0: 57 34        OFFI    A,$34
07c2: 17 02        ORI     A,$02
07c4: 1a           MOV     B,A
07c5: 34 8b aa     LXI     HL,$AA8B
07c8: ba           DI      
07c9: 2b           LDAX    (HL)
07ca: 07 01        ANI     A,$01
07cc: 60 9a        ORA     A,B
07ce: 3b           STAX    (HL)
07cf: 70 79 00 80  MOV     ($8000),A
07d3: aa           EI      
07d4: b8           RET     
07d5: 89           CALT    ($0092)
07d6: 4e 48        JRE     $0820
07d8: 5d 63        BIT     5,VV:63
07da: 4e 44        JRE     $0820
07dc: 5d 23        BIT     5,VV:23
07de: 4e 42        JRE     $0822
07e0: 34 a9 a8     LXI     HL,$A8A9
07e3: 4b 00        MVIX    HL,$00
07e5: 58 a3        BIT     0,VV:A3
07e7: 40 23 08     CALL    $0823
07ea: d5           JR      $0800
07eb: 40 9b 03     CALL    $039B
07ee: 5d e3        BIT     5,VV:E3
07f0: c4           JR      $07F5
07f1: 40 59 04     CALL    $0459
07f4: c3           JR      $07F8
07f5: 40 c3 05     CALL    $05C3
07f8: 40 e6 0a     CALL    $0AE6
07fb: 40 94 07     CALL    $0794
07fe: 86           CALT    ($008C)
07ff: e7           JR      $07E7
0800: 34 00 00     LXI     HL,$0000
0803: 70 3e 0e aa  SHLD    $AA0E
0807: 44 20 01     LXI     EA,$0120
080a: 70 3f dc a8  LHLD    $A8DC
080e: 74 e7        DSUB    EA,HL
0810: b7           DMOV    HL,EA
0811: 70 3e 8c aa  SHLD    $AA8C
0815: 5b 43        BIT     3,VV:43
0817: 50           EXH     
0818: 83           CALT    ($0086)
0819: c6           JR      $0820
081a: 5b a3        BIT     3,VV:A3
081c: 58 85        BIT     0,VV:85
081e: 58 43        BIT     0,VV:43
0820: 5b 23        BIT     3,VV:23
0822: b8           RET     
0823: 34 a9 a8     LXI     HL,$A8A9
0826: 2b           LDAX    (HL)
0827: 48 25        SLL     A
0829: 48 a8        TABLE   
082b: 21           JB      
082c: 36 08        SUINB   A,$08
082e: 50           EXH     
082f: 08           MOV     A,EAH
0830: 64 08 88     ANI     PA,$88
0833: 08           MOV     A,EAH
0834: c3           JR      $0838
0835: 08           MOV     A,EAH
0836: 88           CALT    ($0090)
0837: 4e 8f        JRE     $08C8
0839: 55 02 07     OFFIW   VV:02,$07
083c: b9           RETS    
083d: 50           EXH     
083e: 25 b8 69     GTIW    VV:B8,$69
0841: 01 50        LDAW    VV:50
0843: 63 8c        STAW    VV:8C
0845: 5b 83        BIT     3,VV:83
0847: 8d           CALT    ($009A)
0848: 14 a9 a8     LXI     BC,$A8A9
084b: 49 02        MVIX    BC,$02
084d: 54 36 09     JMP     $0936
0850: 50           EXH     
0851: 25 ce 70     GTIW    VV:CE,$70
0854: 69 be        MVI     A,$BE
0856: a8           INX     EA
0857: 67 00        NEI     A,$00
0859: c7           JR      $0861
085a: 77 02        EQI     A,$02
085c: b9           RETS    
085d: 3b           STAX    (HL)
085e: 40 75 0a     CALL    $0A75
0861: 4e 65        JRE     $08C8
0863: b9           RETS    
0864: 50           EXH     
0865: 25 4e 60     GTIW    VV:4E,$60
0868: 55 02 05     OFFIW   VV:02,$05
086b: db           JR      $0887
086c: 69 03        MVI     A,$03
086e: 3b           STAX    (HL)
086f: 34 40 02     LXI     HL,$0240
0872: 50           EXH     
0873: 63 34        STAW    VV:34
0875: a4           POP     EA
0876: 00           NOP     
0877: ba           DI      
0878: 5b e5        BIT     3,VV:E5
087a: 5b 24        BIT     3,VV:24
087c: 5b 85        BIT     3,VV:85
087e: 40 3d 16     CALL    $163D
0881: 34 cd a8     LXI     HL,$A8CD
0884: 4b 06        MVIX    HL,$06
0886: aa           EI      
0887: b9           RETS    
0888: 50           EXH     
0889: 22           INX     DE
088a: 4e 36        JRE     $08C2
088c: 50           EXH     
088d: e5           JR      $0873
088e: b8           RET     
088f: 5d 63        BIT     5,VV:63
0891: 4e 35        JRE     $08C8
0893: 5b 43        BIT     3,VV:43
0895: ba           DI      
0896: 48 46        SKIT    FE1
0898: 00           NOP     
0899: 34 cd a8     LXI     HL,$A8CD
089c: 4b 0c        MVIX    HL,$0C
089e: 34 a9 a8     LXI     HL,$A8A9
08a1: 4b 04        MVIX    HL,$04
08a3: 69 00        MVI     A,$00
08a5: 70 79 ce a8  MOV     ($A8CE),A
08a9: 70 79 d8 a8  MOV     ($A8D8),A
08ad: 48 c0        DMOV    EA,ECNT
08af: 24 88 13     LXI     DE,$1388
08b2: 74 c6        DADD    EA,DE
08b4: 48 d3        DMOV    ETM1,EA
08b6: 70 69 d9 a8  MOV     A,($A8D9)
08ba: 40 6d 20     CALL    $206D
08bd: 5b d7        BIT     3,VV:D7
08bf: 58 22        BIT     0,VV:22
08c1: aa           EI      
08c2: b9           RETS    
08c3: 50           EXH     
08c4: 22           INX     DE
08c5: fc           JR      $08C2
08c6: 5d e5        BIT     5,VV:E5
08c8: 5d 63        BIT     5,VV:63
08ca: b8           RET     
08cb: 58 c3        BIT     0,VV:C3
08cd: 54 a2 09     JMP     $09A2
08d0: 5d 63        BIT     5,VV:63
08d2: 4e 3b        JRE     $090F
08d4: 5d 03        BIT     5,VV:03
08d6: 4e 39        JRE     $0911
08d8: 5d e2        BIT     5,VV:E2
08da: 5d 43        BIT     5,VV:43
08dc: 4e 31        JRE     $090F
08de: 34 aa a8     LXI     HL,$A8AA
08e1: 4b 00        MVIX    HL,$00
08e3: 58 a3        BIT     0,VV:A3
08e5: 40 12 09     CALL    $0912
08e8: d5           JR      $08FE
08e9: 40 9b 03     CALL    $039B
08ec: 5d e3        BIT     5,VV:E3
08ee: c4           JR      $08F3
08ef: 40 59 04     CALL    $0459
08f2: c3           JR      $08F6
08f3: 40 c3 05     CALL    $05C3
08f6: 40 e6 0a     CALL    $0AE6
08f9: 40 94 07     CALL    $0794
08fc: 86           CALT    ($008C)
08fd: e7           JR      $08E5
08fe: 34 00 00     LXI     HL,$0000
0901: 70 3e d5 a8  SHLD    $A8D5
0905: 5b 43        BIT     3,VV:43
0907: 50           EXH     
0908: ce           JR      $0917
0909: 40 f5 7f     CALL    $7FF5
090c: 00           NOP     
090d: 5b ce        BIT     3,VV:CE
090f: 5b 03        BIT     3,VV:03
0911: b8           RET     
0912: 34 aa a8     LXI     HL,$A8AA
0915: 2b           LDAX    (HL)
0916: 48 25        SLL     A
0918: 48 a8        TABLE   
091a: 21           JB      
091b: 23           DCX     DE
091c: 09           MOV     A,EAL
091d: 4e 09        JRE     $0928
091f: 65 09 99     NEIW    VV:09,$99
0922: 09           MOV     A,EAL
0923: 55 02 07     OFFIW   VV:02,$07
0926: 4e 25        JRE     $094D
0928: 50           EXH     
0929: 25 54 a7     GTIW    VV:54,$A7
092c: 09           MOV     A,EAL
092d: 8d           CALT    ($009A)
092e: 14 aa a8     LXI     BC,$A8AA
0931: 49 02        MVIX    BC,$02
0933: 9d           CALT    ($00BA)
0934: 4e 17        JRE     $094D
0936: b1           PUSH    BC
0937: 6a 00        MVI     B,$00
0939: 40 6d 15     CALL    $156D
093c: 70 3f c1 a8  LHLD    $A8C1
0940: a7           DMOV    EA,HL
0941: 34 a0 32     LXI     HL,$32A0
0944: a1           POP     BC
0945: 74 ef        DNE     EA,HL
0947: c5           JR      $094D
0948: 49 01        MVIX    BC,$01
094a: 40 36 17     CALL    $1736
094d: b9           RETS    
094e: 50           EXH     
094f: 25 4e 50     GTIW    VV:4E,$50
0952: 70 69 be a8  MOV     A,($A8BE)
0956: 67 00        NEI     A,$00
0958: 4e 48        JRE     $09A2
095a: 77 02        EQI     A,$02
095c: c7           JR      $0964
095d: 4b 02        MVIX    HL,$02
095f: 40 75 0a     CALL    $0A75
0962: 4e 3e        JRE     $09A2
0964: b9           RETS    
0965: 50           EXH     
0966: 25 4e 39     GTIW    VV:4E,$39
0969: 55 02 03     OFFIW   VV:02,$03
096c: 4e 2a        JRE     $0998
096e: 4b 03        MVIX    HL,$03
0970: 44 e0 07     LXI     EA,$07E0
0973: 70 3f e0 a8  LHLD    $A8E0
0977: 74 bf        DLT     EA,HL
0979: 74 e7        DSUB    EA,HL
097b: 34 40 02     LXI     HL,$0240
097e: 74 c7        DADD    EA,HL
0980: b7           DMOV    HL,EA
0981: ba           DI      
0982: 5b e5        BIT     3,VV:E5
0984: 5b ce        BIT     3,VV:CE
0986: 5b 24        BIT     3,VV:24
0988: 40 3d 16     CALL    $163D
098b: 34 cd a8     LXI     HL,$A8CD
098e: 4b 06        MVIX    HL,$06
0990: aa           EI      
0991: 34 00 00     LXI     HL,$0000
0994: 70 3e e0 a8  SHLD    $A8E0
0998: b9           RETS    
0999: 50           EXH     
099a: 22           INX     DE
099b: b9           RETS    
099c: 5d e5        BIT     5,VV:E5
099e: c3           JR      $09A2
099f: 58 85        BIT     0,VV:85
09a1: b8           RET     
09a2: 69 01        MVI     A,$01
09a4: 8b           CALT    ($0096)
09a5: 58 83        BIT     0,VV:83
09a7: b8           RET     
09a8: 70 1f da a8  LBCD    $A8DA
09ac: a5           DMOV    EA,BC
09ad: 70 1f e0 a8  LBCD    $A8E0
09b1: 74 e5        DSUB    EA,BC
09b3: b7           DMOV    HL,EA
09b4: 74 6e 00     NEI     H,$00
09b7: 74 3f 19     LTI     L,$19
09ba: ca           JR      $09C5
09bb: 58 45        BIT     0,VV:45
09bd: 69 00        MVI     A,$00
09bf: 24 e0 a8     LXI     DE,$A8E0
09c2: 3c           STAX    (DE+)
09c3: 3a           STAX    (DE)
09c4: d1           JR      $09D6
09c5: 69 18        MVI     A,$18
09c7: 70 1f e0 a8  LBCD    $A8E0
09cb: a5           DMOV    EA,BC
09cc: 70 41        EADD    EA,A
09ce: b5           DMOV    BC,EA
09cf: 70 1e e0 a8  SBCD    $A8E0
09d3: 34 18 00     LXI     HL,$0018
09d6: 5b c4        BIT     3,VV:C4
09d8: 54 2a 16     JMP     $162A
09db: 24 ab a8     LXI     DE,$A8AB
09de: 34 ac a8     LXI     HL,$A8AC
09e1: 40 91 0b     CALL    $0B91
09e4: cd           JR      $09F2
09e5: 4b 00        MVIX    HL,$00
09e7: 50           EXH     
09e8: 22           INX     DE
09e9: c7           JR      $09F1
09ea: 2a           LDAX    (DE)
09eb: 67 00        NEI     A,$00
09ed: 4e 55        JRE     $0A44
09ef: 51           DCR     A
09f0: 3a           STAX    (DE)
09f1: b8           RET     
09f2: 50           EXH     
09f3: 22           INX     DE
09f4: 4b 00        MVIX    HL,$00
09f6: 4a 0a        MVIX    DE,$0A
09f8: 34 ad a8     LXI     HL,$A8AD
09fb: 2b           LDAX    (HL)
09fc: 48 25        SLL     A
09fe: 48 a8        TABLE   
0a00: 21           JB      
0a01: 07 0a        ANI     A,$0A
0a03: 12           INX     BC
0a04: 0a           MOV     A,B
0a05: 48 0a        SK      CY
0a07: 14 ac a8     LXI     BC,$A8AC
0a0a: 29           LDAX    (BC)
0a0b: 41           INR     A
0a0c: 39           STAX    (BC)
0a0d: 67 0a        NEI     A,$0A
0a0f: 4b 01        MVIX    HL,$01
0a11: b8           RET     
0a12: 89           CALT    ($0092)
0a13: 4e 2d        JRE     $0A42
0a15: 87           CALT    ($008E)
0a16: d8           JR      $0A2F
0a17: 44 20 01     LXI     EA,$0120
0a1a: 70 3f dc a8  LHLD    $A8DC
0a1e: 74 e7        DSUB    EA,HL
0a20: b7           DMOV    HL,EA
0a21: 70 3e 8c aa  SHLD    $AA8C
0a25: 34 a9 a8     LXI     HL,$A8A9
0a28: 4b 00        MVIX    HL,$00
0a2a: 40 23 08     CALL    $0823
0a2d: d4           JR      $0A42
0a2e: fb           JR      $0A2A
0a2f: 40 4c 0a     CALL    $0A4C
0a32: c1           JR      $0A34
0a33: ce           JR      $0A42
0a34: 40 16 1a     CALL    $1A16
0a37: 40 ec 43     CALL    $43EC
0a3a: 70 1f 6d a8  LBCD    $A86D
0a3e: 70 1e e0 a8  SBCD    $A8E0
0a42: 69 02        MVI     A,$02
0a44: 70 79 ad a8  MOV     ($A8AD),A
0a48: b8           RET     
0a49: 9d           CALT    ($00BA)
0a4a: 4e 27        JRE     $0A73
0a4c: 89           CALT    ($0092)
0a4d: 4e 25        JRE     $0A74
0a4f: 8d           CALT    ($009A)
0a50: 70 1f c1 a8  LBCD    $A8C1
0a54: a5           DMOV    EA,BC
0a55: 14 a0 32     LXI     BC,$32A0
0a58: 74 ed        DNE     EA,BC
0a5a: d8           JR      $0A73
0a5b: 40 36 17     CALL    $1736
0a5e: 34 be a8     LXI     HL,$A8BE
0a61: aa           EI      
0a62: 50           EXH     
0a63: 25 cf 2b     GTIW    VV:CF,$2B
0a66: 77 02        EQI     A,$02
0a68: f8           JR      $0A61
0a69: 40 75 0a     CALL    $0A75
0a6c: 00           NOP     
0a6d: 50           EXH     
0a6e: 25 c4 50     GTIW    VV:C4,$50
0a71: 02           INX     SP
0a72: fa           JR      $0A6D
0a73: b8           RET     
0a74: b9           RETS    
0a75: 40 20 17     CALL    $1720
0a78: 14 a0 32     LXI     BC,$32A0
0a7b: 70 1e c1 a8  SBCD    $A8C1
0a7f: 54 72 17     JMP     $1772
0a82: 44 90 00     LXI     EA,$0090
0a85: 70 2f 8c aa  LDED    $AA8C
0a89: 74 be        DLT     EA,DE
0a8b: b8           RET     
0a8c: b9           RETS    
0a8d: 88           CALT    ($0090)
0a8e: 4e 3b        JRE     $0ACB
0a90: 50           EXH     
0a91: e2           JR      $0A74
0a92: 4e 41        JRE     $0AD5
0a94: 54 6a 44     JMP     $446A
0a97: 50           EXH     
0a98: e4           JR      $0A7D
0a99: 4e 3a        JRE     $0AD5
0a9b: 34 d5 a8     LXI     HL,$A8D5
0a9e: 69 9c        MVI     A,$9C
0aa0: 5d 29        BIT     5,VV:29
0aa2: c3           JR      $0AA6
0aa3: 3b           STAX    (HL)
0aa4: 4e 2f        JRE     $0AD5
0aa6: 2b           LDAX    (HL)
0aa7: 77 9c        EQI     A,$9C
0aa9: c5           JR      $0AAF
0aaa: 69 00        MVI     A,$00
0aac: 40 28 44     CALL    $4428
0aaf: 2b           LDAX    (HL)
0ab0: 77 00        EQI     A,$00
0ab2: 4e 21        JRE     $0AD5
0ab4: 5f 63        BIT     7,VV:63
0ab6: 31           BLOCK   
0ab7: 65 48 0a     NEIW    VV:48,$0A
0aba: c6           JR      $0AC1
0abb: 5b 65        BIT     3,VV:65
0abd: 58 43        BIT     0,VV:43
0abf: 58 03        BIT     0,VV:03
0ac1: 69 01        MVI     A,$01
0ac3: 5f 63        BIT     7,VV:63
0ac5: 5c 46        BIT     4,VV:46
0ac7: 54 da 7f     JMP     $7FDA
0aca: b9           RETS    
0acb: 34 d5 a8     LXI     HL,$A8D5
0ace: 4b 9c        MVIX    HL,$9C
0ad0: 69 01        MVI     A,$01
0ad2: 5d 63        BIT     5,VV:63
0ad4: 8c           CALT    ($0098)
0ad5: b8           RET     
0ad6: 4c ce        illegal 
0ad8: 07 10        ANI     A,$10
0ada: 1a           MOV     B,A
0adb: 4c ce        illegal 
0add: 07 10        ANI     A,$10
0adf: 60 fa        EQA     A,B
0ae1: f4           JR      $0AD6
0ae2: 77 00        EQI     A,$00
0ae4: b8           RET     
0ae5: b9           RETS    
0ae6: 5d 66        BIT     5,VV:66
0ae8: b8           RET     
0ae9: ba           DI      
0aea: 40 4d 0b     CALL    $0B4D
0aed: aa           EI      
0aee: b8           RET     
0aef: 70 1f 64 aa  LBCD    $AA64
0af3: a5           DMOV    EA,BC
0af4: 70 1f 00 aa  LBCD    $AA00
0af8: 74 e5        DSUB    EA,BC
0afa: 70 1f 85 a8  LBCD    $A885
0afe: 74 ad        DGT     EA,BC
0b00: c7           JR      $0B08
0b01: ba           DI      
0b02: 5b 82        BIT     3,VV:82
0b04: 40 09 0b     CALL    $0B09
0b07: aa           EI      
0b08: b8           RET     
0b09: 55 09 0e     OFFIW   VV:09,$0E
0b0c: 4e 30        JRE     $0B3E
0b0e: 14 bf 00     LXI     BC,$00BF
0b11: 6c 11        MVI     D,$11
0b13: c5           JR      $0B19
0b14: 14 40 ff     LXI     BC,$FF40
0b17: 6c 13        MVI     D,$13
0b19: 50           EXH     
0b1a: 66 ce        SUI     A,$CE
0b1c: 4c c2        MOV     A,PC
0b1e: 74 7a 00     EQI     B,$00
0b21: c3           JR      $0B25
0b22: 60 8b        ANA     A,C
0b24: c2           JR      $0B27
0b25: 60 9b        ORA     A,C
0b27: 4d c2        MOV     PC,A
0b29: b8           RET     
0b2a: 34 87 a8     LXI     HL,$A887
0b2d: 2b           LDAX    (HL)
0b2e: 60 fa        EQA     A,B
0b30: cd           JR      $0B3E
0b31: 74 12 ff     XRI     B,$FF
0b34: 0a           MOV     A,B
0b35: 3b           STAX    (HL)
0b36: 0c           MOV     A,D
0b37: 1a           MOV     B,A
0b38: 40 3f 0b     CALL    $0B3F
0b3b: 40 4d 0b     CALL    $0B4D
0b3e: b8           RET     
0b3f: 34 88 a8     LXI     HL,$A888
0b42: 2b           LDAX    (HL)
0b43: 60 ea        NEA     A,B
0b45: c6           JR      $0B4C
0b46: 77 00        EQI     A,$00
0b48: 6a 00        MVI     B,$00
0b4a: 0a           MOV     A,B
0b4b: 3b           STAX    (HL)
0b4c: b8           RET     
0b4d: 50           EXH     
0b4e: 62           RETI    
0b4f: d2           JR      $0B62
0b50: 34 88 a8     LXI     HL,$A888
0b53: 2b           LDAX    (HL)
0b54: 67 00        NEI     A,$00
0b56: cb           JR      $0B62
0b57: 48 4a        SKIT    FST
0b59: 00           NOP     
0b5a: 4d d8        MOV     TXB,A
0b5c: 5b 56        BIT     3,VV:56
0b5e: 4b 00        MVIX    HL,$00
0b60: 58 62        BIT     0,VV:62
0b62: b8           RET     
0b63: 4c ce        illegal 
0b65: 07 01        ANI     A,$01
0b67: 48 21        SLR     A
0b69: 48 aa        illegal 
0b6b: 48 0a        SK      CY
0b6d: b9           RETS    
0b6e: b8           RET     
0b6f: 4c ce        illegal 
0b71: 07 20        ANI     A,$20
0b73: 1a           MOV     B,A
0b74: 4c ce        illegal 
0b76: 07 20        ANI     A,$20
0b78: 60 fa        EQA     A,B
0b7a: f4           JR      $0B6F
0b7b: 48 25        SLL     A
0b7d: 48 25        SLL     A
0b7f: 48 05        SLLC    A
0b81: b9           RETS    
0b82: b8           RET     
0b83: 4c ce        illegal 
0b85: 07 02        ANI     A,$02
0b87: 48 21        SLR     A
0b89: 48 21        SLR     A
0b8b: 48 aa        illegal 
0b8d: 48 0a        SK      CY
0b8f: b8           RET     
0b90: b9           RETS    
0b91: 4c ce        illegal 
0b93: 07 04        ANI     A,$04
0b95: 48 21        SLR     A
0b97: 48 21        SLR     A
0b99: 48 21        SLR     A
0b9b: 48 aa        illegal 
0b9d: 4f cc        JRE     $0B6B
0b9f: 48 a8        TABLE   
0ba1: c3           JR      $0BA5
0ba2: 40 c0 80     CALL    $80C0
0ba5: 0b           MOV     A,C
0ba6: ba           DI      
0ba7: 4c c0        MOV     A,PA
0ba9: 07 3f        ANI     A,$3F
0bab: 60 9b        ORA     A,C
0bad: 4d c0        MOV     PA,A
0baf: aa           EI      
0bb0: b8           RET     
0bb1: ba           DI      
0bb2: 70 3f 89 a8  LHLD    $A889
0bb6: 9f           CALT    ($00BE)
0bb7: 4e 3b        JRE     $0BF4
0bb9: 44 02 00     LXI     EA,$0002
0bbc: 74 bf        DLT     EA,HL
0bbe: c6           JR      $0BC5
0bbf: 14 74 aa     LXI     BC,$AA74
0bc2: 29           LDAX    (BC)
0bc3: 51           DCR     A
0bc4: 39           STAX    (BC)
0bc5: 70 1f 50 aa  LBCD    $AA50
0bc9: a5           DMOV    EA,BC
0bca: 74 c7        DADD    EA,HL
0bcc: 70 1f 4c aa  LBCD    $AA4C
0bd0: 70 2f 4e aa  LDED    $AA4E
0bd4: 74 bd        DLT     EA,BC
0bd6: 74 e6        DSUB    EA,DE
0bd8: b7           DMOV    HL,EA
0bd9: 70 3e 50 aa  SHLD    $AA50
0bdd: 70 3f 54 aa  LHLD    $AA54
0be1: a7           DMOV    EA,HL
0be2: 70 3f 89 a8  LHLD    $A889
0be6: 74 e7        DSUB    EA,HL
0be8: b7           DMOV    HL,EA
0be9: 70 3e 54 aa  SHLD    $AA54
0bed: 34 00 00     LXI     HL,$0000
0bf0: 70 3e 89 a8  SHLD    $A889
0bf4: 55 03 60     OFFIW   VV:03,$60
0bf7: 4e 8d        JRE     $0C86
0bf9: 70 69 be a8  MOV     A,($A8BE)
0bfd: aa           EI      
0bfe: 77 02        EQI     A,$02
0c00: 4e 60        JRE     $0C62
0c02: 50           EXH     
0c03: 26 4e        ADINC   A,$4E
0c05: 57 70        OFFI    A,$70
0c07: 1f           MOV     L,A
0c08: 8d           CALT    ($009A)
0c09: a8           INX     EA
0c0a: 70 3f 80 a8  LHLD    $A880
0c0e: 74 7b 00     EQI     C,$00
0c11: d9           JR      $0C2B
0c12: 70 1f 8f a8  LBCD    $A88F
0c16: 0a           MOV     A,B
0c17: 60 9b        ORA     A,C
0c19: 67 00        NEI     A,$00
0c1b: 4e 40        JRE     $0C5D
0c1d: 29           LDAX    (BC)
0c1e: 1f           MOV     L,A
0c1f: 12           INX     BC
0c20: 29           LDAX    (BC)
0c21: 1e           MOV     H,A
0c22: 60 9f        ORA     A,L
0c24: 67 00        NEI     A,$00
0c26: 4e 35        JRE     $0C5D
0c28: 40 8a 0c     CALL    $0C8A
0c2b: 40 a1 0c     CALL    $0CA1
0c2e: 58 26        BIT     0,VV:26
0c30: 70 3f 76 a8  LHLD    $A876
0c34: a7           DMOV    EA,HL
0c35: 70 3f 74 a8  LHLD    $A874
0c39: 74 ff        DEQ     EA,HL
0c3b: 40 75 0f     CALL    $0F75
0c3e: de           JR      $0C5D
0c3f: 58 77        BIT     0,VV:77
0c41: 70 69 be a8  MOV     A,($A8BE)
0c45: 77 02        EQI     A,$02
0c47: d5           JR      $0C5D
0c48: 14 75 fe     LXI     BC,$FE75
0c4b: 49 00        MVIX    BC,$00
0c4d: 70 3e 64 fe  SHLD    $FE64
0c51: 49 01        MVIX    BC,$01
0c53: 5b 77        BIT     3,VV:77
0c55: 70 3f 91 a8  LHLD    $A891
0c59: 70 3e c1 a8  SHLD    $A8C1
0c5d: 5b 77        BIT     3,VV:77
0c5f: 86           CALT    ($008C)
0c60: 4f 4f        JRE     $0BB1
0c62: 70 3f 54 aa  LHLD    $AA54
0c66: 0e           MOV     A,H
0c67: 60 9f        ORA     A,L
0c69: 67 00        NEI     A,$00
0c6b: da           JR      $0C86
0c6c: 70 3f 50 aa  LHLD    $AA50
0c70: 8e           CALT    ($009C)
0c71: 74 4c 80     ONI     D,$80
0c74: c4           JR      $0C79
0c75: 40 1f 18     CALL    $181F
0c78: cd           JR      $0C86
0c79: 44 05 00     LXI     EA,$0005
0c7c: 74 be        DLT     EA,DE
0c7e: c4           JR      $0C83
0c7f: 40 45 11     CALL    $1145
0c82: c3           JR      $0C86
0c83: 40 17 11     CALL    $1117
0c86: 86           CALT    ($008C)
0c87: 54 b1 0b     JMP     $0BB1
0c8a: 5f a5        BIT     7,VV:A5
0c8c: 5a c5        BIT     2,VV:C5
0c8e: 58 e9        BIT     0,VV:E9
0c90: 70 3e 97 a8  SHLD    $A897
0c94: 69 08        MVI     A,$08
0c96: 40 55 10     CALL    $1055
0c99: 8e           CALT    ($009C)
0c9a: a6           DMOV    EA,DE
0c9b: b5           DMOV    BC,EA
0c9c: 70 3f 97 a8  LHLD    $A897
0ca0: b8           RET     
0ca1: b1           PUSH    BC
0ca2: 8e           CALT    ($009C)
0ca3: 69 10        MVI     A,$10
0ca5: a6           DMOV    EA,DE
0ca6: 70 61        ESUB    EA,A
0ca8: b6           DMOV    DE,EA
0ca9: 70 2e 99 a8  SDED    $A899
0cad: 8e           CALT    ($009C)
0cae: 70 2e 9b a8  SDED    $A89B
0cb2: 8e           CALT    ($009C)
0cb3: 70 2e 9d a8  SDED    $A89D
0cb7: 8e           CALT    ($009C)
0cb8: 70 7c 9f a8  MOV     ($A89F),D
0cbc: 8e           CALT    ($009C)
0cbd: 8e           CALT    ($009C)
0cbe: 70 7d 70 a8  MOV     ($A870),E
0cc2: 70 7c 6f a8  MOV     ($A86F),D
0cc6: 8e           CALT    ($009C)
0cc7: 70 7c 71 a8  MOV     ($A871),D
0ccb: 70 3e 72 a8  SHLD    $A872
0ccf: 8e           CALT    ($009C)
0cd0: 70 2f 99 a8  LDED    $A899
0cd4: a6           DMOV    EA,DE
0cd5: 74 c7        DADD    EA,HL
0cd7: 70 3e 76 a8  SHLD    $A876
0cdb: b6           DMOV    DE,EA
0cdc: 70 2e 74 a8  SDED    $A874
0ce0: 70 1f 4c aa  LBCD    $AA4C
0ce4: 13           DCX     BC
0ce5: 74 ad        DGT     EA,BC
0ce7: cb           JR      $0CF3
0ce8: 70 1f 4e aa  LBCD    $AA4E
0cec: 74 e5        DSUB    EA,BC
0cee: b6           DMOV    DE,EA
0cef: 70 2e 74 a8  SDED    $A874
0cf3: a1           POP     BC
0cf4: 69 00        MVI     A,$00
0cf6: 5d c5        BIT     5,VV:C5
0cf8: cd           JR      $0D06
0cf9: 44 01 00     LXI     EA,$0001
0cfc: 74 dd        DOFF    EA,BC
0cfe: dc           JR      $0D1B
0cff: 48 a4        DSLL    EA
0d01: 41           INR     A
0d02: 77 08        EQI     A,$08
0d04: f7           JR      $0CFC
0d05: d2           JR      $0D18
0d06: 44 0f 00     LXI     EA,$000F
0d09: 74 dd        DOFF    EA,BC
0d0b: cf           JR      $0D1B
0d0c: 48 a4        DSLL    EA
0d0e: 48 a4        DSLL    EA
0d10: 48 a4        DSLL    EA
0d12: 48 a4        DSLL    EA
0d14: 41           INR     A
0d15: 77 02        EQI     A,$02
0d17: f1           JR      $0D09
0d18: 44 00 00     LXI     EA,$0000
0d1b: 24 78 a8     LXI     DE,$A878
0d1e: 74 8d        DAN     EA,BC
0d20: 09           MOV     A,EAL
0d21: 3c           STAX    (DE+)
0d22: 0a           MOV     A,B
0d23: 3a           STAX    (DE)
0d24: b6           DMOV    DE,EA
0d25: a5           DMOV    EA,BC
0d26: 74 e6        DSUB    EA,DE
0d28: b6           DMOV    DE,EA
0d29: 70 2e 7a a8  SDED    $A87A
0d2d: 14 00 00     LXI     BC,$0000
0d30: 24 00 00     LXI     DE,$0000
0d33: 70 3f 99 a8  LHLD    $A899
0d37: b3           PUSH    HL
0d38: 70 3f 76 a8  LHLD    $A876
0d3c: b2           PUSH    DE
0d3d: b1           PUSH    BC
0d3e: 40 e9 0d     CALL    $0DE9
0d41: 48 1a        SKN     CY
0d43: 4e 20        JRE     $0D65
0d45: a4           POP     EA
0d46: 74 c5        DADD    EA,BC
0d48: b5           DMOV    BC,EA
0d49: a4           POP     EA
0d4a: 74 c6        DADD    EA,DE
0d4c: a2           POP     DE
0d4d: 74 ee        DNE     EA,DE
0d4f: c3           JR      $0D53
0d50: b2           PUSH    DE
0d51: b6           DMOV    DE,EA
0d52: e9           JR      $0D3C
0d53: 70 3f 74 a8  LHLD    $A874
0d57: 70 3e 76 a8  SHLD    $A876
0d5b: 70 3f 9d a8  LHLD    $A89D
0d5f: 70 3e 9b a8  SHLD    $A89B
0d63: 4e 67        JRE     $0DCC
0d65: 70 1f 9b a8  LBCD    $A89B
0d69: a4           POP     EA
0d6a: 74 c5        DADD    EA,BC
0d6c: b5           DMOV    BC,EA
0d6d: 70 1e 9b a8  SBCD    $A89B
0d71: 70 3f 76 a8  LHLD    $A876
0d75: a4           POP     EA
0d76: 74 c7        DADD    EA,HL
0d78: 70 3f 4e aa  LHLD    $AA4E
0d7c: 70 2f 4c aa  LDED    $AA4C
0d80: 74 be        DLT     EA,DE
0d82: 74 e7        DSUB    EA,HL
0d84: b6           DMOV    DE,EA
0d85: 70 2e 76 a8  SDED    $A876
0d89: a1           POP     BC
0d8a: 14 00 00     LXI     BC,$0000
0d8d: 24 00 00     LXI     DE,$0000
0d90: 70 3f 74 a8  LHLD    $A874
0d94: b2           PUSH    DE
0d95: b1           PUSH    BC
0d96: 40 d4 0e     CALL    $0ED4
0d99: 48 1a        SKN     CY
0d9b: c9           JR      $0DA5
0d9c: a4           POP     EA
0d9d: 74 c5        DADD    EA,BC
0d9f: b5           DMOV    BC,EA
0da0: a4           POP     EA
0da1: 74 c6        DADD    EA,DE
0da3: b6           DMOV    DE,EA
0da4: ef           JR      $0D94
0da5: 70 1f 9d a8  LBCD    $A89D
0da9: a5           DMOV    EA,BC
0daa: a1           POP     BC
0dab: 74 e5        DSUB    EA,BC
0dad: b5           DMOV    BC,EA
0dae: 70 1e 9d a8  SBCD    $A89D
0db2: 70 3f 74 a8  LHLD    $A874
0db6: a7           DMOV    EA,HL
0db7: a3           POP     HL
0db8: 74 e7        DSUB    EA,HL
0dba: 70 3f 4a aa  LHLD    $AA4A
0dbe: 74 bf        DLT     EA,HL
0dc0: c6           JR      $0DC7
0dc1: 70 3f 4e aa  LHLD    $AA4E
0dc5: 74 c7        DADD    EA,HL
0dc7: b7           DMOV    HL,EA
0dc8: 70 3e 74 a8  SHLD    $A874
0dcc: 70 69 7a a8  MOV     A,($A87A)
0dd0: 14 00 00     LXI     BC,$0000
0dd3: 70 1e 83 a8  SBCD    $A883
0dd7: 57 ff        OFFI    A,$FF
0dd9: ce           JR      $0DE8
0dda: 70 3f 99 a8  LHLD    $A899
0dde: 74 27 10     ADINC   L,$10
0de1: 74 46 01     ADI     H,$01
0de4: 70 3e 83 a8  SHLD    $A883
0de8: b8           RET     
0de9: 8e           CALT    ($009C)
0dea: a6           DMOV    EA,DE
0deb: b5           DMOV    BC,EA
0dec: 8e           CALT    ($009C)
0ded: 5b 86        BIT     3,VV:86
0def: 74 4a 80     ONI     B,$80
0df2: 54 91 0e     JMP     $0E91
0df5: 74 4c 80     ONI     D,$80
0df8: 4e 32        JRE     $0E2C
0dfa: 70 69 78 a8  MOV     A,($A878)
0dfe: 47 f0        ONI     A,$F0
0e00: 60 cb        ONA     A,C
0e02: ce           JR      $0E11
0e03: 0c           MOV     A,D
0e04: 48 21        SLR     A
0e06: 48 0a        SK      CY
0e08: c8           JR      $0E11
0e09: 69 06        MVI     A,$06
0e0b: 40 55 10     CALL    $1055
0e0e: 54 d1 0e     JMP     $0ED1
0e11: 74 5c 40     OFFI    D,$40
0e14: c9           JR      $0E1E
0e15: 40 4b 0f     CALL    $0F4B
0e18: 24 0a 00     LXI     DE,$000A
0e1b: 54 ce 0e     JMP     $0ECE
0e1e: 8e           CALT    ($009C)
0e1f: a6           DMOV    EA,DE
0e20: b5           DMOV    BC,EA
0e21: 69 04        MVI     A,$04
0e23: 40 55 10     CALL    $1055
0e26: 24 0a 00     LXI     DE,$000A
0e29: 54 ce 0e     JMP     $0ECE
0e2c: 70 69 78 a8  MOV     A,($A878)
0e30: 47 f0        ONI     A,$F0
0e32: 60 cb        ONA     A,C
0e34: 4e 40        JRE     $0E76
0e36: 8e           CALT    ($009C)
0e37: a6           DMOV    EA,DE
0e38: b5           DMOV    BC,EA
0e39: 74 5b 01     OFFI    C,$01
0e3c: a8           INX     EA
0e3d: b3           PUSH    HL
0e3e: b4           PUSH    EA
0e3f: 74 5c 01     OFFI    D,$01
0e42: 4e 24        JRE     $0E68
0e44: 48 2a        CLC     
0e46: 48 b0        DRLR    EA
0e48: b5           DMOV    BC,EA
0e49: 69 00        MVI     A,$00
0e4b: 8e           CALT    ($009C)
0e4c: 60 9c        ORA     A,D
0e4e: 60 9d        ORA     A,E
0e50: 77 00        EQI     A,$00
0e52: 4e 14        JRE     $0E68
0e54: 13           DCX     BC
0e55: 44 00 00     LXI     EA,$0000
0e58: 74 fd        DEQ     EA,BC
0e5a: f0           JR      $0E4B
0e5b: a4           POP     EA
0e5c: a4           POP     EA
0e5d: 67 00        NEI     A,$00
0e5f: 4e 21        JRE     $0E82
0e61: 69 06        MVI     A,$06
0e63: 40 55 10     CALL    $1055
0e66: 4e 69        JRE     $0ED1
0e68: a4           POP     EA
0e69: a3           POP     HL
0e6a: 69 06        MVI     A,$06
0e6c: 74 c7        DADD    EA,HL
0e6e: 70 41        EADD    EA,A
0e70: b7           DMOV    HL,EA
0e71: 40 5b 10     CALL    $105B
0e74: 4e 5b        JRE     $0ED1
0e76: 8e           CALT    ($009C)
0e77: 74 5d 01     OFFI    E,$01
0e7a: 22           INX     DE
0e7b: a6           DMOV    EA,DE
0e7c: 74 c7        DADD    EA,HL
0e7e: b7           DMOV    HL,EA
0e7f: 40 5b 10     CALL    $105B
0e82: 40 4b 0f     CALL    $0F4B
0e85: 74 5d 01     OFFI    E,$01
0e88: 22           INX     DE
0e89: 74 25 0c     ADINC   E,$0C
0e8c: 74 44 01     ADI     D,$01
0e8f: 4e 3d        JRE     $0ECE
0e91: 70 69 78 a8  MOV     A,($A878)
0e95: 47 f0        ONI     A,$F0
0e97: c3           JR      $0E9B
0e98: 74 5b f0     OFFI    C,$F0
0e9b: 60 cb        ONA     A,C
0e9d: c8           JR      $0EA6
0e9e: 74 6d 20     NEI     E,$20
0ea1: 74 5c 81     OFFI    D,$81
0ea4: 4e 2b        JRE     $0ED1
0ea6: b3           PUSH    HL
0ea7: 70 3f 78 a8  LHLD    $A878
0eab: 5d 86        BIT     5,VV:86
0ead: ce           JR      $0EBC
0eae: 70 69 70 a8  MOV     A,($A870)
0eb2: 6a ff        MVI     B,$FF
0eb4: 40 d6 38     CALL    $38D6
0eb7: 70 79 70 a8  MOV     ($A870),A
0ebb: cd           JR      $0EC9
0ebc: 70 69 6f a8  MOV     A,($A86F)
0ec0: 6a 00        MVI     B,$00
0ec2: 40 d6 38     CALL    $38D6
0ec5: 70 79 6f a8  MOV     ($A86F),A
0ec9: b5           DMOV    BC,EA
0eca: a3           POP     HL
0ecb: 24 04 00     LXI     DE,$0004
0ece: 48 2a        CLC     
0ed0: c2           JR      $0ED3
0ed1: 48 2b        STC     
0ed3: b8           RET     
0ed4: 9e           CALT    ($00BC)
0ed5: a5           DMOV    EA,BC
0ed6: b6           DMOV    DE,EA
0ed7: 9e           CALT    ($00BC)
0ed8: 58 86        BIT     0,VV:86
0eda: 74 4a 80     ONI     B,$80
0edd: 54 91 0e     JMP     $0E91
0ee0: 74 4c 80     ONI     D,$80
0ee3: 4e 40        JRE     $0F25
0ee5: 70 69 78 a8  MOV     A,($A878)
0ee9: 57 f0        OFFI    A,$F0
0eeb: cd           JR      $0EF9
0eec: 60 db        OFFA    A,C
0eee: 74 4c 01     ONI     D,$01
0ef1: c7           JR      $0EF9
0ef2: 69 06        MVI     A,$06
0ef4: 40 6c 10     CALL    $106C
0ef7: 4f d8        JRE     $0ED1
0ef9: 74 4c 40     ONI     D,$40
0efc: cb           JR      $0F08
0efd: 9e           CALT    ($00BC)
0efe: 24 0a 00     LXI     DE,$000A
0f01: 69 04        MVI     A,$04
0f03: 40 6c 10     CALL    $106C
0f06: 4f c6        JRE     $0ECE
0f08: 9e           CALT    ($00BC)
0f09: b3           PUSH    HL
0f0a: a5           DMOV    EA,BC
0f0b: b7           DMOV    HL,EA
0f0c: 6a ff        MVI     B,$FF
0f0e: 70 69 70 a8  MOV     A,($A870)
0f12: 40 b2 10     CALL    $10B2
0f15: 70 79 70 a8  MOV     ($A870),A
0f19: b6           DMOV    DE,EA
0f1a: a3           POP     HL
0f1b: 9e           CALT    ($00BC)
0f1c: 9e           CALT    ($00BC)
0f1d: a6           DMOV    EA,DE
0f1e: b5           DMOV    BC,EA
0f1f: 24 0a 00     LXI     DE,$000A
0f22: 54 ce 0e     JMP     $0ECE
0f25: 9e           CALT    ($00BC)
0f26: 74 5b 01     OFFI    C,$01
0f29: 12           INX     BC
0f2a: a5           DMOV    EA,BC
0f2b: 69 06        MVI     A,$06
0f2d: 70 41        EADD    EA,A
0f2f: b5           DMOV    BC,EA
0f30: a7           DMOV    EA,HL
0f31: 74 e5        DSUB    EA,BC
0f33: 70 3f 4a aa  LHLD    $AA4A
0f37: 70 1f 4e aa  LBCD    $AA4E
0f3b: 33           DCX     HL
0f3c: 74 af        DGT     EA,HL
0f3e: 74 c5        DADD    EA,BC
0f40: b4           PUSH    EA
0f41: b7           DMOV    HL,EA
0f42: 8e           CALT    ($009C)
0f43: a6           DMOV    EA,DE
0f44: b5           DMOV    BC,EA
0f45: 8e           CALT    ($009C)
0f46: 40 2c 0e     CALL    $0E2C
0f49: a3           POP     HL
0f4a: b8           RET     
0f4b: 8e           CALT    ($009C)
0f4c: b2           PUSH    DE
0f4d: 8e           CALT    ($009C)
0f4e: 8e           CALT    ($009C)
0f4f: a7           DMOV    EA,HL
0f50: a3           POP     HL
0f51: b3           PUSH    HL
0f52: b4           PUSH    EA
0f53: 5d 86        BIT     5,VV:86
0f55: ce           JR      $0F64
0f56: 6a ff        MVI     B,$FF
0f58: 70 69 70 a8  MOV     A,($A870)
0f5c: 40 b2 10     CALL    $10B2
0f5f: 70 79 70 a8  MOV     ($A870),A
0f63: cd           JR      $0F71
0f64: 6a 00        MVI     B,$00
0f66: 70 69 6f a8  MOV     A,($A86F)
0f6a: 40 b2 10     CALL    $10B2
0f6d: 70 79 6f a8  MOV     ($A86F),A
0f71: a3           POP     HL
0f72: b5           DMOV    BC,EA
0f73: a2           POP     DE
0f74: b8           RET     
0f75: 40 13 10     CALL    $1013
0f78: 70 1f 7c a8  LBCD    $A87C
0f7c: 70 2f 7e a8  LDED    $A87E
0f80: 70 3f c1 a8  LHLD    $A8C1
0f84: a7           DMOV    EA,HL
0f85: 70 1e 91 a8  SBCD    $A891
0f89: 50           EXH     
0f8a: 64 ca        illegal 
0f8c: 70 69 8d a8  MOV     A,($A88D)
0f90: 67 00        NEI     A,$00
0f92: d1           JR      $0FA4
0f93: 50           EXH     
0f94: 84           CALT    ($0088)
0f95: c7           JR      $0F9D
0f96: 74 bd        DLT     EA,BC
0f98: 54 11 10     JMP     $1011
0f9b: 4e 24        JRE     $0FC1
0f9d: 74 ae        DGT     EA,DE
0f9f: 54 11 10     JMP     $1011
0fa2: 4e 43        JRE     $0FE7
0fa4: 50           EXH     
0fa5: 44 4e 24     LXI     EA,$244E
0fa8: 74 be        DLT     EA,DE
0faa: 54 11 10     JMP     $1011
0fad: 74 ad        DGT     EA,BC
0faf: d1           JR      $0FC1
0fb0: 70 2e 91 a8  SDED    $A891
0fb4: b2           PUSH    DE
0fb5: a6           DMOV    EA,DE
0fb6: 74 e7        DSUB    EA,HL
0fb8: b6           DMOV    DE,EA
0fb9: a7           DMOV    EA,HL
0fba: 74 e5        DSUB    EA,BC
0fbc: a1           POP     BC
0fbd: 74 ae        DGT     EA,DE
0fbf: 4e 50        JRE     $1011
0fc1: a5           DMOV    EA,BC
0fc2: 74 e7        DSUB    EA,HL
0fc4: b6           DMOV    DE,EA
0fc5: a5           DMOV    EA,BC
0fc6: 70 1f bf a8  LBCD    $A8BF
0fca: 4e 23        JRE     $0FEF
0fcc: 74 ad        DGT     EA,BC
0fce: 4e 41        JRE     $1011
0fd0: 74 ae        DGT     EA,DE
0fd2: c8           JR      $0FDB
0fd3: 70 2e 91 a8  SDED    $A891
0fd7: a6           DMOV    EA,DE
0fd8: b5           DMOV    BC,EA
0fd9: a7           DMOV    EA,HL
0fda: cc           JR      $0FE7
0fdb: a6           DMOV    EA,DE
0fdc: 74 e7        DSUB    EA,HL
0fde: b6           DMOV    DE,EA
0fdf: a7           DMOV    EA,HL
0fe0: 74 e5        DSUB    EA,BC
0fe2: 74 ae        DGT     EA,DE
0fe4: c4           JR      $0FE9
0fe5: 4e 2a        JRE     $1011
0fe7: 74 e5        DSUB    EA,BC
0fe9: b6           DMOV    DE,EA
0fea: 70 3f bf a8  LHLD    $A8BF
0fee: a7           DMOV    EA,HL
0fef: 74 e5        DSUB    EA,BC
0ff1: 14 40 02     LXI     BC,$0240
0ff4: 74 e5        DSUB    EA,BC
0ff6: 69 12        MVI     A,$12
0ff8: 48 3d        DIV     A
0ffa: b7           DMOV    HL,EA
0ffb: 33           DCX     HL
0ffc: 33           DCX     HL
0ffd: b3           PUSH    HL
0ffe: 70 2e 93 a8  SDED    $A893
1002: 70 69 bb a8  MOV     A,($A8BB)
1006: 40 ca 17     CALL    $17CA
1009: a7           DMOV    EA,HL
100a: 70 2f 93 a8  LDED    $A893
100e: a3           POP     HL
100f: 74 ae        DGT     EA,DE
1011: b8           RET     
1012: b9           RETS    
1013: 70 1f 9b a8  LBCD    $A89B
1017: a5           DMOV    EA,BC
1018: 14 c0 06     LXI     BC,$06C0
101b: 74 e5        DSUB    EA,BC
101d: 14 00 00     LXI     BC,$0000
1020: 74 ed        DNE     EA,BC
1022: c8           JR      $102B
1023: b7           DMOV    HL,EA
1024: 6a 24        MVI     B,$24
1026: 48 3e        DIV     B
1028: a7           DMOV    EA,HL
1029: 70 62        ESUB    EA,B
102b: b7           DMOV    HL,EA
102c: 70 3e 7c a8  SHLD    $A87C
1030: 70 1f 9d a8  LBCD    $A89D
1034: a5           DMOV    EA,BC
1035: 14 c0 06     LXI     BC,$06C0
1038: 74 c5        DADD    EA,BC
103a: b7           DMOV    HL,EA
103b: 6a 24        MVI     B,$24
103d: 48 3e        DIV     B
103f: a7           DMOV    EA,HL
1040: 69 24        MVI     A,$24
1042: 60 e2        SUB     A,B
1044: 74 7a 00     EQI     B,$00
1047: 70 41        EADD    EA,A
1049: 14 c8 67     LXI     BC,$67C8
104c: 74 bd        DLT     EA,BC
104e: a5           DMOV    EA,BC
104f: b7           DMOV    HL,EA
1050: 70 3e 7e a8  SHLD    $A87E
1054: b8           RET     
1055: 60 47        ADD     L,A
1057: 69 00        MVI     A,$00
1059: 60 56        ADC     H,A
105b: a7           DMOV    EA,HL
105c: 70 3f 4c aa  LHLD    $AA4C
1060: 33           DCX     HL
1061: 74 af        DGT     EA,HL
1063: c6           JR      $106A
1064: 70 3f 4e aa  LHLD    $AA4E
1068: 74 e7        DSUB    EA,HL
106a: b7           DMOV    HL,EA
106b: b8           RET     
106c: 60 67        SUB     L,A
106e: 69 00        MVI     A,$00
1070: 60 76        SBB     H,A
1072: a7           DMOV    EA,HL
1073: 70 3f 4a aa  LHLD    $AA4A
1077: 33           DCX     HL
1078: 74 af        DGT     EA,HL
107a: c1           JR      $107C
107b: c6           JR      $1082
107c: 70 3f 4e aa  LHLD    $AA4E
1080: 74 c7        DADD    EA,HL
1082: b7           DMOV    HL,EA
1083: b8           RET     
1084: 48 2f        MUL     C
1086: b4           PUSH    EA
1087: 48 2e        MUL     B
1089: a1           POP     BC
108a: 09           MOV     A,EAL
108b: 60 42        ADD     B,A
108d: b8           RET     
108e: 48 85        LDEAX   (HL++)
1090: b6           DMOV    DE,EA
1091: b3           PUSH    HL
1092: 70 3f 4c aa  LHLD    $AA4C
1096: a7           DMOV    EA,HL
1097: a3           POP     HL
1098: 74 ef        DNE     EA,HL
109a: 70 3f 4a aa  LHLD    $AA4A
109e: b8           RET     
109f: b3           PUSH    HL
10a0: 70 3f 4a aa  LHLD    $AA4A
10a4: a7           DMOV    EA,HL
10a5: a3           POP     HL
10a6: 74 ef        DNE     EA,HL
10a8: 70 3f 4c aa  LHLD    $AA4C
10ac: 33           DCX     HL
10ad: 33           DCX     HL
10ae: 48 83        LDEAX   (HL)
10b0: b5           DMOV    BC,EA
10b1: b8           RET     
10b2: 70 79 79 aa  MOV     ($AA79),A
10b6: a7           DMOV    EA,HL
10b7: 74 5c 04     OFFI    D,$04
10ba: 48 a4        DSLL    EA
10bc: 09           MOV     A,EAL
10bd: 07 07        ANI     A,$07
10bf: 1b           MOV     C,A
10c0: 48 a0        DSLR    EA
10c2: 48 a0        DSLR    EA
10c4: 48 a0        DSLR    EA
10c6: b7           DMOV    HL,EA
10c7: 44 00 00     LXI     EA,$0000
10ca: 74 6b 00     NEI     C,$00
10cd: 4e 34        JRE     $1103
10cf: b3           PUSH    HL
10d0: 40 e6 34     CALL    $34E6
10d3: 70 69 79 aa  MOV     A,($AA79)
10d7: 53           DCR     C
10d8: 00           NOP     
10d9: 74 7a 00     EQI     B,$00
10dc: 4e 0d        JRE     $10EB
10de: 2d           LDAX    (HL+)
10df: 70 41        EADD    EA,A
10e1: 74 4f 07     ONI     L,$07
10e4: 74 67 08     SUI     L,$08
10e7: 53           DCR     C
10e8: f5           JR      $10DE
10e9: 4e 13        JRE     $10FE
10eb: 0f           MOV     A,L
10ec: 51           DCR     A
10ed: 00           NOP     
10ee: 1f           MOV     L,A
10ef: 0f           MOV     A,L
10f0: 07 07        ANI     A,$07
10f2: 67 07        NEI     A,$07
10f4: 74 47 08     ADI     L,$08
10f7: 2f           LDAX    (HL-)
10f8: 70 41        EADD    EA,A
10fa: 53           DCR     C
10fb: ef           JR      $10EB
10fc: 0f           MOV     A,L
10fd: 41           INR     A
10fe: 70 79 79 aa  MOV     ($AA79),A
1102: a3           POP     HL
1103: 0e           MOV     A,H
1104: 1a           MOV     B,A
1105: 0f           MOV     A,L
1106: 1b           MOV     C,A
1107: c4           JR      $110C
1108: 40 71 39     CALL    $3971
110b: 13           DCX     BC
110c: 0a           MOV     A,B
110d: 60 9b        ORA     A,C
110f: 77 00        EQI     A,$00
1111: f6           JR      $1108
1112: 70 69 ba a8  MOV     A,($A8BA)
1116: b8           RET     
1117: 0d           MOV     A,E
1118: 51           DCR     A
1119: 51           DCR     A
111a: c3           JR      $111E
111b: 5b 64        BIT     3,VV:64
111d: da           JR      $1138
111e: 51           DCR     A
111f: c3           JR      $1123
1120: 58 64        BIT     0,VV:64
1122: d5           JR      $1138
1123: 51           DCR     A
1124: c3           JR      $1128
1125: 58 e4        BIT     0,VV:E4
1127: d0           JR      $1138
1128: 51           DCR     A
1129: c3           JR      $112D
112a: 5b e4        BIT     3,VV:E4
112c: cb           JR      $1138
112d: 40 8f 02     CALL    $028F
1130: 5b 64        BIT     3,VV:64
1132: 40 ef 0a     CALL    $0AEF
1135: 54 8f 39     JMP     $398F
1138: ba           DI      
1139: 70 3f 89 a8  LHLD    $A889
113d: 32           INX     HL
113e: 32           INX     HL
113f: 70 3e 89 a8  SHLD    $A889
1143: aa           EI      
1144: b8           RET     
1145: 50           EXH     
1146: 26 4e        ADINC   A,$4E
1148: 1d           MOV     E,A
1149: 70 69 8d a8  MOV     A,($A88D)
114d: 77 00        EQI     A,$00
114f: c8           JR      $1158
1150: 70 3f 50 aa  LHLD    $AA50
1154: 40 8a 0c     CALL    $0C8A
1157: c8           JR      $1160
1158: 70 3f 80 a8  LHLD    $A880
115c: 70 1f 8d a8  LBCD    $A88D
1160: 40 a1 0c     CALL    $0CA1
1163: 40 13 10     CALL    $1013
1166: 5b 26        BIT     3,VV:26
1168: 70 3f 76 a8  LHLD    $A876
116c: a7           DMOV    EA,HL
116d: 70 3f 74 a8  LHLD    $A874
1171: 74 ef        DNE     EA,HL
1173: 54 00 14     JMP     $1400
1176: 40 50 15     CALL    $1550
1179: 70 69 c3 a8  MOV     A,($A8C3)
117d: 70 79 82 a8  MOV     ($A882),A
1181: 40 bc 15     CALL    $15BC
1184: cb           JR      $1190
1185: 40 db 15     CALL    $15DB
1188: 70 69 b9 a8  MOV     A,($A8B9)
118c: 70 79 61 a8  MOV     ($A861),A
1190: 70 69 61 a8  MOV     A,($A861)
1194: 70 79 60 a8  MOV     ($A860),A
1198: 70 3f c1 a8  LHLD    $A8C1
119c: 70 3e 6a a8  SHLD    $A86A
11a0: 40 78 16     CALL    $1678
11a3: 48 0a        SK      CY
11a5: 4e 72        JRE     $1219
11a7: 50           EXH     
11a8: a4           POP     EA
11a9: 4e 23        JRE     $11CE
11ab: 70 1f 9b a8  LBCD    $A89B
11af: a5           DMOV    EA,BC
11b0: 70 1f c1 a8  LBCD    $A8C1
11b4: 74 e5        DSUB    EA,BC
11b6: 69 13        MVI     A,$13
11b8: 70 61        ESUB    EA,A
11ba: b7           DMOV    HL,EA
11bb: 70 3e 66 a8  SHLD    $A866
11bf: 70 3f 7e a8  LHLD    $A87E
11c3: a7           DMOV    EA,HL
11c4: 70 2f 74 a8  LDED    $A874
11c8: 70 3f 76 a8  LHLD    $A876
11cc: 4e 25        JRE     $11F3
11ce: 70 1f c1 a8  LBCD    $A8C1
11d2: a5           DMOV    EA,BC
11d3: 70 1f 9d a8  LBCD    $A89D
11d7: 74 e5        DSUB    EA,BC
11d9: 69 13        MVI     A,$13
11db: 70 61        ESUB    EA,A
11dd: b5           DMOV    BC,EA
11de: 70 1e 66 a8  SBCD    $A866
11e2: 70 1f c1 a8  LBCD    $A8C1
11e6: a5           DMOV    EA,BC
11e7: 70 1f 7c a8  LBCD    $A87C
11eb: 70 2f 76 a8  LDED    $A876
11ef: 70 3f 74 a8  LHLD    $A874
11f3: 74 e5        DSUB    EA,BC
11f5: 14 40 02     LXI     BC,$0240
11f8: 74 e5        DSUB    EA,BC
11fa: b5           DMOV    BC,EA
11fb: 70 1e 68 a8  SBCD    $A868
11ff: 70 3e 9b aa  SHLD    $AA9B
1203: 70 2e 9d aa  SDED    $AA9D
1207: 44 18 00     LXI     EA,$0018
120a: 50           EXH     
120b: 42           INR     B
120c: c8           JR      $1215
120d: 70 3f d3 a8  LHLD    $A8D3
1211: 74 bf        DLT     EA,HL
1213: 4e 2c        JRE     $1241
1215: 40 39 25     CALL    $2539
1218: f1           JR      $120A
1219: 70 1f 93 a8  LBCD    $A893
121d: a5           DMOV    EA,BC
121e: 14 e1 07     LXI     BC,$07E1
1221: 74 bd        DLT     EA,BC
1223: c4           JR      $1228
1224: 44 ff 0f     LXI     EA,$0FFF
1227: c5           JR      $122D
1228: 14 40 02     LXI     BC,$0240
122b: 74 e5        DSUB    EA,BC
122d: b7           DMOV    HL,EA
122e: 70 3e 68 a8  SHLD    $A868
1232: 34 ff ff     LXI     HL,$FFFF
1235: 70 3e 66 a8  SHLD    $A866
1239: 70 3f 9d aa  LHLD    $AA9D
123d: 70 3e 9b aa  SHLD    $AA9B
1241: 34 be a8     LXI     HL,$A8BE
1244: 2b           LDAX    (HL)
1245: 77 00        EQI     A,$00
1247: 67 04        NEI     A,$04
1249: c2           JR      $124C
124a: 86           CALT    ($008C)
124b: f8           JR      $1244
124c: 44 ff ff     LXI     EA,$FFFF
124f: 70 3f 66 a8  LHLD    $A866
1253: 74 ef        DNE     EA,HL
1255: c7           JR      $125D
1256: 70 69 bf aa  MOV     A,($AABF)
125a: 77 00        EQI     A,$00
125c: b8           RET     
125d: 5f c3        BIT     7,VV:C3
125f: 5c a3        BIT     4,VV:A3
1261: 5c 25        BIT     4,VV:25
1263: 48 1a        SKN     CY
1265: b8           RET     
1266: 70 1f 6a a8  LBCD    $A86A
126a: a5           DMOV    EA,BC
126b: 70 1f c1 a8  LBCD    $A8C1
126f: 74 fd        DEQ     EA,BC
1271: b8           RET     
1272: 70 69 60 a8  MOV     A,($A860)
1276: 70 6a 61 a8  MOV     B,($A861)
127a: 60 fa        EQA     A,B
127c: b8           RET     
127d: 70 69 82 a8  MOV     A,($A882)
1281: 70 6a c3 a8  MOV     B,($A8C3)
1285: 60 fa        EQA     A,B
1287: b8           RET     
1288: 58 77        BIT     0,VV:77
128a: 5d 02        BIT     5,VV:02
128c: c3           JR      $1290
128d: 58 06        BIT     0,VV:06
128f: c3           JR      $1293
1290: 40 36 17     CALL    $1736
1293: 5b 77        BIT     3,VV:77
1295: 40 21 14     CALL    $1421
1298: 5d 22        BIT     5,VV:22
129a: c4           JR      $129F
129b: 40 39 25     CALL    $2539
129e: f9           JR      $1298
129f: 34 be a8     LXI     HL,$A8BE
12a2: 5f c3        BIT     7,VV:C3
12a4: 5c a3        BIT     4,VV:A3
12a6: 5c 25        BIT     4,VV:25
12a8: 48 0a        SK      CY
12aa: 4e 23        JRE     $12CF
12ac: 2b           LDAX    (HL)
12ad: 77 00        EQI     A,$00
12af: 67 02        NEI     A,$02
12b1: c2           JR      $12B4
12b2: 86           CALT    ($008C)
12b3: f8           JR      $12AC
12b4: 58 77        BIT     0,VV:77
12b6: 70 79 63 fe  MOV     ($FE63),A
12ba: 69 00        MVI     A,$00
12bc: 70 79 72 fe  MOV     ($FE72),A
12c0: 70 79 06 aa  MOV     ($AA06),A
12c4: 4b 00        MVIX    HL,$00
12c6: 5b 02        BIT     3,VV:02
12c8: 5b 06        BIT     3,VV:06
12ca: 5b 26        BIT     3,VV:26
12cc: 5b 77        BIT     3,VV:77
12ce: b8           RET     
12cf: 2b           LDAX    (HL)
12d0: 67 02        NEI     A,$02
12d2: c7           JR      $12DA
12d3: 67 00        NEI     A,$00
12d5: 4f dd        JRE     $12B4
12d7: 86           CALT    ($008C)
12d8: 4f be        JRE     $1298
12da: 58 77        BIT     0,VV:77
12dc: 70 79 63 fe  MOV     ($FE63),A
12e0: 44 ff ff     LXI     EA,$FFFF
12e3: 70 1f 66 a8  LBCD    $A866
12e7: 74 ed        DNE     EA,BC
12e9: 4e 7e        JRE     $1369
12eb: 70 69 9f a8  MOV     A,($A89F)
12ef: 70 79 bf aa  MOV     ($AABF),A
12f3: 70 3f 7e a8  LHLD    $A87E
12f7: 5d 44        BIT     5,VV:44
12f9: 4e 47        JRE     $1342
12fb: 70 3f 74 a8  LHLD    $A874
12ff: 9e           CALT    ($00BC)
1300: a5           DMOV    EA,BC
1301: b6           DMOV    DE,EA
1302: 9e           CALT    ($00BC)
1303: 0c           MOV     A,D
1304: 07 38        ANI     A,$38
1306: 74 5a 10     OFFI    B,$10
1309: ce           JR      $1318
130a: 74 4a 08     ONI     B,$08
130d: c6           JR      $1314
130e: 34 00 46     LXI     HL,$4600
1311: 48 25        SLL     A
1313: cd           JR      $1321
1314: 34 00 45     LXI     HL,$4500
1317: c9           JR      $1321
1318: 34 dc 45     LXI     HL,$45DC
131b: 48 21        SLR     A
131d: 48 21        SLR     A
131f: 48 21        SLR     A
1321: ac           LDAX    (HL+A)
1322: 74 5c 02     OFFI    D,$02
1325: 48 21        SLR     A
1327: b0           PUSH    VA
1328: 70 69 bb a8  MOV     A,($A8BB)
132c: 40 fd 17     CALL    $17FD
132f: a7           DMOV    EA,HL
1330: 70 3f 66 a8  LHLD    $A866
1334: 74 c7        DADD    EA,HL
1336: a0           POP     VA
1337: 70 41        EADD    EA,A
1339: b7           DMOV    HL,EA
133a: 70 3e 66 a8  SHLD    $A866
133e: 70 3f 7c a8  LHLD    $A87C
1342: 70 1f c1 a8  LBCD    $A8C1
1346: 70 1e bf a8  SBCD    $A8BF
134a: 70 3e c1 a8  SHLD    $A8C1
134e: 40 1c 15     CALL    $151C
1351: 14 8b aa     LXI     BC,$AA8B
1354: 29           LDAX    (BC)
1355: 17 01        ORI     A,$01
1357: 39           STAX    (BC)
1358: 5d c8        BIT     5,VV:C8
135a: 70 79 00 80  MOV     ($8000),A
135e: 70 69 bb a8  MOV     A,($A8BB)
1362: 40 69 14     CALL    $1469
1365: 5b e9        BIT     3,VV:E9
1367: 4e 34        JRE     $139D
1369: 58 26        BIT     0,VV:26
136b: 34 be a8     LXI     HL,$A8BE
136e: 4b 03        MVIX    HL,$03
1370: 69 00        MVI     A,$00
1372: 70 79 bb a8  MOV     ($A8BB),A
1376: 70 3f c1 a8  LHLD    $A8C1
137a: 70 3e bf a8  SHLD    $A8BF
137e: a7           DMOV    EA,HL
137f: 70 3f 93 a8  LHLD    $A893
1383: 5d a4        BIT     5,VV:A4
1385: c3           JR      $1389
1386: 74 e7        DSUB    EA,HL
1388: c2           JR      $138B
1389: 74 c7        DADD    EA,HL
138b: b6           DMOV    DE,EA
138c: 70 2e c1 a8  SDED    $A8C1
1390: 44 e0 07     LXI     EA,$07E0
1393: 74 bf        DLT     EA,HL
1395: c4           JR      $139A
1396: 40 69 14     CALL    $1469
1399: c3           JR      $139D
139a: 40 c4 14     CALL    $14C4
139d: b0           PUSH    VA
139e: 69 0b        MVI     A,$0B
13a0: 70 79 70 fe  MOV     ($FE70),A
13a4: 69 08        MVI     A,$08
13a6: 70 79 71 fe  MOV     ($FE71),A
13aa: 70 79 6b fe  MOV     ($FE6B),A
13ae: 70 79 6a fe  MOV     ($FE6A),A
13b2: 70 1f 66 a8  LBCD    $A866
13b6: 70 1e 66 fe  SBCD    $FE66
13ba: 70 1f 68 a8  LBCD    $A868
13be: a5           DMOV    EA,BC
13bf: 69 12        MVI     A,$12
13c1: 48 3d        DIV     A
13c3: b5           DMOV    BC,EA
13c4: 13           DCX     BC
13c5: a0           POP     VA
13c6: 13           DCX     BC
13c7: 70 1e 64 fe  SBCD    $FE64
13cb: 70 79 68 fe  MOV     ($FE68),A
13cf: 14 20 80     LXI     BC,$8020
13d2: 70 1e 60 fe  SBCD    $FE60
13d6: 6a 00        MVI     B,$00
13d8: 50           EXH     
13d9: a4           POP     EA
13da: 6a 08        MVI     B,$08
13dc: 5f e6        BIT     7,VV:E6
13de: 48 aa        illegal 
13e0: 48 32        RLR     B
13e2: 74 1a 09     ORI     B,$09
13e5: 60 9a        ORA     A,B
13e7: 70 79 72 fe  MOV     ($FE72),A
13eb: 70 79 06 aa  MOV     ($AA06),A
13ef: 69 01        MVI     A,$01
13f1: 70 79 75 fe  MOV     ($FE75),A
13f5: 70 79 73 fe  MOV     ($FE73),A
13f9: 70 79 62 fe  MOV     ($FE62),A
13fd: 5b 77        BIT     3,VV:77
13ff: b8           RET     
1400: 40 1c 15     CALL    $151C
1403: ba           DI      
1404: 40 09 14     CALL    $1409
1407: aa           EI      
1408: b8           RET     
1409: 70 3f 8b a8  LHLD    $A88B
140d: a7           DMOV    EA,HL
140e: 70 3f 89 a8  LHLD    $A889
1412: 74 c7        DADD    EA,HL
1414: b7           DMOV    HL,EA
1415: 70 3e 89 a8  SHLD    $A889
1419: 34 00 00     LXI     HL,$0000
141c: 70 3e 8b a8  SHLD    $A88B
1420: b8           RET     
1421: 5f a4        BIT     7,VV:A4
1423: 5a 44        BIT     2,VV:44
1425: 70 69 71 a8  MOV     A,($A871)
1429: 70 79 bb a8  MOV     ($A8BB),A
142d: 70 3f 78 a8  LHLD    $A878
1431: 6e 00        MVI     H,$00
1433: 70 3e 9f aa  SHLD    $AA9F
1437: 70 69 7b a8  MOV     A,($A87B)
143b: 48 25        SLL     A
143d: 48 25        SLL     A
143f: 48 25        SLL     A
1441: 48 25        SLL     A
1443: 5a e6        BIT     2,VV:E6
1445: 70 69 6f a8  MOV     A,($A86F)
1449: 50           EXH     
144a: 44 70 69     LXI     EA,$6970
144d: 70 a8        illegal 
144f: 70 79 10 ff  MOV     ($FF10),A
1453: 05 07 00     ANIW    VV:07,$00
1456: 05 08 f0     ANIW    VV:08,$F0
1459: 34 15 ff     LXI     HL,$FF15
145c: 4b 00        MVIX    HL,$00
145e: 34 00 a0     LXI     HL,$A000
1461: 70 3e a1 aa  SHLD    $AAA1
1465: 40 7c 25     CALL    $257C
1468: b8           RET     
1469: 6a 06        MVI     B,$06
146b: 48 2e        MUL     B
146d: 34 80 44     LXI     HL,$4480
1470: 74 c7        DADD    EA,HL
1472: b6           DMOV    DE,EA
1473: 2c           LDAX    (DE+)
1474: 6a 80        MVI     B,$80
1476: 48 2e        MUL     B
1478: 34 71 47     LXI     HL,$4771
147b: 74 c7        DADD    EA,HL
147d: b7           DMOV    HL,EA
147e: 2c           LDAX    (DE+)
147f: 1b           MOV     C,A
1480: 48 84        LDEAX   (DE++)
1482: b2           PUSH    DE
1483: 69 40        MVI     A,$40
1485: 60 e3        SUB     A,C
1487: 1a           MOV     B,A
1488: 53           DCR     C
1489: b4           PUSH    EA
148a: 2a           LDAX    (DE)
148b: 44 20 80     LXI     EA,$8020
148e: 24 00 a1     LXI     DE,$A100
1491: 47 02        ONI     A,$02
1493: 48 94        STEAX   (DE++)
1495: 48 85        LDEAX   (HL++)
1497: 48 94        STEAX   (DE++)
1499: 53           DCR     C
149a: fa           JR      $1495
149b: a4           POP     EA
149c: 52           DCR     B
149d: c1           JR      $149F
149e: c3           JR      $14A2
149f: 48 94        STEAX   (DE++)
14a1: fa           JR      $149C
14a2: 08           MOV     A,EAH
14a3: 16 80        XRI     A,$80
14a5: 18           MOV     EAH,A
14a6: 48 92        STEAX   (DE)
14a8: a6           DMOV    EA,DE
14a9: b7           DMOV    HL,EA
14aa: 6b 1f        MVI     C,$1F
14ac: 22           INX     DE
14ad: 22           INX     DE
14ae: 33           DCX     HL
14af: 33           DCX     HL
14b0: 33           DCX     HL
14b1: 33           DCX     HL
14b2: 48 83        LDEAX   (HL)
14b4: 48 94        STEAX   (DE++)
14b6: 53           DCR     C
14b7: f6           JR      $14AE
14b8: 44 db 6b     LXI     EA,$6BDB
14bb: 48 92        STEAX   (DE)
14bd: a2           POP     DE
14be: 2a           LDAX    (DE)
14bf: 70 79 06 aa  MOV     ($AA06),A
14c3: b8           RET     
14c4: a7           DMOV    EA,HL
14c5: 69 12        MVI     A,$12
14c7: 48 3d        DIV     A
14c9: 34 71 49     LXI     HL,$4971
14cc: 24 00 a1     LXI     DE,$A100
14cf: 6b 03        MVI     C,$03
14d1: 48 3f        DIV     C
14d3: 09           MOV     A,EAL
14d4: 1a           MOV     B,A
14d5: 67 00        NEI     A,$00
14d7: 4e 3c        JRE     $1515
14d9: 36 20        SUINB   A,$20
14db: c9           JR      $14E5
14dc: 1a           MOV     B,A
14dd: 60 c2        ADD     A,B
14df: 60 c2        ADD     A,B
14e1: 60 43        ADD     C,A
14e3: 6a 20        MVI     B,$20
14e5: 52           DCR     B
14e6: b1           PUSH    BC
14e7: 48 85        LDEAX   (HL++)
14e9: 48 94        STEAX   (DE++)
14eb: 48 85        LDEAX   (HL++)
14ed: 48 94        STEAX   (DE++)
14ef: 52           DCR     B
14f0: f6           JR      $14E7
14f1: b2           PUSH    DE
14f2: 53           DCR     C
14f3: c1           JR      $14F5
14f4: c3           JR      $14F8
14f5: 48 94        STEAX   (DE++)
14f7: fa           JR      $14F2
14f8: a3           POP     HL
14f9: a1           POP     BC
14fa: 33           DCX     HL
14fb: 33           DCX     HL
14fc: 52           DCR     B
14fd: c1           JR      $14FF
14fe: ca           JR      $1509
14ff: 48 83        LDEAX   (HL)
1501: 33           DCX     HL
1502: 33           DCX     HL
1503: 33           DCX     HL
1504: 33           DCX     HL
1505: 48 94        STEAX   (DE++)
1507: 52           DCR     B
1508: f6           JR      $14FF
1509: 44 db 6b     LXI     EA,$6BDB
150c: 48 92        STEAX   (DE)
150e: 69 72        MVI     A,$72
1510: 70 79 06 aa  MOV     ($AA06),A
1514: b8           RET     
1515: 53           DCR     C
1516: c1           JR      $1518
1517: f1           JR      $1509
1518: 10           EXA     
1519: 54 09 15     JMP     $1509
151c: 5b 85        BIT     3,VV:85
151e: 70 3f 97 a8  LHLD    $A897
1522: 70 3e 80 a8  SHLD    $A880
1526: 70 3f 83 a8  LHLD    $A883
152a: 70 3e 8b a8  SHLD    $A88B
152e: 70 3f 7a a8  LHLD    $A87A
1532: 70 3e 8d a8  SHLD    $A88D
1536: 58 e2        BIT     0,VV:E2
1538: 74 7f 00     EQI     L,$00
153b: cb           JR      $1547
153c: 6e 00        MVI     H,$00
153e: 5b e2        BIT     3,VV:E2
1540: 70 69 74 aa  MOV     A,($AA74)
1544: 27 01        GTI     A,$01
1546: c4           JR      $154B
1547: 70 3f 72 a8  LHLD    $A872
154b: 70 3e 8f a8  SHLD    $A88F
154f: b8           RET     
1550: 5d c5        BIT     5,VV:C5
1552: d1           JR      $1564
1553: 70 69 78 a8  MOV     A,($A878)
1557: 6a 00        MVI     B,$00
1559: 6b 11        MVI     C,$11
155b: 60 db        OFFA    A,C
155d: cf           JR      $156D
155e: 48 2a        CLC     
1560: 48 37        RLL     C
1562: 42           INR     B
1563: f7           JR      $155B
1564: 70 69 c3 a8  MOV     A,($A8C3)
1568: 67 02        NEI     A,$02
156a: b8           RET     
156b: 6a 02        MVI     B,$02
156d: 70 7a 6c a8  MOV     ($A86C),B
1571: 70 69 c3 a8  MOV     A,($A8C3)
1575: 60 ea        NEA     A,B
1577: b8           RET     
1578: 60 ba        LTA     A,B
157a: c6           JR      $1581
157b: 60 62        SUB     B,A
157d: 0a           MOV     A,B
157e: 5b 04        BIT     3,VV:04
1580: c4           JR      $1585
1581: 60 e2        SUB     A,B
1583: 58 04        BIT     0,VV:04
1585: 6a 0d        MVI     B,$0D
1587: 48 2e        MUL     B
1589: 09           MOV     A,EAL
158a: ba           DI      
158b: 70 79 cb a8  MOV     ($A8CB),A
158f: 69 01        MVI     A,$01
1591: 70 79 ca a8  MOV     ($A8CA),A
1595: 51           DCR     A
1596: 70 79 cc a8  MOV     ($A8CC),A
159a: 70 79 73 fe  MOV     ($FE73),A
159e: 70 69 b7 a8  MOV     A,($A8B7)
15a2: 40 e5 20     CALL    $20E5
15a5: 34 88 13     LXI     HL,$1388
15a8: 40 fb 20     CALL    $20FB
15ab: 48 45        SKIT    FE0
15ad: 00           NOP     
15ae: 5b b7        BIT     3,VV:B7
15b0: 58 42        BIT     0,VV:42
15b2: 70 69 6c a8  MOV     A,($A86C)
15b6: 70 79 c3 a8  MOV     ($A8C3),A
15ba: aa           EI      
15bb: b8           RET     
15bc: 34 b9 a8     LXI     HL,$A8B9
15bf: 69 00        MVI     A,$00
15c1: 3b           STAX    (HL)
15c2: 58 c4        BIT     0,VV:C4
15c4: 70 6a 78 a8  MOV     B,($A878)
15c8: 74 5a 0f     OFFI    B,$0F
15cb: c4           JR      $15D0
15cc: 41           INR     A
15cd: 3b           STAX    (HL)
15ce: 5b c4        BIT     3,VV:C4
15d0: 34 01 00     LXI     HL,$0001
15d3: 70 6a 61 a8  MOV     B,($A861)
15d7: 60 fa        EQA     A,B
15d9: b9           RETS    
15da: b8           RET     
15db: 0f           MOV     A,L
15dc: 60 9e        ORA     A,H
15de: 48 1c        SKN     Z
15e0: b8           RET     
15e1: 5d 22        BIT     5,VV:22
15e3: 4e 34        JRE     $1619
15e5: 5f 24        BIT     7,VV:24
15e7: 5e c4        BIT     6,VV:C4
15e9: 48 1a        SKN     CY
15eb: 4e 2c        JRE     $1619
15ed: ba           DI      
15ee: 70 69 cd a8  MOV     A,($A8CD)
15f2: 37 04        LTI     A,$04
15f4: 4e 23        JRE     $1619
15f6: 70 2f d3 a8  LDED    $A8D3
15fa: a6           DMOV    EA,DE
15fb: 74 c7        DADD    EA,HL
15fd: b7           DMOV    HL,EA
15fe: 70 3e d3 a8  SHLD    $A8D3
1602: 70 2f b5 a8  LDED    $A8B5
1606: a6           DMOV    EA,DE
1607: 74 c7        DADD    EA,HL
1609: 48 a0        DSLR    EA
160b: 48 1a        SKN     CY
160d: a8           INX     EA
160e: b6           DMOV    DE,EA
160f: 70 2e d0 a8  SDED    $A8D0
1613: 70 79 73 fe  MOV     ($FE73),A
1617: aa           EI      
1618: b8           RET     
1619: aa           EI      
161a: 86           CALT    ($008C)
161b: 50           EXH     
161c: 22           INX     DE
161d: fc           JR      $161A
161e: 44 90 00     LXI     EA,$0090
1621: 70 2f 8c aa  LDED    $AA8C
1625: 74 ae        DGT     EA,DE
1627: 40 f5 16     CALL    $16F5
162a: 5b 85        BIT     3,VV:85
162c: 5d c4        BIT     5,VV:C4
162e: c4           JR      $1633
162f: 32           INX     HL
1630: 32           INX     HL
1631: 32           INX     HL
1632: 32           INX     HL
1633: ba           DI      
1634: 5f c4        BIT     7,VV:C4
1636: 5a 24        BIT     2,VV:24
1638: 40 3d 16     CALL    $163D
163b: aa           EI      
163c: b8           RET     
163d: 48 46        SKIT    FE1
163f: 00           NOP     
1640: 58 22        BIT     0,VV:22
1642: 70 3e d3 a8  SHLD    $A8D3
1646: 70 3e b5 a8  SHLD    $A8B5
164a: a7           DMOV    EA,HL
164b: 48 a0        DSLR    EA
164d: 48 1a        SKN     CY
164f: a8           INX     EA
1650: b7           DMOV    HL,EA
1651: 70 3e d0 a8  SHLD    $A8D0
1655: 69 01        MVI     A,$01
1657: 70 79 cd a8  MOV     ($A8CD),A
165b: 51           DCR     A
165c: 70 79 ce a8  MOV     ($A8CE),A
1660: 70 79 cf a8  MOV     ($A8CF),A
1664: 70 69 d2 a8  MOV     A,($A8D2)
1668: 40 1d 20     CALL    $201D
166b: 40 3b 20     CALL    $203B
166e: 64 8b 0f     ANI     EOM,$0F
1671: 5b d7        BIT     3,VV:D7
1673: 70 79 73 fe  MOV     ($FE73),A
1677: b8           RET     
1678: 70 2f c1 a8  LDED    $A8C1
167c: 50           EXH     
167d: 64 4e 58     ONI     MKH,$58
1680: 5d e9        BIT     5,VV:E9
1682: 4e 51        JRE     $16D5
1684: 70 3f 7c a8  LHLD    $A87C
1688: a6           DMOV    EA,DE
1689: 74 af        DGT     EA,HL
168b: 4e 3f        JRE     $16CC
168d: 70 1f 7e a8  LBCD    $A87E
1691: a5           DMOV    EA,BC
1692: 74 ae        DGT     EA,DE
1694: d6           JR      $16AB
1695: a5           DMOV    EA,BC
1696: 74 e6        DSUB    EA,DE
1698: b5           DMOV    BC,EA
1699: a6           DMOV    EA,DE
169a: 74 e7        DSUB    EA,HL
169c: 5b a4        BIT     3,VV:A4
169e: 74 bd        DLT     EA,BC
16a0: c3           JR      $16A4
16a1: b5           DMOV    BC,EA
16a2: 58 a4        BIT     0,VV:A4
16a4: 70 1e 93 a8  SBCD    $A893
16a8: 48 2a        CLC     
16aa: b8           RET     
16ab: 58 84        BIT     0,VV:84
16ad: 58 a4        BIT     0,VV:A4
16af: a6           DMOV    EA,DE
16b0: 74 e5        DSUB    EA,BC
16b2: b7           DMOV    HL,EA
16b3: 70 3e 93 a8  SHLD    $A893
16b7: 70 69 71 a8  MOV     A,($A871)
16bb: 40 ca 17     CALL    $17CA
16be: a7           DMOV    EA,HL
16bf: 70 3f 93 a8  LHLD    $A893
16c3: 74 bf        DLT     EA,HL
16c5: c3           JR      $16C9
16c6: 48 2a        CLC     
16c8: b8           RET     
16c9: 48 2b        STC     
16cb: b8           RET     
16cc: 5b 84        BIT     3,VV:84
16ce: 5b a4        BIT     3,VV:A4
16d0: a7           DMOV    EA,HL
16d1: 74 e6        DSUB    EA,DE
16d3: 4f dd        JRE     $16B2
16d5: 50           EXH     
16d6: 84           CALT    ($0088)
16d7: cd           JR      $16E5
16d8: 70 3f 7c a8  LHLD    $A87C
16dc: a6           DMOV    EA,DE
16dd: 74 af        DGT     EA,HL
16df: ee           JR      $16CE
16e0: 58 a4        BIT     0,VV:A4
16e2: 74 e7        DSUB    EA,HL
16e4: cd           JR      $16F2
16e5: 70 1f 7e a8  LBCD    $A87E
16e9: a5           DMOV    EA,BC
16ea: 74 ae        DGT     EA,DE
16ec: 4f bf        JRE     $16AD
16ee: 74 e6        DSUB    EA,DE
16f0: 5b a4        BIT     3,VV:A4
16f2: b5           DMOV    BC,EA
16f3: 4f af        JRE     $16A4
16f5: b3           PUSH    HL
16f6: 50           EXH     
16f7: c4           JR      $16FC
16f8: 4e 24        JRE     $171E
16fa: 5d 02        BIT     5,VV:02
16fc: c2           JR      $16FF
16fd: 86           CALT    ($008C)
16fe: fb           JR      $16FA
16ff: 5d 25        BIT     5,VV:25
1701: c2           JR      $1704
1702: 86           CALT    ($008C)
1703: fb           JR      $16FF
1704: 70 3f c1 a8  LHLD    $A8C1
1708: 44 a0 32     LXI     EA,$32A0
170b: 74 ef        DNE     EA,HL
170d: d0           JR      $171E
170e: 40 20 17     CALL    $1720
1711: 40 6f 17     CALL    $176F
1714: e5           JR      $16FA
1715: 34 a0 32     LXI     HL,$32A0
1718: 70 3e c1 a8  SHLD    $A8C1
171c: 4f dc        JRE     $16FA
171e: a3           POP     HL
171f: b8           RET     
1720: 5b a4        BIT     3,VV:A4
1722: 70 3f c1 a8  LHLD    $A8C1
1726: 44 a0 32     LXI     EA,$32A0
1729: 74 bf        DLT     EA,HL
172b: c6           JR      $1732
172c: a7           DMOV    EA,HL
172d: 34 a0 32     LXI     HL,$32A0
1730: 58 a4        BIT     0,VV:A4
1732: 74 e7        DSUB    EA,HL
1734: b7           DMOV    HL,EA
1735: b8           RET     
1736: ba           DI      
1737: 70 79 63 fe  MOV     ($FE63),A
173b: 14 ff ff     LXI     BC,$FFFF
173e: 70 1e 66 fe  SBCD    $FE66
1742: 6a 0f        MVI     B,$0F
1744: 70 1e 64 fe  SBCD    $FE64
1748: 14 db 6b     LXI     BC,$6BDB
174b: 70 1e 60 fe  SBCD    $FE60
174f: 69 78        MVI     A,$78
1751: 70 79 72 fe  MOV     ($FE72),A
1755: 70 79 06 aa  MOV     ($AA06),A
1759: 70 79 73 fe  MOV     ($FE73),A
175d: 70 79 75 fe  MOV     ($FE75),A
1761: 70 79 62 fe  MOV     ($FE62),A
1765: 58 02        BIT     0,VV:02
1767: 69 01        MVI     A,$01
1769: 70 79 be a8  MOV     ($A8BE),A
176d: aa           EI      
176e: b8           RET     
176f: 40 36 17     CALL    $1736
1772: 14 ff ff     LXI     BC,$FFFF
1775: 70 1e 66 a8  SBCD    $A866
1779: 14 be a8     LXI     BC,$A8BE
177c: 50           EXH     
177d: 25 4e 33     GTIW    VV:4E,$33
1780: 29           LDAX    (BC)
1781: 67 00        NEI     A,$00
1783: 4e 2e        JRE     $17B3
1785: 77 02        EQI     A,$02
1787: f4           JR      $177C
1788: 58 77        BIT     0,VV:77
178a: 49 03        MVIX    BC,$03
178c: 69 00        MVI     A,$00
178e: 44 e0 07     LXI     EA,$07E0
1791: 74 bf        DLT     EA,HL
1793: cf           JR      $17A3
1794: a7           DMOV    EA,HL
1795: 14 40 02     LXI     BC,$0240
1798: 74 e5        DSUB    EA,BC
179a: b5           DMOV    BC,EA
179b: 70 1e 68 a8  SBCD    $A868
179f: 40 69 14     CALL    $1469
17a2: ca           JR      $17AD
17a3: 14 ff ff     LXI     BC,$FFFF
17a6: 70 1e 68 a8  SBCD    $A868
17aa: 40 c4 14     CALL    $14C4
17ad: 40 9d 13     CALL    $139D
17b0: 5b 77        BIT     3,VV:77
17b2: b9           RETS    
17b3: 58 77        BIT     0,VV:77
17b5: 70 79 63 fe  MOV     ($FE63),A
17b9: 69 00        MVI     A,$00
17bb: 70 79 72 fe  MOV     ($FE72),A
17bf: 70 79 06 aa  MOV     ($AA06),A
17c3: 70 79 be a8  MOV     ($A8BE),A
17c7: 5b 77        BIT     3,VV:77
17c9: b8           RET     
17ca: 34 d3 17     LXI     HL,$17D3
17cd: 48 25        SLL     A
17cf: 48 8c        LDEAX   (HL+A)
17d1: b7           DMOV    HL,EA
17d2: b8           RET     
17d3: ff           JR      $17D3
17d4: ff           JR      $17D4
17d5: 6e 72        MVI     H,$72
17d7: ca           JR      $17E2
17d8: 44 24 26     LXI     EA,$2624
17db: 2b           LDAX    (HL)
17dc: 1d           MOV     E,A
17dd: d7           JR      $17F5
17de: 16 08        XRI     A,$08
17e0: 12           INX     BC
17e1: 53           DCR     C
17e2: 10           EXA     
17e3: b5           DMOV    BC,EA
17e4: 0d           MOV     A,E
17e5: 62           RETI    
17e6: 0a           MOV     A,B
17e7: e4           JR      $17CC
17e8: 08           MOV     A,EAH
17e9: 9e           CALT    ($00BC)
17ea: 07 78        ANI     A,$78
17ec: 06           illegal 
17ed: 03           DCX     SP
17ee: 06           illegal 
17ef: 46 05        ADI     A,$05
17f1: 3b           STAX    (HL)
17f2: 04 b9 03     LXI     SP,$03B9
17f5: 44 03 d5     LXI     EA,$D503
17f8: 02           INX     SP
17f9: a8           INX     EA
17fa: 02           INX     SP
17fb: 5d 02        BIT     5,VV:02
17fd: 34 00 47     LXI     HL,$4700
1800: ac           LDAX    (HL+A)
1801: 34 51 47     LXI     HL,$4751
1804: 70 6a 05 fe  MOV     B,($FE05)
1808: 48 26        SLL     B
180a: 48 26        SLL     B
180c: 74 0a 18     ANI     B,$18
180f: 60 c2        ADD     A,B
1811: ac           LDAX    (HL+A)
1812: 6e 00        MVI     H,$00
1814: 47 80        ONI     A,$80
1816: c6           JR      $181D
1817: 16 7f        XRI     A,$7F
1819: 46 01        ADI     A,$01
181b: 6e ff        MVI     H,$FF
181d: 1f           MOV     L,A
181e: b8           RET     
181f: 5b 6e        BIT     3,VV:6E
1821: ba           DI      
1822: 70 3f 89 a8  LHLD    $A889
1826: 32           INX     HL
1827: 32           INX     HL
1828: 70 3e 89 a8  SHLD    $A889
182c: aa           EI      
182d: 0c           MOV     A,D
182e: 07 e0        ANI     A,$E0
1830: 67 e0        NEI     A,$E0
1832: b8           RET     
1833: b0           PUSH    VA
1834: b2           PUSH    DE
1835: 87           CALT    ($008E)
1836: d4           JR      $184B
1837: 50           EXH     
1838: 46 cf        ADI     A,$CF
183a: a2           POP     DE
183b: a0           POP     VA
183c: ba           DI      
183d: 70 3f 89 a8  LHLD    $A889
1841: 33           DCX     HL
1842: 33           DCX     HL
1843: 70 3e 89 a8  SHLD    $A889
1847: aa           EI      
1848: b8           RET     
1849: 5b 46        BIT     3,VV:46
184b: a2           POP     DE
184c: a0           POP     VA
184d: 77 a0        EQI     A,$A0
184f: d2           JR      $1862
1850: 74 4c 04     ONI     D,$04
1853: c5           JR      $1859
1854: 40 35 1a     CALL    $1A35
1857: 4e 9c        JRE     $18F5
1859: 50           EXH     
185a: 63 d8        STAW    VV:D8
185c: 40 16 1a     CALL    $1A16
185f: 4e 94        JRE     $18F5
1861: d2           JR      $1874
1862: 77 c0        EQI     A,$C0
1864: 4e 20        JRE     $1886
1866: 74 4c 04     ONI     D,$04
1869: c5           JR      $186F
186a: 40 a1 1a     CALL    $1AA1
186d: 4e 86        JRE     $18F5
186f: 40 57 1a     CALL    $1A57
1872: 4e 81        JRE     $18F5
1874: 44 00 00     LXI     EA,$0000
1877: 70 3f 0e aa  LHLD    $AA0E
187b: 74 ef        DNE     EA,HL
187d: 58 03        BIT     0,VV:03
187f: b7           DMOV    HL,EA
1880: 70 3e 0e aa  SHLD    $AA0E
1884: 4e a9        JRE     $192F
1886: 44 ff 03     LXI     EA,$03FF
1889: 74 8e        DAN     EA,DE
188b: b7           DMOV    HL,EA
188c: 74 4c 04     ONI     D,$04
188f: 4e 3a        JRE     $18CB
1891: 5d 63        BIT     5,VV:63
1893: 4e 31        JRE     $18C6
1895: 44 00 00     LXI     EA,$0000
1898: 70 1f 0e aa  LBCD    $AA0E
189c: 74 ed        DNE     EA,BC
189e: ce           JR      $18AD
189f: a7           DMOV    EA,HL
18a0: 70 3f 0e aa  LHLD    $AA0E
18a4: 74 c7        DADD    EA,HL
18a6: b7           DMOV    HL,EA
18a7: 70 3e 0e aa  SHLD    $AA0E
18ab: 4e 82        JRE     $192F
18ad: 70 1f e0 a8  LBCD    $A8E0
18b1: a5           DMOV    EA,BC
18b2: 70 1f dc a8  LBCD    $A8DC
18b6: 74 e5        DSUB    EA,BC
18b8: 74 bf        DLT     EA,HL
18ba: cb           JR      $18C6
18bb: b5           DMOV    BC,EA
18bc: a7           DMOV    EA,HL
18bd: 74 e5        DSUB    EA,BC
18bf: b7           DMOV    HL,EA
18c0: 70 3e 0e aa  SHLD    $AA0E
18c4: a5           DMOV    EA,BC
18c5: b7           DMOV    HL,EA
18c6: 40 94 19     CALL    $1994
18c9: 4e 34        JRE     $18FF
18cb: 44 00 00     LXI     EA,$0000
18ce: 70 1f 0e aa  LBCD    $AA0E
18d2: 74 ed        DNE     EA,BC
18d4: cf           JR      $18E4
18d5: a5           DMOV    EA,BC
18d6: 74 bf        DLT     EA,HL
18d8: d3           JR      $18EC
18d9: a7           DMOV    EA,HL
18da: 74 e5        DSUB    EA,BC
18dc: b7           DMOV    HL,EA
18dd: 14 00 00     LXI     BC,$0000
18e0: 70 1e 0e aa  SBCD    $AA0E
18e4: 40 43 19     CALL    $1943
18e7: cd           JR      $18F5
18e8: 58 03        BIT     0,VV:03
18ea: 4e 43        JRE     $192F
18ec: 74 e7        DSUB    EA,HL
18ee: b5           DMOV    BC,EA
18ef: 70 1e 0e aa  SBCD    $AA0E
18f3: 4e 3a        JRE     $192F
18f5: 5f 63        BIT     7,VV:63
18f7: 31           BLOCK   
18f8: c4           JR      $18FD
18f9: 31           BLOCK   
18fa: 6e 48        MVI     H,$48
18fc: 1a           MOV     B,A
18fd: 4e 30        JRE     $192F
18ff: 40 30 19     CALL    $1930
1902: 70 1f 6d a8  LBCD    $A86D
1906: 70 1e e0 a8  SBCD    $A8E0
190a: 5b 85        BIT     3,VV:85
190c: a7           DMOV    EA,HL
190d: 34 f0 00     LXI     HL,$00F0
1910: 74 af        DGT     EA,HL
1912: b7           DMOV    HL,EA
1913: 74 e7        DSUB    EA,HL
1915: b4           PUSH    EA
1916: 40 db 15     CALL    $15DB
1919: a3           POP     HL
191a: 44 00 00     LXI     EA,$0000
191d: 74 ef        DNE     EA,HL
191f: cf           JR      $192F
1920: 44 0d 00     LXI     EA,$000D
1923: 40 39 25     CALL    $2539
1926: 70 2f d3 a8  LDED    $A8D3
192a: 74 ae        DGT     EA,DE
192c: f6           JR      $1923
192d: 4f dd        JRE     $190C
192f: b8           RET     
1930: 24 61 a8     LXI     DE,$A861
1933: 2a           LDAX    (DE)
1934: 67 00        NEI     A,$00
1936: b8           RET     
1937: a7           DMOV    EA,HL
1938: 69 02        MVI     A,$02
193a: a9           DCX     EA
193b: 50           EXH     
193c: c4           JR      $1941
193d: 70 41        EADD    EA,A
193f: b7           DMOV    HL,EA
1940: 4a 00        MVIX    DE,$00
1942: b8           RET     
1943: 5b c4        BIT     3,VV:C4
1945: a7           DMOV    EA,HL
1946: 70 1f e0 a8  LBCD    $A8E0
194a: 74 c5        DADD    EA,BC
194c: 70 1f da a8  LBCD    $A8DA
1950: 13           DCX     BC
1951: 74 ad        DGT     EA,BC
1953: c8           JR      $195C
1954: 50           EXH     
1955: 63 4e        STAW    VV:4E
1957: 3b           STAX    (HL)
1958: 12           INX     BC
1959: 74 e5        DSUB    EA,BC
195b: f4           JR      $1950
195c: 12           INX     BC
195d: 70 2f dc a8  LDED    $A8DC
1961: 74 be        DLT     EA,DE
1963: 4e 09        JRE     $196E
1965: b5           DMOV    BC,EA
1966: a6           DMOV    EA,DE
1967: 74 e5        DSUB    EA,BC
1969: 74 c7        DADD    EA,HL
196b: b7           DMOV    HL,EA
196c: 4e 20        JRE     $198E
196e: b6           DMOV    DE,EA
196f: a5           DMOV    EA,BC
1970: 70 1f de a8  LBCD    $A8DE
1974: 74 e5        DSUB    EA,BC
1976: a9           DCX     EA
1977: 74 be        DLT     EA,DE
1979: 4e 13        JRE     $198E
197b: 50           EXH     
197c: 63 d5        STAW    VV:D5
197e: 70 1f da a8  LBCD    $A8DA
1982: a5           DMOV    EA,BC
1983: 74 e6        DSUB    EA,DE
1985: 70 2f dc a8  LDED    $A8DC
1989: 74 c6        DADD    EA,DE
198b: 74 c7        DADD    EA,HL
198d: b7           DMOV    HL,EA
198e: 70 2e 6d a8  SDED    $A86D
1992: b8           RET     
1993: b9           RETS    
1994: 58 c4        BIT     0,VV:C4
1996: 69 18        MVI     A,$18
1998: a7           DMOV    EA,HL
1999: 70 1f e0 a8  LBCD    $A8E0
199d: 74 ad        DGT     EA,BC
199f: 4e 17        JRE     $19B8
19a1: 58 6e        BIT     0,VV:6E
19a3: 74 e5        DSUB    EA,BC
19a5: 70 1f da a8  LBCD    $A8DA
19a9: 13           DCX     BC
19aa: 74 ad        DGT     EA,BC
19ac: c4           JR      $19B1
19ad: 12           INX     BC
19ae: 74 e5        DSUB    EA,BC
19b0: f8           JR      $19A9
19b1: 12           INX     BC
19b2: b6           DMOV    DE,EA
19b3: a5           DMOV    EA,BC
19b4: 74 e6        DSUB    EA,DE
19b6: 4e 04        JRE     $19BC
19b8: b6           DMOV    DE,EA
19b9: a5           DMOV    EA,BC
19ba: 74 e6        DSUB    EA,DE
19bc: 70 2f da a8  LDED    $A8DA
19c0: 70 1f dc a8  LBCD    $A8DC
19c4: 74 bd        DLT     EA,BC
19c6: d0           JR      $19D7
19c7: 58 6e        BIT     0,VV:6E
19c9: 14 00 00     LXI     BC,$0000
19cc: 74 ed        DNE     EA,BC
19ce: c8           JR      $19D7
19cf: 70 1f de a8  LBCD    $A8DE
19d3: 74 c5        DADD    EA,BC
19d5: 4e 1f        JRE     $19F6
19d7: b6           DMOV    DE,EA
19d8: 70 1f da a8  LBCD    $A8DA
19dc: a5           DMOV    EA,BC
19dd: 70 1f de a8  LBCD    $A8DE
19e1: 74 e5        DSUB    EA,BC
19e3: 74 be        DLT     EA,DE
19e5: 4e 20        JRE     $1A07
19e7: 70 1f da a8  LBCD    $A8DA
19eb: a5           DMOV    EA,BC
19ec: 74 e6        DSUB    EA,DE
19ee: b6           DMOV    DE,EA
19ef: 70 1f de a8  LBCD    $A8DE
19f3: a5           DMOV    EA,BC
19f4: 74 e6        DSUB    EA,DE
19f6: 70 41        EADD    EA,A
19f8: 74 c7        DADD    EA,HL
19fa: b7           DMOV    HL,EA
19fb: 70 2f da a8  LDED    $A8DA
19ff: a6           DMOV    EA,DE
1a00: 74 e5        DSUB    EA,BC
1a02: 70 61        ESUB    EA,A
1a04: b6           DMOV    DE,EA
1a05: 4e 0a        JRE     $1A11
1a07: 70 1f da a8  LBCD    $A8DA
1a0b: a5           DMOV    EA,BC
1a0c: 74 ee        DNE     EA,DE
1a0e: 24 00 00     LXI     DE,$0000
1a11: 70 2e 6d a8  SDED    $A86D
1a15: b8           RET     
1a16: 50           EXH     
1a17: 63 b9        STAW    VV:B9
1a19: 5b c4        BIT     3,VV:C4
1a1b: 70 1f e0 a8  LBCD    $A8E0
1a1f: 70 2f dc a8  LDED    $A8DC
1a23: a6           DMOV    EA,DE
1a24: 74 ad        DGT     EA,BC
1a26: c3           JR      $1A2A
1a27: 74 e5        DSUB    EA,BC
1a29: c9           JR      $1A33
1a2a: 70 3f da a8  LHLD    $A8DA
1a2e: a7           DMOV    EA,HL
1a2f: 74 e5        DSUB    EA,BC
1a31: 74 c6        DADD    EA,DE
1a33: 4e 1c        JRE     $1A51
1a35: 58 c4        BIT     0,VV:C4
1a37: 70 1f e0 a8  LBCD    $A8E0
1a3b: 70 2f dc a8  LDED    $A8DC
1a3f: a5           DMOV    EA,BC
1a40: 74 ae        DGT     EA,DE
1a42: c3           JR      $1A46
1a43: 74 e6        DSUB    EA,DE
1a45: cb           JR      $1A51
1a46: 58 6e        BIT     0,VV:6E
1a48: 70 3f da a8  LHLD    $A8DA
1a4c: a7           DMOV    EA,HL
1a4d: 74 e6        DSUB    EA,DE
1a4f: 74 c5        DADD    EA,BC
1a51: b7           DMOV    HL,EA
1a52: 70 2e 6d a8  SDED    $A86D
1a56: b8           RET     
1a57: 5b c4        BIT     3,VV:C4
1a59: 5d ec        BIT     5,VV:EC
1a5b: 54 16 1a     JMP     $1A16
1a5e: 6c 01        MVI     D,$01
1a60: 34 e8 a8     LXI     HL,$A8E8
1a63: 2b           LDAX    (HL)
1a64: 60 cd        ONA     A,E
1a66: 4e 2e        JRE     $1A96
1a68: 70 1f e2 a8  LBCD    $A8E2
1a6c: b0           PUSH    VA
1a6d: 0c           MOV     A,D
1a6e: 40 84 10     CALL    $1084
1a71: a0           POP     VA
1a72: a5           DMOV    EA,BC
1a73: 70 1f e0 a8  LBCD    $A8E0
1a77: 74 ad        DGT     EA,BC
1a79: dc           JR      $1A96
1a7a: 70 3f da a8  LHLD    $A8DA
1a7e: 70 2f de a8  LDED    $A8DE
1a82: b4           PUSH    EA
1a83: a7           DMOV    EA,HL
1a84: 74 e6        DSUB    EA,DE
1a86: a3           POP     HL
1a87: a8           INX     EA
1a88: 74 af        DGT     EA,HL
1a8a: 54 16 1a     JMP     $1A16
1a8d: 70 3e 6d a8  SHLD    $A86D
1a91: a7           DMOV    EA,HL
1a92: 74 e5        DSUB    EA,BC
1a94: b7           DMOV    HL,EA
1a95: b8           RET     
1a96: 67 41        NEI     A,$41
1a98: 54 16 1a     JMP     $1A16
1a9b: 32           INX     HL
1a9c: 74 44 01     ADI     D,$01
1a9f: 4f c2        JRE     $1A63
1aa1: 70 3f dc a8  LHLD    $A8DC
1aa5: a7           DMOV    EA,HL
1aa6: 70 3f e0 a8  LHLD    $A8E0
1aaa: 74 ef        DNE     EA,HL
1aac: 58 6e        BIT     0,VV:6E
1aae: 58 c4        BIT     0,VV:C4
1ab0: 5d ec        BIT     5,VV:EC
1ab2: 54 35 1a     JMP     $1A35
1ab5: 6c 01        MVI     D,$01
1ab7: 34 e8 a8     LXI     HL,$A8E8
1aba: 14 00 00     LXI     BC,$0000
1abd: b1           PUSH    BC
1abe: 2b           LDAX    (HL)
1abf: 60 cd        ONA     A,E
1ac1: 4e 1d        JRE     $1AE0
1ac3: 70 1f e2 a8  LBCD    $A8E2
1ac7: b0           PUSH    VA
1ac8: 0c           MOV     A,D
1ac9: 40 84 10     CALL    $1084
1acc: a0           POP     VA
1acd: a5           DMOV    EA,BC
1ace: 70 1f e0 a8  LBCD    $A8E0
1ad2: 0a           MOV     A,B
1ad3: 60 9b        ORA     A,C
1ad5: 48 1c        SKN     Z
1ad7: 70 1f da a8  LBCD    $A8DA
1adb: 74 bd        DLT     EA,BC
1add: da           JR      $1AF8
1ade: a1           POP     BC
1adf: b4           PUSH    EA
1ae0: 77 41        EQI     A,$41
1ae2: cf           JR      $1AF2
1ae3: 70 1f e0 a8  LBCD    $A8E0
1ae7: 0a           MOV     A,B
1ae8: 60 9b        ORA     A,C
1aea: 48 1c        SKN     Z
1aec: 70 1f da a8  LBCD    $A8DA
1af0: 4e 06        JRE     $1AF8
1af2: 74 44 01     ADI     D,$01
1af5: 32           INX     HL
1af6: 4f c6        JRE     $1ABE
1af8: a3           POP     HL
1af9: 0e           MOV     A,H
1afa: 60 9f        ORA     A,L
1afc: 48 1c        SKN     Z
1afe: 54 35 1a     JMP     $1A35
1b01: a5           DMOV    EA,BC
1b02: 74 e7        DSUB    EA,HL
1b04: 70 3e 6d a8  SHLD    $A86D
1b08: b7           DMOV    HL,EA
1b09: b8           RET     
1b0a: b4           PUSH    EA
1b0b: 5f b7        BIT     7,VV:B7
1b0d: 5c d7        BIT     4,VV:D7
1b0f: 48 1a        SKN     CY
1b11: 4e 0c        JRE     $1B1F
1b13: 48 65        SKNIT   FE0
1b15: 54 83 20     JMP     $2083
1b18: 48 66        SKNIT   FE1
1b1a: 54 78 1d     JMP     $1D78
1b1d: 4e 0a        JRE     $1B29
1b1f: 5d b7        BIT     5,VV:B7
1b21: 54 83 20     JMP     $2083
1b24: 5d d7        BIT     5,VV:D7
1b26: 54 78 1d     JMP     $1D78
1b29: a4           POP     EA
1b2a: a3           POP     HL
1b2b: a2           POP     DE
1b2c: a1           POP     BC
1b2d: a0           POP     VA
1b2e: aa           EI      
1b2f: 62           RETI    
1b30: b4           PUSH    EA
1b31: 70 69 61 fe  MOV     A,($FE61)
1b35: 57 01        OFFI    A,$01
1b37: 70 79 6c fe  MOV     ($FE6C),A
1b3b: 57 02        OFFI    A,$02
1b3d: 70 79 6d fe  MOV     ($FE6D),A
1b41: 57 04        OFFI    A,$04
1b43: 70 79 6e fe  MOV     ($FE6E),A
1b47: 57 08        OFFI    A,$08
1b49: 70 79 6f fe  MOV     ($FE6F),A
1b4d: 70 79 07 aa  MOV     ($AA07),A
1b51: 34 be a8     LXI     HL,$A8BE
1b54: 2b           LDAX    (HL)
1b55: 67 05        NEI     A,$05
1b57: 4e dd        JRE     $1C36
1b59: 70 6a 07 aa  MOV     B,($AA07)
1b5d: 74 5a 10     OFFI    B,$10
1b60: 4e 2e        JRE     $1B90
1b62: 34 8b aa     LXI     HL,$AA8B
1b65: 2b           LDAX    (HL)
1b66: 07 fe        ANI     A,$FE
1b68: 3b           STAX    (HL)
1b69: 5d c8        BIT     5,VV:C8
1b6b: 70 79 00 80  MOV     ($8000),A
1b6f: 58 25        BIT     0,VV:25
1b71: 69 00        MVI     A,$00
1b73: 70 79 72 fe  MOV     ($FE72),A
1b77: 70 79 06 aa  MOV     ($AA06),A
1b7b: 3b           STAX    (HL)
1b7c: 70 79 63 fe  MOV     ($FE63),A
1b80: 5b 26        BIT     3,VV:26
1b82: 5b 02        BIT     3,VV:02
1b84: 34 6c fe     LXI     HL,$FE6C
1b87: 3d           STAX    (HL+)
1b88: 3d           STAX    (HL+)
1b89: 3d           STAX    (HL+)
1b8a: 3b           STAX    (HL)
1b8b: 40 09 14     CALL    $1409
1b8e: 4f 99        JRE     $1B29
1b90: 48 25        SLL     A
1b92: 48 a8        TABLE   
1b94: ca           JR      $1B9F
1b95: 34 1c ac     LXI     HL,$AC1C
1b98: 1b           MOV     C,A
1b99: bf 1b        STAX    (HL+$1B)
1b9b: e7           JR      $1B83
1b9c: 1b           MOV     C,A
1b9d: 0b           MOV     A,C
1b9e: 1c           MOV     D,A
1b9f: 48 29        CALB    
1ba1: 70 69 61 fe  MOV     A,($FE61)
1ba5: 57 0f        OFFI    A,$0F
1ba7: 4f 8c        JRE     $1B35
1ba9: 54 29 1b     JMP     $1B29
1bac: 70 6a 07 aa  MOV     B,($AA07)
1bb0: 74 4a 01     ONI     B,$01
1bb3: 54 bc 1b     JMP     $1BBC
1bb6: 70 79 63 fe  MOV     ($FE63),A
1bba: 4b 02        MVIX    HL,$02
1bbc: 54 30 1c     JMP     $1C30
1bbf: 70 6a 07 aa  MOV     B,($AA07)
1bc3: 74 4a 04     ONI     B,$04
1bc6: 4e 0e        JRE     $1BD6
1bc8: 24 15 ff     LXI     DE,$FF15
1bcb: 2a           LDAX    (DE)
1bcc: 51           DCR     A
1bcd: 3a           STAX    (DE)
1bce: 5d 68        BIT     5,VV:68
1bd0: 4e 04        JRE     $1BD6
1bd2: a3           POP     HL
1bd3: 54 6d 25     JMP     $256D
1bd6: 74 4a 02     ONI     B,$02
1bd9: 4e 05        JRE     $1BE0
1bdb: 4b 03        MVIX    HL,$03
1bdd: 40 09 14     CALL    $1409
1be0: 74 5a 09     OFFI    B,$09
1be3: 54 34 1c     JMP     $1C34
1be6: b8           RET     
1be7: 70 6a 07 aa  MOV     B,($AA07)
1beb: 74 4a 01     ONI     B,$01
1bee: da           JR      $1C09
1bef: 24 06 aa     LXI     DE,$AA06
1bf2: 2a           LDAX    (DE)
1bf3: 07 fe        ANI     A,$FE
1bf5: 70 79 72 fe  MOV     ($FE72),A
1bf9: 3a           STAX    (DE)
1bfa: 4b 04        MVIX    HL,$04
1bfc: 34 8b aa     LXI     HL,$AA8B
1bff: 2b           LDAX    (HL)
1c00: 07 fe        ANI     A,$FE
1c02: 3b           STAX    (HL)
1c03: 5d c8        BIT     5,VV:C8
1c05: 70 79 00 80  MOV     ($8000),A
1c09: 4e 25        JRE     $1C30
1c0b: 70 6a 07 aa  MOV     B,($AA07)
1c0f: 74 4a 01     ONI     B,$01
1c12: 4e 1c        JRE     $1C30
1c14: 70 79 63 fe  MOV     ($FE63),A
1c18: 50           EXH     
1c19: 06           illegal 
1c1a: 4e 10        JRE     $1C2C
1c1c: 4b 00        MVIX    HL,$00
1c1e: 24 06 aa     LXI     DE,$AA06
1c21: 2a           LDAX    (DE)
1c22: 07 f7        ANI     A,$F7
1c24: 70 79 72 fe  MOV     ($FE72),A
1c28: 3a           STAX    (DE)
1c29: 5b 02        BIT     3,VV:02
1c2b: c4           JR      $1C30
1c2c: 4b 02        MVIX    HL,$02
1c2e: 5b 06        BIT     3,VV:06
1c30: 74 4a 0e     ONI     B,$0E
1c33: b8           RET     
1c34: 00           NOP     
1c35: b8           RET     
1c36: 70 69 07 aa  MOV     A,($AA07)
1c3a: 47 01        ONI     A,$01
1c3c: da           JR      $1C57
1c3d: 34 ae a8     LXI     HL,$A8AE
1c40: 2b           LDAX    (HL)
1c41: 48 25        SLL     A
1c43: 48 a8        TABLE   
1c45: cc           JR      $1C52
1c46: 5f 1c        BIT     7,VV:1C
1c48: a8           INX     EA
1c49: 1c           MOV     D,A
1c4a: cd           JR      $1C58
1c4b: 1c           MOV     D,A
1c4c: 0b           MOV     A,C
1c4d: 1d           MOV     E,A
1c4e: 40 1d 46     CALL    $461D
1c51: 1d           MOV     E,A
1c52: 48 29        CALB    
1c54: 54 a1 1b     JMP     $1BA1
1c57: 57 06        OFFI    A,$06
1c59: 40 34 1c     CALL    $1C34
1c5c: 54 a1 1b     JMP     $1BA1
1c5f: 40 c1 7f     CALL    $7FC1
1c62: 70 69 07 aa  MOV     A,($AA07)
1c66: 57 10        OFFI    A,$10
1c68: d2           JR      $1C7B
1c69: 49 09        MVIX    BC,$09
1c6b: 70 2f b0 a8  LDED    $A8B0
1c6f: 22           INX     DE
1c70: 70 2e b0 a8  SDED    $A8B0
1c74: 44 50 00     LXI     EA,$0050
1c77: 74 ee        DNE     EA,DE
1c79: db           JR      $1C95
1c7a: d9           JR      $1C94
1c7b: 29           LDAX    (BC)
1c7c: 51           DCR     A
1c7d: 39           STAX    (BC)
1c7e: 77 00        EQI     A,$00
1c80: d3           JR      $1C94
1c81: 70 79 63 fe  MOV     ($FE63),A
1c85: 2b           LDAX    (HL)
1c86: 41           INR     A
1c87: 3b           STAX    (HL)
1c88: 69 7a        MVI     A,$7A
1c8a: 34 db 6b     LXI     HL,$6BDB
1c8d: 40 64 1d     CALL    $1D64
1c90: 70 79 62 fe  MOV     ($FE62),A
1c94: b8           RET     
1c95: ba           DI      
1c96: 70 79 63 fe  MOV     ($FE63),A
1c9a: 69 00        MVI     A,$00
1c9c: 70 79 72 fe  MOV     ($FE72),A
1ca0: 34 00 fe     LXI     HL,$FE00
1ca3: 3d           STAX    (HL+)
1ca4: 3d           STAX    (HL+)
1ca5: 3d           STAX    (HL+)
1ca6: 3b           STAX    (HL)
1ca7: ed           JR      $1C95
1ca8: 70 79 63 fe  MOV     ($FE63),A
1cac: 2b           LDAX    (HL)
1cad: 41           INR     A
1cae: 3b           STAX    (HL)
1caf: 34 ff ff     LXI     HL,$FFFF
1cb2: 70 3e 66 fe  SHLD    $FE66
1cb6: 6e 0f        MVI     H,$0F
1cb8: 70 3e 64 fe  SHLD    $FE64
1cbc: 70 69 06 aa  MOV     A,($AA06)
1cc0: 17 0f        ORI     A,$0F
1cc2: 34 ff 41     LXI     HL,$41FF
1cc5: 40 64 1d     CALL    $1D64
1cc8: 70 79 62 fe  MOV     ($FE62),A
1ccc: b8           RET     
1ccd: 40 c7 7f     CALL    $7FC7
1cd0: 00           NOP     
1cd1: 57 10        OFFI    A,$10
1cd3: 4e 24        JRE     $1CF9
1cd5: 54 ce 7f     JMP     $7FCE
1cd8: 00           NOP     
1cd9: 14 ff ff     LXI     BC,$FFFF
1cdc: 70 1e 66 fe  SBCD    $FE66
1ce0: 6a 0f        MVI     B,$0F
1ce2: 70 1e 64 fe  SBCD    $FE64
1ce6: 4b 03        MVIX    HL,$03
1ce8: 70 69 06 aa  MOV     A,($AA06)
1cec: 07 fe        ANI     A,$FE
1cee: 34 db 6b     LXI     HL,$6BDB
1cf1: 40 64 1d     CALL    $1D64
1cf4: 70 79 62 fe  MOV     ($FE62),A
1cf8: b8           RET     
1cf9: 70 3f b0 a8  LHLD    $A8B0
1cfd: 32           INX     HL
1cfe: 70 3e b0 a8  SHLD    $A8B0
1d02: 44 00 07     LXI     EA,$0700
1d05: 74 ef        DNE     EA,HL
1d07: 54 95 1c     JMP     $1C95
1d0a: b8           RET     
1d0b: 70 79 63 fe  MOV     ($FE63),A
1d0f: 69 14        MVI     A,$14
1d11: 70 79 af a8  MOV     ($A8AF),A
1d15: 2b           LDAX    (HL)
1d16: 41           INR     A
1d17: 3b           STAX    (HL)
1d18: 34 ff ff     LXI     HL,$FFFF
1d1b: 70 3e 66 fe  SHLD    $FE66
1d1f: 6e 0f        MVI     H,$0F
1d21: 70 3e 64 fe  SHLD    $FE64
1d25: 34 ff 41     LXI     HL,$41FF
1d28: 69 7b        MVI     A,$7B
1d2a: 40 64 1d     CALL    $1D64
1d2d: 70 79 73 fe  MOV     ($FE73),A
1d31: 69 00        MVI     A,$00
1d33: 70 79 75 fe  MOV     ($FE75),A
1d37: 70 79 76 fe  MOV     ($FE76),A
1d3b: 70 79 62 fe  MOV     ($FE62),A
1d3f: b8           RET     
1d40: 14 af a8     LXI     BC,$A8AF
1d43: 54 7b 1c     JMP     $1C7B
1d46: 70 69 07 aa  MOV     A,($AA07)
1d4a: 47 10        ONI     A,$10
1d4c: 54 95 1c     JMP     $1C95
1d4f: 70 79 63 fe  MOV     ($FE63),A
1d53: 69 00        MVI     A,$00
1d55: 70 79 72 fe  MOV     ($FE72),A
1d59: 70 79 06 aa  MOV     ($AA06),A
1d5d: 70 79 be a8  MOV     ($A8BE),A
1d61: 5b 02        BIT     3,VV:02
1d63: b8           RET     
1d64: 70 79 72 fe  MOV     ($FE72),A
1d68: 70 79 06 aa  MOV     ($AA06),A
1d6c: 70 3e 60 fe  SHLD    $FE60
1d70: 34 00 00     LXI     HL,$0000
1d73: 70 3e b0 a8  SHLD    $A8B0
1d77: b8           RET     
1d78: 34 cd a8     LXI     HL,$A8CD
1d7b: 2b           LDAX    (HL)
1d7c: 51           DCR     A
1d7d: c3           JR      $1D81
1d7e: 54 29 1b     JMP     $1B29
1d81: 48 25        SLL     A
1d83: 48 a8        TABLE   
1d85: dc           JR      $1DA2
1d86: a7           DMOV    EA,HL
1d87: 1d           MOV     E,A
1d88: be           STAX    (HL+EA)
1d89: 1d           MOV     E,A
1d8a: 3d           STAX    (HL+)
1d8b: 1e           MOV     H,A
1d8c: 8c           CALT    ($0098)
1d8d: 1e           MOV     H,A
1d8e: 9b           CALT    ($00B6)
1d8f: 1e           MOV     H,A
1d90: bf 1e        STAX    (HL+$1E)
1d92: c2           JR      $1D95
1d93: 1e           MOV     H,A
1d94: d1           JR      $1DA6
1d95: 1e           MOV     H,A
1d96: 2a           LDAX    (DE)
1d97: 1f           MOV     L,A
1d98: 61           DAA     
1d99: 1f           MOV     L,A
1d9a: 95           CALT    ($00AA)
1d9b: 1f           MOV     L,A
1d9c: ab 1f        LDAX    (DE+$1F)
1d9e: c7           JR      $1DA6
1d9f: 1f           MOV     L,A
1da0: d8           JR      $1DB9
1da1: 1f           MOV     L,A
1da2: 48 29        CALB    
1da4: 54 29 1b     JMP     $1B29
1da7: 24 ce a8     LXI     DE,$A8CE
1daa: 2a           LDAX    (DE)
1dab: 41           INR     A
1dac: 3a           STAX    (DE)
1dad: 77 01        EQI     A,$01
1daf: cb           JR      $1DBB
1db0: 2b           LDAX    (HL)
1db1: 41           INR     A
1db2: 3b           STAX    (HL)
1db3: 24 cf a8     LXI     DE,$A8CF
1db6: 2a           LDAX    (DE)
1db7: 41           INR     A
1db8: 3a           STAX    (DE)
1db9: 4e 1d        JRE     $1DD8
1dbb: 54 3b 20     JMP     $203B
1dbe: 24 cf a8     LXI     DE,$A8CF
1dc1: 2a           LDAX    (DE)
1dc2: 77 0a        EQI     A,$0A
1dc4: c4           JR      $1DC9
1dc5: 4b 03        MVIX    HL,$03
1dc7: 2a           LDAX    (DE)
1dc8: c2           JR      $1DCB
1dc9: 41           INR     A
1dca: 3a           STAX    (DE)
1dcb: 70 2f d0 a8  LDED    $A8D0
1dcf: 74 6c 00     NEI     D,$00
1dd2: 60 fd        EQA     A,E
1dd4: c3           JR      $1DD8
1dd5: 69 04        MVI     A,$04
1dd7: 3b           STAX    (HL)
1dd8: 40 3b 20     CALL    $203B
1ddb: 34 d2 a8     LXI     HL,$A8D2
1dde: 2b           LDAX    (HL)
1ddf: 66 02        SUI     A,$02
1de1: 50           EXH     
1de2: 24 46 04     LXI     DE,$0446
1de5: 07 07        ANI     A,$07
1de7: 3b           STAX    (HL)
1de8: 40 1d 20     CALL    $201D
1deb: 70 3f d3 a8  LHLD    $A8D3
1def: 33           DCX     HL
1df0: 70 3e d3 a8  SHLD    $A8D3
1df4: 0f           MOV     A,L
1df5: 60 9e        ORA     A,H
1df7: 77 00        EQI     A,$00
1df9: ca           JR      $1E04
1dfa: 34 cd a8     LXI     HL,$A8CD
1dfd: 4b 05        MVIX    HL,$05
1dff: 34 cf a8     LXI     HL,$A8CF
1e02: 4b 00        MVIX    HL,$00
1e04: 34 d5 a8     LXI     HL,$A8D5
1e07: 2b           LDAX    (HL)
1e08: 5d 24        BIT     5,VV:24
1e0a: df           JR      $1E2A
1e0b: 44 00 00     LXI     EA,$0000
1e0e: 70 2f 8c aa  LDED    $AA8C
1e12: 74 fe        DEQ     EA,DE
1e14: 22           INX     DE
1e15: 70 2e 8c aa  SDED    $AA8C
1e19: 88           CALT    ($0090)
1e1a: 00           NOP     
1e1b: 2b           LDAX    (HL)
1e1c: 27 9b        GTI     A,$9B
1e1e: 41           INR     A
1e1f: 74 7a 00     EQI     B,$00
1e22: d8           JR      $1E3B
1e23: 77 01        EQI     A,$01
1e25: 67 9c        NEI     A,$9C
1e27: 69 00        MVI     A,$00
1e29: d1           JR      $1E3B
1e2a: 77 00        EQI     A,$00
1e2c: 51           DCR     A
1e2d: 70 2f 8c aa  LDED    $AA8C
1e31: 44 00 00     LXI     EA,$0000
1e34: 74 fe        DEQ     EA,DE
1e36: 23           DCX     DE
1e37: 70 2e 8c aa  SDED    $AA8C
1e3b: 3b           STAX    (HL)
1e3c: b8           RET     
1e3d: 54 d7 43     JMP     $43D7
1e40: 00           NOP     
1e41: 0c           MOV     A,D
1e42: 77 00        EQI     A,$00
1e44: 4f 92        JRE     $1DD8
1e46: 70 69 cf a8  MOV     A,($A8CF)
1e4a: 60 fd        EQA     A,E
1e4c: 4f 8a        JRE     $1DD8
1e4e: 50           EXH     
1e4f: 65 50 45     NEIW    VV:50,$45
1e52: 4e 2e        JRE     $1E82
1e54: 69 18        MVI     A,$18
1e56: 70 2f e0 a8  LDED    $A8E0
1e5a: a6           DMOV    EA,DE
1e5b: 70 41        EADD    EA,A
1e5d: 70 1f da a8  LBCD    $A8DA
1e61: 13           DCX     BC
1e62: 74 ad        DGT     EA,BC
1e64: ca           JR      $1E6F
1e65: 12           INX     BC
1e66: a5           DMOV    EA,BC
1e67: 74 e6        DSUB    EA,DE
1e69: 09           MOV     A,EAL
1e6a: 58 45        BIT     0,VV:45
1e6c: 44 00 00     LXI     EA,$0000
1e6f: b7           DMOV    HL,EA
1e70: 70 3e e0 a8  SHLD    $A8E0
1e74: 70 3f d3 a8  LHLD    $A8D3
1e78: a7           DMOV    EA,HL
1e79: 70 41        EADD    EA,A
1e7b: b7           DMOV    HL,EA
1e7c: 70 3e d3 a8  SHLD    $A8D3
1e80: 4f 56        JRE     $1DD8
1e82: 4b 04        MVIX    HL,$04
1e84: 34 cf a8     LXI     HL,$A8CF
1e87: 2b           LDAX    (HL)
1e88: 51           DCR     A
1e89: 3b           STAX    (HL)
1e8a: 4f 4c        JRE     $1DD8
1e8c: 24 cf a8     LXI     DE,$A8CF
1e8f: 2a           LDAX    (DE)
1e90: 77 00        EQI     A,$00
1e92: c3           JR      $1E96
1e93: 4b 05        MVIX    HL,$05
1e95: c2           JR      $1E98
1e96: 51           DCR     A
1e97: 3a           STAX    (DE)
1e98: 54 d8 1d     JMP     $1DD8
1e9b: 40 e6 43     CALL    $43E6
1e9e: 2a           LDAX    (DE)
1e9f: 51           DCR     A
1ea0: 3a           STAX    (DE)
1ea1: 77 00        EQI     A,$00
1ea3: d7           JR      $1EBB
1ea4: 50           EXH     
1ea5: 24 50 2e     LXI     DE,$2E50
1ea8: c9           JR      $1EB2
1ea9: 5b 24        BIT     3,VV:24
1eab: 34 04 00     LXI     HL,$0004
1eae: 40 3d 16     CALL    $163D
1eb1: cc           JR      $1EBE
1eb2: 70 79 00 fe  MOV     ($FE00),A
1eb6: 5b 22        BIT     3,VV:22
1eb8: 58 d7        BIT     0,VV:D7
1eba: c3           JR      $1EBE
1ebb: 40 3b 20     CALL    $203B
1ebe: b8           RET     
1ebf: 54 a7 1d     JMP     $1DA7
1ec2: 24 cf a8     LXI     DE,$A8CF
1ec5: 2a           LDAX    (DE)
1ec6: 77 0a        EQI     A,$0A
1ec8: c3           JR      $1ECC
1ec9: 4b 08        MVIX    HL,$08
1ecb: c2           JR      $1ECE
1ecc: 41           INR     A
1ecd: 3a           STAX    (DE)
1ece: 54 6d 1f     JMP     $1F6D
1ed1: 70 2f d3 a8  LDED    $A8D3
1ed5: 74 7c 00     EQI     D,$00
1ed8: cb           JR      $1EE4
1ed9: 14 cf a8     LXI     BC,$A8CF
1edc: 29           LDAX    (BC)
1edd: 60 fd        EQA     A,E
1edf: c4           JR      $1EE4
1ee0: 51           DCR     A
1ee1: 39           STAX    (BC)
1ee2: 4b 0a        MVIX    HL,$0A
1ee4: 88           CALT    ($0090)
1ee5: 00           NOP     
1ee6: 67 00        NEI     A,$00
1ee8: 4e 30        JRE     $1F1A
1eea: 50           EXH     
1eeb: 43           INR     C
1eec: 4e 3a        JRE     $1F28
1eee: 4b 09        MVIX    HL,$09
1ef0: 34 d3 a8     LXI     HL,$A8D3
1ef3: 24 ab 00     LXI     DE,$00AB
1ef6: 0d           MOV     A,E
1ef7: 3b           STAX    (HL)
1ef8: 0c           MOV     A,D
1ef9: bf 01        STAX    (HL+$01)
1efb: 58 e5        BIT     0,VV:E5
1efd: 14 b2 a8     LXI     BC,$A8B2
1f00: 29           LDAX    (BC)
1f01: 77 00        EQI     A,$00
1f03: 69 28        MVI     A,$28
1f05: 39           STAX    (BC)
1f06: 70 1f dc a8  LBCD    $A8DC
1f0a: 70 1e e0 a8  SBCD    $A8E0
1f0e: a5           DMOV    EA,BC
1f0f: 70 1f d3 a8  LBCD    $A8D3
1f13: 74 c5        DADD    EA,BC
1f15: b5           DMOV    BC,EA
1f16: 70 1e d3 a8  SBCD    $A8D3
1f1a: 5d 43        BIT     5,VV:43
1f1c: cb           JR      $1F28
1f1d: 4b 09        MVIX    HL,$09
1f1f: 34 40 02     LXI     HL,$0240
1f22: 70 3e d3 a8  SHLD    $A8D3
1f26: 58 e5        BIT     0,VV:E5
1f28: 4e 43        JRE     $1F6D
1f2a: 70 2f d3 a8  LDED    $A8D3
1f2e: 74 7c 00     EQI     D,$00
1f31: cc           JR      $1F3E
1f32: 14 cf a8     LXI     BC,$A8CF
1f35: 29           LDAX    (BC)
1f36: 60 fd        EQA     A,E
1f38: c5           JR      $1F3E
1f39: 66 01        SUI     A,$01
1f3b: 39           STAX    (BC)
1f3c: 4b 0a        MVIX    HL,$0A
1f3e: 50           EXH     
1f3f: ce           JR      $1F4E
1f40: 4e 1e        JRE     $1F60
1f42: 88           CALT    ($0090)
1f43: 00           NOP     
1f44: 00           NOP     
1f45: 40 1e 44     CALL    $441E
1f48: 4e 16        JRE     $1F60
1f4a: 40 08 44     CALL    $4408
1f4d: 00           NOP     
1f4e: 44 ab 00     LXI     EA,$00AB
1f51: 70 2f dc a8  LDED    $A8DC
1f55: 74 c6        DADD    EA,DE
1f57: 70 2e e0 a8  SDED    $A8E0
1f5b: b6           DMOV    DE,EA
1f5c: 70 2e d3 a8  SDED    $A8D3
1f60: cc           JR      $1F6D
1f61: 14 cf a8     LXI     BC,$A8CF
1f64: 29           LDAX    (BC)
1f65: 67 00        NEI     A,$00
1f67: c3           JR      $1F6B
1f68: 51           DCR     A
1f69: 39           STAX    (BC)
1f6a: c2           JR      $1F6D
1f6b: 4b 0b        MVIX    HL,$0B
1f6d: 40 f6 43     CALL    $43F6
1f70: 34 d2 a8     LXI     HL,$A8D2
1f73: 2b           LDAX    (HL)
1f74: 66 02        SUI     A,$02
1f76: 07 07        ANI     A,$07
1f78: 3b           STAX    (HL)
1f79: 40 1d 20     CALL    $201D
1f7c: 70 3f d3 a8  LHLD    $A8D3
1f80: 33           DCX     HL
1f81: 70 3e d3 a8  SHLD    $A8D3
1f85: 0f           MOV     A,L
1f86: 60 9e        ORA     A,H
1f88: 77 00        EQI     A,$00
1f8a: c9           JR      $1F94
1f8b: 34 cf a8     LXI     HL,$A8CF
1f8e: 3b           STAX    (HL)
1f8f: 34 cd a8     LXI     HL,$A8CD
1f92: 4b 0b        MVIX    HL,$0B
1f94: b8           RET     
1f95: 40 e6 43     CALL    $43E6
1f98: 2a           LDAX    (DE)
1f99: 51           DCR     A
1f9a: 3a           STAX    (DE)
1f9b: 77 00        EQI     A,$00
1f9d: c9           JR      $1FA7
1f9e: 70 79 00 fe  MOV     ($FE00),A
1fa2: 5b 22        BIT     3,VV:22
1fa4: 58 d7        BIT     0,VV:D7
1fa6: c3           JR      $1FAA
1fa7: 40 3b 20     CALL    $203B
1faa: b8           RET     
1fab: 24 ce a8     LXI     DE,$A8CE
1fae: 2a           LDAX    (DE)
1faf: 41           INR     A
1fb0: 3a           STAX    (DE)
1fb1: 77 01        EQI     A,$01
1fb3: d0           JR      $1FC4
1fb4: 4b 0d        MVIX    HL,$0D
1fb6: 69 00        MVI     A,$00
1fb8: 3a           STAX    (DE)
1fb9: 24 d8 a8     LXI     DE,$A8D8
1fbc: 3a           STAX    (DE)
1fbd: 70 69 d9 a8  MOV     A,($A8D9)
1fc1: 40 6d 20     CALL    $206D
1fc4: 54 51 20     JMP     $2051
1fc7: 24 d8 a8     LXI     DE,$A8D8
1fca: 2a           LDAX    (DE)
1fcb: 41           INR     A
1fcc: 3a           STAX    (DE)
1fcd: 77 60        EQI     A,$60
1fcf: c2           JR      $1FD2
1fd0: 4b 0e        MVIX    HL,$0E
1fd2: 40 64 20     CALL    $2064
1fd5: 54 51 20     JMP     $2051
1fd8: 40 64 20     CALL    $2064
1fdb: 69 38        MVI     A,$38
1fdd: 70 79 b2 a8  MOV     ($A8B2),A
1fe1: 64 9d 80     ORI     TMM,$80
1fe4: 48 42        SKIT    FT1
1fe6: 00           NOP     
1fe7: 69 88        MVI     A,$88
1fe9: 4d db        MOV     TM1,A
1feb: 64 8d 7f     ANI     TMM,$7F
1fee: 34 a4 00     LXI     HL,$00A4
1ff1: 5b 24        BIT     3,VV:24
1ff3: ba           DI      
1ff4: 40 3d 16     CALL    $163D
1ff7: 34 cd a8     LXI     HL,$A8CD
1ffa: 4b 06        MVIX    HL,$06
1ffc: b8           RET     
1ffd: 34 b2 a8     LXI     HL,$A8B2
2000: 2b           LDAX    (HL)
2001: 67 00        NEI     A,$00
2003: d8           JR      $201C
2004: 51           DCR     A
2005: 3b           STAX    (HL)
2006: 67 00        NEI     A,$00
2008: cf           JR      $2018
2009: 67 01        NEI     A,$01
200b: c4           JR      $2010
200c: 40 64 20     CALL    $2064
200f: cc           JR      $201C
2010: 70 69 d9 a8  MOV     A,($A8D9)
2014: 40 6d 20     CALL    $206D
2017: c4           JR      $201C
2018: 70 79 04 fe  MOV     ($FE04),A
201c: b8           RET     
201d: 34 33 20     LXI     HL,$2033
2020: ac           LDAX    (HL+A)
2021: 1f           MOV     L,A
2022: 4c c0        MOV     A,PA
2024: 07 f0        ANI     A,$F0
2026: 60 9f        ORA     A,L
2028: 4d c0        MOV     PA,A
202a: 70 79 01 fe  MOV     ($FE01),A
202e: 70 79 73 fe  MOV     ($FE73),A
2032: b8           RET     
2033: 0c           MOV     A,D
2034: 0d           MOV     A,E
2035: 09           MOV     A,EAL
2036: 0b           MOV     A,C
2037: 03           DCX     SP
2038: 07 06        ANI     A,$06
203a: 0e           MOV     A,H
203b: 48 c0        DMOV    EA,ECNT
203d: b6           DMOV    DE,EA
203e: 70 69 cf a8  MOV     A,($A8CF)
2042: 44 80 46     LXI     EA,$4680
2045: 48 25        SLL     A
2047: 70 41        EADD    EA,A
2049: b7           DMOV    HL,EA
204a: 48 83        LDEAX   (HL)
204c: 74 c6        DADD    EA,DE
204e: 48 d3        DMOV    ETM1,EA
2050: b8           RET     
2051: 48 c0        DMOV    EA,ECNT
2053: 24 88 13     LXI     DE,$1388
2056: 70 69 cd a8  MOV     A,($A8CD)
205a: 77 0c        EQI     A,$0C
205c: 24 fb 10     LXI     DE,$10FB
205f: 74 c6        DADD    EA,DE
2061: 48 d3        DMOV    ETM1,EA
2063: b8           RET     
2064: 14 d9 a8     LXI     BC,$A8D9
2067: 29           LDAX    (BC)
2068: 66 01        SUI     A,$01
206a: 07 03        ANI     A,$03
206c: 39           STAX    (BC)
206d: 34 7f 20     LXI     HL,$207F
2070: ac           LDAX    (HL+A)
2071: 1f           MOV     L,A
2072: 4c c1        MOV     A,PB
2074: 07 cf        ANI     A,$CF
2076: 60 9f        ORA     A,L
2078: 4d c1        MOV     PB,A
207a: 70 79 05 fe  MOV     ($FE05),A
207e: b8           RET     
207f: 10           EXA     
2080: 30 20        DCRW    VV:20
2082: 00           NOP     
2083: 34 ca a8     LXI     HL,$A8CA
2086: 2b           LDAX    (HL)
2087: 51           DCR     A
2088: c3           JR      $208C
2089: 54 29 1b     JMP     $1B29
208c: 48 25        SLL     A
208e: 48 a8        TABLE   
2090: c6           JR      $2097
2091: 9c           CALT    ($00B8)
2092: 20 c0        INRW    VV:C0
2094: 20 da        INRW    VV:DA
2096: 20 48        INRW    VV:48
2098: 29           LDAX    (BC)
2099: 54 29 1b     JMP     $1B29
209c: 34 cb a8     LXI     HL,$A8CB
209f: 2b           LDAX    (HL)
20a0: 51           DCR     A
20a1: 3b           STAX    (HL)
20a2: 6a 02        MVI     B,$02
20a4: 67 00        NEI     A,$00
20a6: 70 7a ca a8  MOV     ($A8CA),B
20aa: 34 0a 1a     LXI     HL,$1A0A
20ad: 40 fb 20     CALL    $20FB
20b0: 34 b7 a8     LXI     HL,$A8B7
20b3: 2b           LDAX    (HL)
20b4: 51           DCR     A
20b5: 00           NOP     
20b6: 5d 04        BIT     5,VV:04
20b8: 46 02        ADI     A,$02
20ba: 07 03        ANI     A,$03
20bc: 3b           STAX    (HL)
20bd: 54 e5 20     JMP     $20E5
20c0: 14 cc a8     LXI     BC,$A8CC
20c3: 29           LDAX    (BC)
20c4: 41           INR     A
20c5: 39           STAX    (BC)
20c6: 77 02        EQI     A,$02
20c8: cb           JR      $20D4
20c9: 70 79 02 fe  MOV     ($FE02),A
20cd: 5b 42        BIT     3,VV:42
20cf: 58 b7        BIT     0,VV:B7
20d1: 4b 00        MVIX    HL,$00
20d3: b8           RET     
20d4: 34 88 13     LXI     HL,$1388
20d7: 54 fb 20     JMP     $20FB
20da: 70 79 02 fe  MOV     ($FE02),A
20de: 58 b7        BIT     0,VV:B7
20e0: 5b 42        BIT     3,VV:42
20e2: 4b 00        MVIX    HL,$00
20e4: b8           RET     
20e5: 34 f7 20     LXI     HL,$20F7
20e8: ac           LDAX    (HL+A)
20e9: 1f           MOV     L,A
20ea: 4c c1        MOV     A,PB
20ec: 07 f0        ANI     A,$F0
20ee: 60 9f        ORA     A,L
20f0: 4d c1        MOV     PB,A
20f2: 70 79 03 fe  MOV     ($FE03),A
20f6: b8           RET     
20f7: 03           DCX     SP
20f8: 06           illegal 
20f9: 0c           MOV     A,D
20fa: 09           MOV     A,EAL
20fb: 48 c0        DMOV    EA,ECNT
20fd: 74 c7        DADD    EA,HL
20ff: 48 d2        DMOV    ETM0,EA
2101: b8           RET     
2102: 48 ad        illegal 
2104: 5f 56        BIT     7,VV:56
2106: 5c 36        BIT     4,VV:36
2108: 48 0a        SK      CY
210a: c8           JR      $2113
210b: 5d 36        BIT     5,VV:36
210d: c8           JR      $2116
210e: 5d 56        BIT     5,VV:56
2110: d9           JR      $212A
2111: 4e 20        JRE     $2133
2113: 48 49        SKIT    FSR
2115: d1           JR      $2127
2116: 4c d9        MOV     A,RXB
2118: 70 1f 64 aa  LBCD    $AA64
211c: a5           DMOV    EA,BC
211d: 70 1f 00 aa  LBCD    $AA00
2121: 74 fd        DEQ     EA,BC
2123: 40 37 21     CALL    $2137
2126: cc           JR      $2133
2127: 48 4a        SKIT    FST
2129: c9           JR      $2133
212a: 40 dc 21     CALL    $21DC
212d: c5           JR      $2133
212e: 5b 62        BIT     3,VV:62
2130: 64 1e 04     ORI     MKH,$04
2133: 48 ad        illegal 
2135: aa           EI      
2136: 62           RETI    
2137: b1           PUSH    BC
2138: 70 2f 04 aa  LDED    $AA04
213c: 50           EXH     
213d: c8           JR      $2146
213e: c2           JR      $2141
213f: 3c           STAX    (DE+)
2140: ca           JR      $214B
2141: a6           DMOV    EA,DE
2142: 70 7c 10 fe  MOV     ($FE10),D
2146: 6c 80        MVI     D,$80
2148: 3a           STAX    (DE)
2149: b6           DMOV    DE,EA
214a: 22           INX     DE
214b: 70 1f 68 aa  LBCD    $AA68
214f: a5           DMOV    EA,BC
2150: 74 ee        DNE     EA,DE
2152: 70 2f 66 aa  LDED    $AA66
2156: 70 2e 04 aa  SDED    $AA04
215a: 70 1f 00 aa  LBCD    $AA00
215e: 12           INX     BC
215f: 70 1e 00 aa  SBCD    $AA00
2163: 70 2f 64 aa  LDED    $AA64
2167: a6           DMOV    EA,DE
2168: 74 e5        DSUB    EA,BC
216a: 70 1f b3 a8  LBCD    $A8B3
216e: 00           NOP     
216f: 00           NOP     
2170: 74 bd        DLT     EA,BC
2172: c5           JR      $2178
2173: 58 82        BIT     0,VV:82
2175: 40 14 0b     CALL    $0B14
2178: a1           POP     BC
2179: b8           RET     
217a: ba           DI      
217b: 34 83 aa     LXI     HL,$AA83
217e: 70 3e 81 aa  SHLD    $AA81
2182: 69 49        MVI     A,$49
2184: 3d           STAX    (HL+)
2185: 69 57        MVI     A,$57
2187: 3d           STAX    (HL+)
2188: 69 31        MVI     A,$31
218a: 3d           STAX    (HL+)
218b: 69 30        MVI     A,$30
218d: 3d           STAX    (HL+)
218e: 69 43        MVI     A,$43
2190: 50           EXH     
2191: a5           DMOV    EA,BC
2192: 3d           STAX    (HL+)
2193: 69 46        MVI     A,$46
2195: 50           EXH     
2196: 63 3d        STAW    VV:3D
2198: 69 0d        MVI     A,$0D
219a: 3d           STAX    (HL+)
219b: 69 00        MVI     A,$00
219d: 3b           STAX    (HL)
219e: 5d a6        BIT     5,VV:A6
21a0: 4e 27        JRE     $21C9
21a2: 14 83 aa     LXI     BC,$AA83
21a5: 24 00 80     LXI     DE,$8000
21a8: ba           DI      
21a9: 69 18        MVI     A,$18
21ab: 4d d0        MOV     MM,A
21ad: 2a           LDAX    (DE)
21ae: b0           PUSH    VA
21af: 69 08        MVI     A,$08
21b1: 4d d0        MOV     MM,A
21b3: a0           POP     VA
21b4: 47 40        ONI     A,$40
21b6: c2           JR      $21B9
21b7: 86           CALT    ($008C)
21b8: ef           JR      $21A8
21b9: 29           LDAX    (BC)
21ba: 70 79 10 fe  MOV     ($FE10),A
21be: aa           EI      
21bf: 69 00        MVI     A,$00
21c1: 39           STAX    (BC)
21c2: 12           INX     BC
21c3: 29           LDAX    (BC)
21c4: 77 00        EQI     A,$00
21c6: 4f e0        JRE     $21A8
21c8: b8           RET     
21c9: 50           EXH     
21ca: 62           RETI    
21cb: cb           JR      $21D7
21cc: 48 4a        SKIT    FST
21ce: 00           NOP     
21cf: 40 dc 21     CALL    $21DC
21d2: 00           NOP     
21d3: 5b 56        BIT     3,VV:56
21d5: 58 62        BIT     0,VV:62
21d7: 86           CALT    ($008C)
21d8: 50           EXH     
21d9: 62           RETI    
21da: fc           JR      $21D7
21db: b8           RET     
21dc: 70 3f 81 aa  LHLD    $AA81
21e0: 2b           LDAX    (HL)
21e1: 67 00        NEI     A,$00
21e3: b9           RETS    
21e4: 4d d8        MOV     TXB,A
21e6: 69 00        MVI     A,$00
21e8: 3d           STAX    (HL+)
21e9: 70 3e 81 aa  SHLD    $AA81
21ed: b8           RET     
21ee: 70 69 09 ff  MOV     A,($FF09)
21f2: 47 0f        ONI     A,$0F
21f4: b8           RET     
21f5: 70 69 6a aa  MOV     A,($AA6A)
21f9: 17 80        ORI     A,$80
21fb: 70 79 6a aa  MOV     ($AA6A),A
21ff: 5d 49        BIT     5,VV:49
2201: c4           JR      $2206
2202: 34 de 26     LXI     HL,$26DE
2205: cc           JR      $2212
2206: 5d 69        BIT     5,VV:69
2208: cb           JR      $2214
2209: 64 1e 06     ORI     MKH,$06
220c: 64 0f fb     ANI     MKL,$FB
220f: 34 d2 26     LXI     HL,$26D2
2212: 4e 1a        JRE     $222E
2214: 5d 29        BIT     5,VV:29
2216: c3           JR      $221A
2217: 07 7f        ANI     A,$7F
2219: c5           JR      $221F
221a: 5d 09        BIT     5,VV:09
221c: b8           RET     
221d: 17 20        ORI     A,$20
221f: 70 79 6a aa  MOV     ($AA6A),A
2223: 70 69 5b aa  MOV     A,($AA5B)
2227: 07 07        ANI     A,$07
2229: 70 79 5b aa  MOV     ($AA5B),A
222d: b8           RET     
222e: 40 a9 22     CALL    $22A9
2231: 85           CALT    ($008A)
2232: 40 a9 22     CALL    $22A9
2235: 34 ea 26     LXI     HL,$26EA
2238: 85           CALT    ($008A)
2239: b3           PUSH    HL
223a: 34 71 4b     LXI     HL,$4B71
223d: 2d           LDAX    (HL+)
223e: 84           CALT    ($0088)
223f: 2b           LDAX    (HL)
2240: 84           CALT    ($0088)
2241: a3           POP     HL
2242: 85           CALT    ($008A)
2243: 40 a9 22     CALL    $22A9
2246: 85           CALT    ($008A)
2247: 40 b1 22     CALL    $22B1
224a: 85           CALT    ($008A)
224b: 40 c1 22     CALL    $22C1
224e: 85           CALT    ($008A)
224f: 40 a9 22     CALL    $22A9
2252: 85           CALT    ($008A)
2253: 50           EXH     
2254: c8           JR      $225D
2255: c5           JR      $225B
2256: 69 30        MVI     A,$30
2258: 84           CALT    ($0088)
2259: 4e 21        JRE     $227C
225b: 70 69 af aa  MOV     A,($AAAF)
225f: 48 21        SLR     A
2261: 48 21        SLR     A
2263: 48 21        SLR     A
2265: 48 21        SLR     A
2267: 48 21        SLR     A
2269: 60 c1        ADD     A,A
226b: 61           DAA     
226c: 60 c1        ADD     A,A
226e: 61           DAA     
226f: 60 c1        ADD     A,A
2271: 61           DAA     
2272: 1a           MOV     B,A
2273: 40 2b 24     CALL    $242B
2276: 84           CALT    ($0088)
2277: 0a           MOV     A,B
2278: 40 33 24     CALL    $2433
227b: 84           CALT    ($0088)
227c: 34 1f 27     LXI     HL,$271F
227f: 85           CALT    ($008A)
2280: 70 69 01 ff  MOV     A,($FF01)
2284: 47 08        ONI     A,$08
2286: ca           JR      $2291
2287: 50           EXH     
2288: c8           JR      $2291
2289: c7           JR      $2291
228a: 69 4f        MVI     A,$4F
228c: 84           CALT    ($0088)
228d: 69 4e        MVI     A,$4E
228f: 84           CALT    ($0088)
2290: c9           JR      $229A
2291: 69 4f        MVI     A,$4F
2293: 84           CALT    ($0088)
2294: 69 46        MVI     A,$46
2296: 84           CALT    ($0088)
2297: 69 46        MVI     A,$46
2299: 84           CALT    ($0088)
229a: 69 0a        MVI     A,$0A
229c: 84           CALT    ($0088)
229d: 69 0a        MVI     A,$0A
229f: 84           CALT    ($0088)
22a0: b8           RET     
22a1: 2d           LDAX    (HL+)
22a2: 84           CALT    ($0088)
22a3: 2b           LDAX    (HL)
22a4: 77 ff        EQI     A,$FF
22a6: fa           JR      $22A1
22a7: 32           INX     HL
22a8: b8           RET     
22a9: 6b 13        MVI     C,$13
22ab: 69 20        MVI     A,$20
22ad: 84           CALT    ($0088)
22ae: 53           DCR     C
22af: fb           JR      $22AB
22b0: b8           RET     
22b1: 6b 07        MVI     C,$07
22b3: 70 6a 00 ff  MOV     B,($FF00)
22b7: 69 31        MVI     A,$31
22b9: 48 02        SLRC    B
22bb: 69 30        MVI     A,$30
22bd: 84           CALT    ($0088)
22be: 53           DCR     C
22bf: f7           JR      $22B7
22c0: b8           RET     
22c1: 6b 03        MVI     C,$03
22c3: 70 6a 01 ff  MOV     B,($FF01)
22c7: ef           JR      $22B7
22c8: 50           EXH     
22c9: 49 c7        MVIX    BC,$C7
22cb: 50           EXH     
22cc: 69 d5        MVI     A,$D5
22ce: 50           EXH     
22cf: 29           LDAX    (BC)
22d0: c8           JR      $22D9
22d1: b8           RET     
22d2: 50           EXH     
22d3: 82           CALT    ($0084)
22d4: b8           RET     
22d5: 40 58 23     CALL    $2358
22d8: c8           JR      $22E1
22d9: 50           EXH     
22da: 82           CALT    ($0084)
22db: b8           RET     
22dc: 40 58 23     CALL    $2358
22df: 69 7f        MVI     A,$7F
22e1: 9c           CALT    ($00B8)
22e2: b8           RET     
22e3: 4c c2        MOV     A,PC
22e5: 1a           MOV     B,A
22e6: 64 1a 40     ORI     PC,$40
22e9: 70 69 05 fe  MOV     A,($FE05)
22ed: 47 01        ONI     A,$01
22ef: ca           JR      $22FA
22f0: 64 0a bf     ANI     PC,$BF
22f3: 70 69 05 fe  MOV     A,($FE05)
22f7: 47 01        ONI     A,$01
22f9: cd           JR      $2307
22fa: 70 69 b0 aa  MOV     A,($AAB0)
22fe: 67 03        NEI     A,$03
2300: c6           JR      $2307
2301: 69 02        MVI     A,$02
2303: 70 79 b0 aa  MOV     ($AAB0),A
2307: 0a           MOV     A,B
2308: 4d c2        MOV     PC,A
230a: 70 69 b0 aa  MOV     A,($AAB0)
230e: 77 00        EQI     A,$00
2310: 4e 16        JRE     $2328
2312: 50           EXH     
2313: 82           CALT    ($0084)
2314: dc           JR      $2331
2315: 40 58 23     CALL    $2358
2318: 4d d8        MOV     TXB,A
231a: 6a ff        MVI     B,$FF
231c: 70 7a be aa  MOV     ($AABE),B
2320: 6a 01        MVI     B,$01
2322: 70 79 b1 aa  MOV     ($AAB1),A
2326: 0a           MOV     A,B
2327: c9           JR      $2331
2328: 77 01        EQI     A,$01
232a: 4e 1d        JRE     $2349
232c: 50           EXH     
232d: a9           DCX     EA
232e: d8           JR      $2347
232f: 48 49        SKIT    FSR
2331: 4e 20        JRE     $2353
2333: 48 6b        SKNIT   ER
2335: d1           JR      $2347
2336: 4c d9        MOV     A,RXB
2338: 70 6a b1 aa  MOV     B,($AAB1)
233c: 60 fa        EQA     A,B
233e: c8           JR      $2347
233f: 9c           CALT    ($00B8)
2340: 69 00        MVI     A,$00
2342: 70 79 be aa  MOV     ($AABE),A
2346: cc           JR      $2353
2347: 69 02        MVI     A,$02
2349: 77 02        EQI     A,$02
234b: c7           JR      $2353
234c: 8b           CALT    ($0096)
234d: 34 28 27     LXI     HL,$2728
2350: 85           CALT    ($008A)
2351: 69 03        MVI     A,$03
2353: 70 79 b0 aa  MOV     ($AAB0),A
2357: b8           RET     
2358: 5d 89        BIT     5,VV:89
235a: c4           JR      $235F
235b: 24 ad aa     LXI     DE,$AAAD
235e: d6           JR      $2375
235f: 58 89        BIT     0,VV:89
2361: 69 00        MVI     A,$00
2363: 70 79 b2 aa  MOV     ($AAB2),A
2367: 70 3f 62 aa  LHLD    $AA62
236b: 70 3e a9 aa  SHLD    $AAA9
236f: 40 ae 23     CALL    $23AE
2372: 24 ae aa     LXI     DE,$AAAE
2375: 2a           LDAX    (DE)
2376: 41           INR     A
2377: 67 7f        NEI     A,$7F
2379: 69 20        MVI     A,$20
237b: 3a           STAX    (DE)
237c: 70 79 ad aa  MOV     ($AAAD),A
2380: 40 1e 3f     CALL    $3F1E
2383: 1d           MOV     E,A
2384: 70 6c 5b aa  MOV     D,($AA5B)
2388: 6a 00        MVI     B,$00
238a: 70 69 b2 aa  MOV     A,($AAB2)
238e: 40 d6 38     CALL    $38D6
2391: 70 79 b2 aa  MOV     ($AAB2),A
2395: 70 3f a9 aa  LHLD    $AAA9
2399: 74 c7        DADD    EA,HL
239b: b6           DMOV    DE,EA
239c: 70 2e a9 aa  SDED    $AAA9
23a0: 97           CALT    ($00AE)
23a1: 48 0a        SK      CY
23a3: c5           JR      $23A9
23a4: 69 0d        MVI     A,$0D
23a6: 84           CALT    ($0088)
23a7: 4f b8        JRE     $2361
23a9: 70 69 ad aa  MOV     A,($AAAD)
23ad: b8           RET     
23ae: 69 1b        MVI     A,$1B
23b0: 84           CALT    ($0088)
23b1: 69 4b        MVI     A,$4B
23b3: 84           CALT    ($0088)
23b4: 70 69 ac aa  MOV     A,($AAAC)
23b8: 1a           MOV     B,A
23b9: 41           INR     A
23ba: 67 37        NEI     A,$37
23bc: 69 30        MVI     A,$30
23be: 50           EXH     
23bf: 29           LDAX    (BC)
23c0: 07 33        ANI     A,$33
23c2: 70 79 ac aa  MOV     ($AAAC),A
23c6: 0a           MOV     A,B
23c7: 84           CALT    ($0088)
23c8: b8           RET     
23c9: 70 69 b3 aa  MOV     A,($AAB3)
23cd: 1b           MOV     C,A
23ce: 41           INR     A
23cf: 07 03        ANI     A,$03
23d1: 70 79 b3 aa  MOV     ($AAB3),A
23d5: 70 2f 02 aa  LDED    $AA02
23d9: 5d c8        BIT     5,VV:C8
23db: d7           JR      $23F3
23dc: b2           PUSH    DE
23dd: 0c           MOV     A,D
23de: ba           DI      
23df: 70 79 10 fe  MOV     ($FE10),A
23e3: 6c 80        MVI     D,$80
23e5: 69 18        MVI     A,$18
23e7: 4d d0        MOV     MM,A
23e9: 2a           LDAX    (DE)
23ea: b0           PUSH    VA
23eb: 69 08        MVI     A,$08
23ed: 4d d0        MOV     MM,A
23ef: a0           POP     VA
23f0: aa           EI      
23f1: a2           POP     DE
23f2: c6           JR      $23F9
23f3: 50           EXH     
23f4: a6           DMOV    EA,DE
23f5: 24 8e aa     LXI     DE,$AA8E
23f8: 2a           LDAX    (DE)
23f9: 74 6b 00     NEI     C,$00
23fc: 4e 2d        JRE     $242B
23fe: 74 6b 01     NEI     C,$01
2401: 4e 30        JRE     $2433
2403: 74 6b 02     NEI     C,$02
2406: 4e 20        JRE     $2428
2408: 50           EXH     
2409: a6           DMOV    EA,DE
240a: dd           JR      $2428
240b: 22           INX     DE
240c: b2           PUSH    DE
240d: 70 2f 68 aa  LDED    $AA68
2411: a6           DMOV    EA,DE
2412: a2           POP     DE
2413: 74 ee        DNE     EA,DE
2415: 70 2f 66 aa  LDED    $AA66
2419: 70 2e 02 aa  SDED    $AA02
241d: ba           DI      
241e: 70 2f 00 aa  LDED    $AA00
2422: 23           DCX     DE
2423: 70 2e 00 aa  SDED    $AA00
2427: aa           EI      
2428: 69 20        MVI     A,$20
242a: d0           JR      $243B
242b: 48 31        RLR     A
242d: 48 31        RLR     A
242f: 48 31        RLR     A
2431: 48 31        RLR     A
2433: 07 0f        ANI     A,$0F
2435: 46 90        ADI     A,$90
2437: 61           DAA     
2438: 56 40        ACI     A,$40
243a: 61           DAA     
243b: b8           RET     
243c: 69 18        MVI     A,$18
243e: 4d d0        MOV     MM,A
2440: 6a 00        MVI     B,$00
2442: 24 43 27     LXI     DE,$2743
2445: 6f ff        MVI     L,$FF
2447: 2a           LDAX    (DE)
2448: 70 79 10 fe  MOV     ($FE10),A
244c: 6e 80        MVI     H,$80
244e: 4b a5        MVIX    HL,$A5
2450: 2b           LDAX    (HL)
2451: 77 a5        EQI     A,$A5
2453: d7           JR      $246B
2454: 4b 5a        MVIX    HL,$5A
2456: 2b           LDAX    (HL)
2457: 77 5a        EQI     A,$5A
2459: d1           JR      $246B
245a: 4b 00        MVIX    HL,$00
245c: 2b           LDAX    (HL)
245d: 77 00        EQI     A,$00
245f: cb           JR      $246B
2460: ab 01        LDAX    (DE+$01)
2462: 67 80        NEI     A,$80
2464: c4           JR      $2469
2465: 2c           LDAX    (DE+)
2466: 1a           MOV     B,A
2467: 4f dc        JRE     $2445
2469: 6a 7f        MVI     B,$7F
246b: 0a           MOV     A,B
246c: 77 00        EQI     A,$00
246e: 4e 1f        JRE     $248F
2470: 6b 00        MVI     C,$00
2472: 58 90        BIT     0,VV:90
2474: 34 20 4e     LXI     HL,$4E20
2477: 34 60 ea     LXI     HL,$EA60
247a: 33           DCX     HL
247b: 0f           MOV     A,L
247c: 60 9e        ORA     A,H
247e: 77 00        EQI     A,$00
2480: f9           JR      $247A
2481: 59 90        BIT     1,VV:90
2483: 43           INR     C
2484: 74 4b 02     ONI     C,$02
2487: ec           JR      $2474
2488: 74 7b 03     EQI     C,$03
248b: eb           JR      $2477
248c: 6b 00        MVI     C,$00
248e: e5           JR      $2474
248f: 1c           MOV     D,A
2490: 1e           MOV     H,A
2491: 32           INX     HL
2492: 70 3e 64 aa  SHLD    $AA64
2496: 70 3e 68 aa  SHLD    $AA68
249a: 70 7e af aa  MOV     ($AAAF),H
249e: 34 00 00     LXI     HL,$0000
24a1: 70 3e 66 aa  SHLD    $AA66
24a5: 70 3e 02 aa  SHLD    $AA02
24a9: 70 3e 04 aa  SHLD    $AA04
24ad: 70 3e 00 aa  SHLD    $AA00
24b1: 58 c8        BIT     0,VV:C8
24b3: 34 a5 00     LXI     HL,$00A5
24b6: 34 5a 00     LXI     HL,$005A
24b9: 6b 00        MVI     C,$00
24bb: 69 00        MVI     A,$00
24bd: 70 79 10 fe  MOV     ($FE10),A
24c1: 1d           MOV     E,A
24c2: 6a 80        MVI     B,$80
24c4: 74 7e 00     EQI     H,$00
24c7: ce           JR      $24D6
24c8: 0f           MOV     A,L
24c9: 39           STAX    (BC)
24ca: 43           INR     C
24cb: fd           JR      $24C9
24cc: 0d           MOV     A,E
24cd: 41           INR     A
24ce: 60 ac        GTA     A,D
24d0: 4f eb        JRE     $24BD
24d2: 6e 01        MVI     H,$01
24d4: 4f e3        JRE     $24B9
24d6: 29           LDAX    (BC)
24d7: 60 ff        EQA     A,L
24d9: 4f 95        JRE     $2470
24db: 43           INR     C
24dc: f9           JR      $24D6
24dd: 0d           MOV     A,E
24de: 41           INR     A
24df: 60 ac        GTA     A,D
24e1: 4f da        JRE     $24BD
24e3: 74 7f 5a     EQI     L,$5A
24e6: 4f ce        JRE     $24B6
24e8: 69 08        MVI     A,$08
24ea: 4d d0        MOV     MM,A
24ec: b8           RET     
24ed: ba           DI      
24ee: 84           CALT    ($0088)
24ef: aa           EI      
24f0: b8           RET     
24f1: ba           DI      
24f2: 69 00        MVI     A,$00
24f4: 70 79 c0 aa  MOV     ($AAC0),A
24f8: 34 28 ac     LXI     HL,$AC28
24fb: 70 3e c1 aa  SHLD    $AAC1
24ff: 34 48 27     LXI     HL,$2748
2502: 70 3e 6e ac  SHLD    $AC6E
2506: 70 78 6d ac  MOV     ($AC6D),V
250a: 34 64 ac     LXI     HL,$AC64
250d: 70 3e c3 aa  SHLD    $AAC3
2511: 34 b1 0b     LXI     HL,$0BB1
2514: 70 3e b6 ac  SHLD    $ACB6
2518: 70 78 b5 ac  MOV     ($ACB5),V
251c: 34 ac ac     LXI     HL,$ACAC
251f: 70 3e c5 aa  SHLD    $AAC5
2523: 34 e0 3f     LXI     HL,$3FE0
2526: 70 3e fe ac  SHLD    $ACFE
252a: 70 78 fd ac  MOV     ($ACFD),V
252e: 34 f4 ac     LXI     HL,$ACF4
2531: 70 3e c7 aa  SHLD    $AAC7
2535: aa           EI      
2536: 54 6f 03     JMP     $036F
2539: ba           DI      
253a: b0           PUSH    VA
253b: b1           PUSH    BC
253c: b2           PUSH    DE
253d: b3           PUSH    HL
253e: b4           PUSH    EA
253f: 70 69 c0 aa  MOV     A,($AAC0)
2543: 77 00        EQI     A,$00
2545: ca           JR      $2550
2546: 70 0e c1 aa  SSPD    $AAC1
254a: 70 0f c3 aa  LSPD    $AAC3
254e: 41           INR     A
254f: d7           JR      $2567
2550: 77 01        EQI     A,$01
2552: ca           JR      $255D
2553: 70 0e c3 aa  SSPD    $AAC3
2557: 70 0f c5 aa  LSPD    $AAC5
255b: 41           INR     A
255c: ca           JR      $2567
255d: 70 0e c5 aa  SSPD    $AAC5
2561: 70 0f c1 aa  LSPD    $AAC1
2565: 69 00        MVI     A,$00
2567: 70 79 c0 aa  MOV     ($AAC0),A
256b: 4e 7e        JRE     $25EB
256d: 70 69 14 ff  MOV     A,($FF14)
2571: 77 00        EQI     A,$00
2573: c2           JR      $2576
2574: 5d a8        BIT     5,VV:A8
2576: 54 1c 26     JMP     $261C
2579: 58 0e        BIT     0,VV:0E
257b: c6           JR      $2582
257c: ba           DI      
257d: b0           PUSH    VA
257e: b1           PUSH    BC
257f: b2           PUSH    DE
2580: b3           PUSH    HL
2581: b4           PUSH    EA
2582: 70 69 c0 aa  MOV     A,($AAC0)
2586: 77 00        EQI     A,$00
2588: c5           JR      $258E
2589: 70 0e c1 aa  SSPD    $AAC1
258d: cc           JR      $259A
258e: 77 01        EQI     A,$01
2590: c5           JR      $2596
2591: 70 0e c3 aa  SSPD    $AAC3
2595: c4           JR      $259A
2596: 70 0e c5 aa  SSPD    $AAC5
259a: 50           EXH     
259b: 0e           MOV     A,H
259c: d2           JR      $25AF
259d: 34 e0 3f     LXI     HL,$3FE0
25a0: 70 3e fe ac  SHLD    $ACFE
25a4: 70 78 fd ac  MOV     ($ACFD),V
25a8: 34 f4 ac     LXI     HL,$ACF4
25ab: 70 3e c7 aa  SHLD    $AAC7
25af: 70 0f c7 aa  LSPD    $AAC7
25b3: 69 ff        MVI     A,$FF
25b5: 70 79 14 ff  MOV     ($FF14),A
25b9: 4e 30        JRE     $25EB
25bb: ba           DI      
25bc: b0           PUSH    VA
25bd: b1           PUSH    BC
25be: b2           PUSH    DE
25bf: b3           PUSH    HL
25c0: b4           PUSH    EA
25c1: 70 0e c7 aa  SSPD    $AAC7
25c5: 70 69 c0 aa  MOV     A,($AAC0)
25c9: 77 00        EQI     A,$00
25cb: c5           JR      $25D1
25cc: 70 0f c1 aa  LSPD    $AAC1
25d0: cc           JR      $25DD
25d1: 77 01        EQI     A,$01
25d3: c5           JR      $25D9
25d4: 70 0f c3 aa  LSPD    $AAC3
25d8: c4           JR      $25DD
25d9: 70 0f c5 aa  LSPD    $AAC5
25dd: 69 00        MVI     A,$00
25df: 70 79 14 ff  MOV     ($FF14),A
25e3: 5d 0e        BIT     5,VV:0E
25e5: c5           JR      $25EB
25e6: 5b 0e        BIT     3,VV:0E
25e8: 54 1c 26     JMP     $261C
25eb: a4           POP     EA
25ec: a3           POP     HL
25ed: a2           POP     DE
25ee: a1           POP     BC
25ef: a0           POP     VA
25f0: aa           EI      
25f1: b8           RET     
25f2: b4           PUSH    EA
25f3: 48 42        SKIT    FT1
25f5: 00           NOP     
25f6: 40 fd 1f     CALL    $1FFD
25f9: 70 69 ba aa  MOV     A,($AABA)
25fd: 41           INR     A
25fe: 70 79 ba aa  MOV     ($AABA),A
2602: 77 17        EQI     A,$17
2604: d7           JR      $261C
2605: 69 00        MVI     A,$00
2607: 70 79 ba aa  MOV     ($AABA),A
260b: 5d e8        BIT     5,VV:E8
260d: c6           JR      $2614
260e: 5b e8        BIT     3,VV:E8
2610: 40 23 26     CALL    $2623
2613: c2           JR      $2616
2614: 58 e8        BIT     0,VV:E8
2616: 40 88 26     CALL    $2688
2619: 40 94 26     CALL    $2694
261c: a4           POP     EA
261d: a3           POP     HL
261e: a2           POP     DE
261f: a1           POP     BC
2620: a0           POP     VA
2621: aa           EI      
2622: 62           RETI    
2623: 34 b4 aa     LXI     HL,$AAB4
2626: 2b           LDAX    (HL)
2627: 77 00        EQI     A,$00
2629: c7           JR      $2631
262a: 5b 90        BIT     3,VV:90
262c: 70 79 bb aa  MOV     ($AABB),A
2630: b8           RET     
2631: 1a           MOV     B,A
2632: 70 69 bb aa  MOV     A,($AABB)
2636: 60 fa        EQA     A,B
2638: 4e 32        JRE     $266C
263a: 70 69 bc aa  MOV     A,($AABC)
263e: 51           DCR     A
263f: 70 79 bc aa  MOV     ($AABC),A
2643: 77 00        EQI     A,$00
2645: b8           RET     
2646: 70 69 ab aa  MOV     A,($AAAB)
264a: 51           DCR     A
264b: 70 79 ab aa  MOV     ($AAAB),A
264f: 77 01        EQI     A,$01
2651: c3           JR      $2655
2652: 69 03        MVI     A,$03
2654: cd           JR      $2662
2655: 77 00        EQI     A,$00
2657: c8           JR      $2660
2658: 70 69 bd aa  MOV     A,($AABD)
265c: 70 79 ab aa  MOV     ($AAAB),A
2660: 69 01        MVI     A,$01
2662: 70 79 bc aa  MOV     ($AABC),A
2666: 74 7a 01     EQI     B,$01
2669: 59 90        BIT     1,VV:90
266b: b8           RET     
266c: 70 7a bb aa  MOV     ($AABB),B
2670: 69 03        MVI     A,$03
2672: 74 5a 01     OFFI    B,$01
2675: 69 01        MVI     A,$01
2677: 70 79 bd aa  MOV     ($AABD),A
267b: 70 79 ab aa  MOV     ($AAAB),A
267f: 58 90        BIT     0,VV:90
2681: 69 01        MVI     A,$01
2683: 70 79 bc aa  MOV     ($AABC),A
2687: b8           RET     
2688: 70 69 bf aa  MOV     A,($AABF)
268c: 77 00        EQI     A,$00
268e: 51           DCR     A
268f: 70 79 bf aa  MOV     ($AABF),A
2693: b8           RET     
2694: 70 69 be aa  MOV     A,($AABE)
2698: 67 00        NEI     A,$00
269a: c9           JR      $26A4
269b: 51           DCR     A
269c: 70 79 be aa  MOV     ($AABE),A
26a0: 48 1c        SKN     Z
26a2: 58 a9        BIT     0,VV:A9
26a4: b8           RET     
26a5: 34 b4 aa     LXI     HL,$AAB4
26a8: 1a           MOV     B,A
26a9: 2b           LDAX    (HL)
26aa: 67 00        NEI     A,$00
26ac: c5           JR      $26B2
26ad: 60 ea        NEA     A,B
26af: c9           JR      $26B9
26b0: 32           INX     HL
26b1: f7           JR      $26A9
26b2: 74 7a 02     EQI     B,$02
26b5: 58 4e        BIT     0,VV:4E
26b7: 0a           MOV     A,B
26b8: 3b           STAX    (HL)
26b9: b8           RET     
26ba: 6b 04        MVI     C,$04
26bc: 34 b4 aa     LXI     HL,$AAB4
26bf: 70 eb        NEAX    (HL)
26c1: c6           JR      $26C8
26c2: 32           INX     HL
26c3: 53           DCR     C
26c4: 48 0c        SK      Z
26c6: f8           JR      $26BF
26c7: c7           JR      $26CF
26c8: af 01        LDAX    (HL+$01)
26ca: 3d           STAX    (HL+)
26cb: 53           DCR     C
26cc: 48 0c        SK      Z
26ce: f9           JR      $26C8
26cf: 4b 00        MVIX    HL,$00
26d1: b8           RET     
26d2: 4c 4f        illegal 
26d4: 4f 50        JRE     $2626
26d6: 20 54        INRW    VV:54
26d8: 45 53 54     ONIW    VV:53,$54
26db: 0a           MOV     A,B
26dc: 0a           MOV     A,B
26dd: ff           JR      $26DD
26de: 53           DCR     C
26df: 45 4c 46     ONIW    VV:4C,$46
26e2: 20 54        INRW    VV:54
26e4: 45 53 54     ONIW    VV:53,$54
26e7: 0a           MOV     A,B
26e8: 0a           MOV     A,B
26e9: ff           JR      $26E9
26ea: 52           DCR     B
26eb: 4f 4d        JRE     $263A
26ed: 52           DCR     B
26ee: 45 56 28     ONIW    VV:56,$28
26f1: ff           JR      $26F1
26f2: 29           LDAX    (BC)
26f3: 0a           MOV     A,B
26f4: 0a           MOV     A,B
26f5: ff           JR      $26F5
26f6: 44 49 50     LXI     EA,$5049
26f9: 53           DCR     C
26fa: 57 31        OFFI    A,$31
26fc: 28           illegal 
26fd: ff           JR      $26FD
26fe: 29           LDAX    (BC)
26ff: 20 44        INRW    VV:44
2701: 49 50        MVIX    BC,$50
2703: 53           DCR     C
2704: 57 32        OFFI    A,$32
2706: 28           illegal 
2707: ff           JR      $2707
2708: 29           LDAX    (BC)
2709: 2c           LDAX    (DE+)
270a: 27 31        GTI     A,$31
270c: 3d           STAX    (HL+)
270d: 4f 4e        JRE     $265D
270f: 2c           LDAX    (DE+)
2710: 30 3d        DCRW    VV:3D
2712: 4f 46        JRE     $265A
2714: 46 27        ADI     A,$27
2716: 0a           MOV     A,B
2717: 0a           MOV     A,B
2718: ff           JR      $2718
2719: 52           DCR     B
271a: 41           INR     A
271b: 4d 3d        illegal 
271d: 20 ff        INRW    VV:FF
271f: 20 4b        INRW    VV:4B
2721: 42           INR     B
2722: 20 20        INRW    VV:20
2724: 41           INR     A
2725: 54 3d ff     JMP     $FF3D
2728: 0d           MOV     A,E
2729: 0a           MOV     A,B
272a: 0a           MOV     A,B
272b: 0a           MOV     A,B
272c: 0a           MOV     A,B
272d: 4c 4f        illegal 
272f: 4f 50        JRE     $2681
2731: 20 42        INRW    VV:42
2733: 41           INR     A
2734: 43           INR     C
2735: 4b 20        MVIX    HL,$20
2737: 54 45 53     JMP     $5345
273a: 54 20 46     JMP     $4620
273d: 41           INR     A
273e: 49 4c        MVIX    BC,$4C
2740: 53           DCR     C
2741: 0d           MOV     A,E
2742: ff           JR      $2742
2743: 1f           MOV     L,A
2744: 3f           STAX    (HL-)
2745: 5f 7f        BIT     7,VV:7F
2747: 80           CALT    ($0080)
2748: 90           CALT    ($00A0)
2749: 9b           CALT    ($00B6)
274a: 77 08        EQI     A,$08
274c: c4           JR      $2751
274d: 40 8c 36     CALL    $368C
2750: f8           JR      $2749
2751: 5b eb        BIT     3,VV:EB
2753: 34 b0 28     LXI     HL,$28B0
2756: 40 cf 2c     CALL    $2CCF
2759: b5           DMOV    BC,EA
275a: 48 29        CALB    
275c: ec           JR      $2749
275d: 5d 2a        BIT     5,VV:2A
275f: ce           JR      $276E
2760: 24 01 00     LXI     DE,$0001
2763: 50           EXH     
2764: 4a 22        MVIX    DE,$22
2766: 40 8c 3b     CALL    $3B8C
2769: 40 bc 3b     CALL    $3BBC
276c: 5b 2a        BIT     3,VV:2A
276e: 5d 6b        BIT     5,VV:6B
2770: ce           JR      $277F
2771: 24 03 00     LXI     DE,$0003
2774: 5d 8b        BIT     5,VV:8B
2776: 22           INX     DE
2777: 40 8c 3b     CALL    $3B8C
277a: 40 bc 3b     CALL    $3BBC
277d: 5b 6b        BIT     3,VV:6B
277f: 5d 8a        BIT     5,VV:8A
2781: c9           JR      $278B
2782: 70 3f 6d aa  LHLD    $AA6D
2786: 40 07 3e     CALL    $3E07
2789: 5b 8a        BIT     3,VV:8A
278b: 34 00 00     LXI     HL,$0000
278e: 70 3e 5c aa  SHLD    $AA5C
2792: 70 3f 52 aa  LHLD    $AA52
2796: 70 3e 3a aa  SHLD    $AA3A
279a: 96           CALT    ($00AC)
279b: 70 2f 3c aa  LDED    $AA3C
279f: 70 2e 26 aa  SDED    $AA26
27a3: 95           CALT    ($00AA)
27a4: 96           CALT    ($00AC)
27a5: 96           CALT    ($00AC)
27a6: 96           CALT    ($00AC)
27a7: 70 6c 7e aa  MOV     D,($AA7E)
27ab: 6d 00        MVI     E,$00
27ad: 95           CALT    ($00AA)
27ae: 96           CALT    ($00AC)
27af: 96           CALT    ($00AC)
27b0: 40 bc 3b     CALL    $3BBC
27b3: 24 00 00     LXI     DE,$0000
27b6: 70 2e 44 aa  SDED    $AA44
27ba: b8           RET     
27bb: 40 4c 35     CALL    $354C
27be: 70 3f 5c aa  LHLD    $AA5C
27c2: 44 10 00     LXI     EA,$0010
27c5: 74 bf        DLT     EA,HL
27c7: b8           RET     
27c8: 34 00 00     LXI     HL,$0000
27cb: 70 3e 09 aa  SHLD    $AA09
27cf: 70 3f 52 aa  LHLD    $AA52
27d3: 70 2f 5c aa  LDED    $AA5C
27d7: 40 2f 3b     CALL    $3B2F
27da: 40 36 3b     CALL    $3B36
27dd: 32           INX     HL
27de: 32           INX     HL
27df: 70 2f 26 aa  LDED    $AA26
27e3: 40 2f 3b     CALL    $3B2F
27e6: 70 2f 44 aa  LDED    $AA44
27ea: b3           PUSH    HL
27eb: 34 15 47     LXI     HL,$4715
27ee: 6b 14        MVI     C,$14
27f0: 48 85        LDEAX   (HL++)
27f2: 74 be        DLT     EA,DE
27f4: c7           JR      $27FC
27f5: 32           INX     HL
27f6: 53           DCR     C
27f7: 74 7b 00     EQI     C,$00
27fa: f5           JR      $27F0
27fb: 33           DCX     HL
27fc: 2b           LDAX    (HL)
27fd: 1c           MOV     D,A
27fe: 70 69 3f aa  MOV     A,($AA3F)
2802: 57 10        OFFI    A,$10
2804: 6c 01        MVI     D,$01
2806: 6d 00        MVI     E,$00
2808: a3           POP     HL
2809: 40 2f 3b     CALL    $3B2F
280c: 70 2f 3e aa  LDED    $AA3E
2810: 40 2f 3b     CALL    $3B2F
2813: 40 36 3b     CALL    $3B36
2816: 32           INX     HL
2817: 70 69 7e aa  MOV     A,($AA7E)
281b: 3d           STAX    (HL+)
281c: 40 36 3b     CALL    $3B36
281f: 44 05 00     LXI     EA,$0005
2822: 70 2f 0c aa  LDED    $AA0C
2826: 74 be        DLT     EA,DE
2828: cd           JR      $2836
2829: 70 6c 46 aa  MOV     D,($AA46)
282d: 74 44 05     ADI     D,$05
2830: 74 3c 14     LTI     D,$14
2833: 6c 14        MVI     D,$14
2835: c4           JR      $283A
2836: 70 6c 46 aa  MOV     D,($AA46)
283a: 6d 00        MVI     E,$00
283c: 40 2f 3b     CALL    $3B2F
283f: 40 36 3b     CALL    $3B36
2842: 24 00 00     LXI     DE,$0000
2845: 70 2e 0c aa  SDED    $AA0C
2849: 70 7c 46 aa  MOV     ($AA46),D
284d: 9a           CALT    ($00B4)
284e: d2           JR      $2861
284f: 70 69 74 aa  MOV     A,($AA74)
2853: 67 00        NEI     A,$00
2855: cb           JR      $2861
2856: 70 2f 52 aa  LDED    $AA52
285a: a6           DMOV    EA,DE
285b: 70 2f 36 aa  LDED    $AA36
285f: 48 92        STEAX   (DE)
2861: 70 3e 36 aa  SHLD    $AA36
2865: 70 2f 5c aa  LDED    $AA5C
2869: a6           DMOV    EA,DE
286a: 70 2f 54 aa  LDED    $AA54
286e: 74 c6        DADD    EA,DE
2870: b6           DMOV    DE,EA
2871: 70 2e 54 aa  SDED    $AA54
2875: 70 3f 26 aa  LHLD    $AA26
2879: 70 3e 3c aa  SHLD    $AA3C
287d: 40 0d 3b     CALL    $3B0D
2880: 70 3f 3a aa  LHLD    $AA3A
2884: 70 3e 52 aa  SHLD    $AA52
2888: 34 00 00     LXI     HL,$0000
288b: 70 3e 3a aa  SHLD    $AA3A
288f: 70 3e 5c aa  SHLD    $AA5C
2893: 70 3e 40 aa  SHLD    $AA40
2897: 34 00 10     LXI     HL,$1000
289a: 70 3e 3e aa  SHLD    $AA3E
289e: 70 69 74 aa  MOV     A,($AA74)
28a2: 41           INR     A
28a3: 70 79 74 aa  MOV     ($AA74),A
28a7: 91           CALT    ($00A2)
28a8: 70 69 74 aa  MOV     A,($AA74)
28ac: 77 03        EQI     A,$03
28ae: b8           RET     
28af: f7           JR      $28A7
28b0: 1b           MOV     C,A
28b1: 07 2c        ANI     A,$2C
28b3: 09           MOV     A,EAL
28b4: 18           MOV     EAH,A
28b5: 37 0a        LTI     A,$0A
28b7: 99           CALT    ($00B2)
28b8: 37 0b        LTI     A,$0B
28ba: a4           POP     EA
28bb: 37 0c        LTI     A,$0C
28bd: b1           PUSH    BC
28be: 37 0d        LTI     A,$0D
28c0: f5           JR      $28B6
28c1: 36 0e        SUINB   A,$0E
28c3: 0d           MOV     A,E
28c4: 37 0f        LTI     A,$0F
28c6: 06           illegal 
28c7: 37 13        LTI     A,$13
28c9: cb           JR      $28D5
28ca: 37 18        LTI     A,$18
28cc: c8           JR      $28D5
28cd: 37 1d        LTI     A,$1D
28cf: d7           JR      $28E7
28d0: 37 1f        LTI     A,$1F
28d2: 48 37        RLL     C
28d4: ff           JR      $28D4
28d5: d7           JR      $28ED
28d6: 28           illegal 
28d7: 70 2f 5a aa  LDED    $AA5A
28db: 70 79 12 aa  MOV     ($AA12),A
28df: 1b           MOV     C,A
28e0: 37 20        LTI     A,$20
28e2: c3           JR      $28E6
28e3: 54 50 2b     JMP     $2B50
28e6: 50           EXH     
28e7: 0c           MOV     A,D
28e8: 54 81 2b     JMP     $2B81
28eb: 50           EXH     
28ec: 2c           LDAX    (DE+)
28ed: 54 5d 2b     JMP     $2B5D
28f0: 37 80        LTI     A,$80
28f2: 54 70 2b     JMP     $2B70
28f5: 77 30        EQI     A,$30
28f7: cb           JR      $2903
28f8: 70 6a 6b aa  MOV     B,($AA6B)
28fc: 74 4a 01     ONI     B,$01
28ff: c3           JR      $2903
2900: 69 07        MVI     A,$07
2902: 1b           MOV     C,A
2903: b2           PUSH    DE
2904: 40 1e 3f     CALL    $3F1E
2907: a2           POP     DE
2908: 77 7f        EQI     A,$7F
290a: c5           JR      $2910
290b: 5d 29        BIT     5,VV:29
290d: 54 50 2b     JMP     $2B50
2910: 58 eb        BIT     0,VV:EB
2912: 34 00 00     LXI     HL,$0000
2915: 70 6a 7a aa  MOV     B,($AA7A)
2919: 50           EXH     
291a: aa           EI      
291b: c4           JR      $2920
291c: 50           EXH     
291d: cb           JR      $2929
291e: cf           JR      $292E
291f: dc           JR      $293C
2920: 50           EXH     
2921: 4c c5        MOV     A,PF
2923: 50           EXH     
2924: 6c c4        MVI     D,$C4
2926: 69 02        MVI     A,$02
2928: 69 01        MVI     A,$01
292a: 69 04        MVI     A,$04
292c: 1e           MOV     H,A
292d: c2           JR      $2930
292e: 6e 08        MVI     H,$08
2930: 0a           MOV     A,B
2931: 48 26        SLL     B
2933: 48 26        SLL     B
2935: 48 26        SLL     B
2937: 48 26        SLL     B
2939: 60 9a        ORA     A,B
293b: 1a           MOV     B,A
293c: 0a           MOV     A,B
293d: 1f           MOV     L,A
293e: 70 3e 58 aa  SHLD    $AA58
2942: 70 3e 28 aa  SHLD    $AA28
2946: 0b           MOV     A,C
2947: 1d           MOV     E,A
2948: 70 2e 2a aa  SDED    $AA2A
294c: 0c           MOV     A,D
294d: 07 18        ANI     A,$18
294f: 77 18        EQI     A,$18
2951: 54 74 29     JMP     $2974
2954: 5d cb        BIT     5,VV:CB
2956: ce           JR      $2965
2957: 5d 2c        BIT     5,VV:2C
2959: c4           JR      $295E
295a: 74 0c 3f     ANI     D,$3F
295d: cd           JR      $296B
295e: 50           EXH     
295f: ed           JR      $294D
2960: f9           JR      $295A
2961: 74 0c e7     ANI     D,$E7
2964: cb           JR      $2970
2965: 50           EXH     
2966: 2c           LDAX    (DE+)
2967: c3           JR      $296B
2968: 5d ed        BIT     5,VV:ED
296a: c5           JR      $2970
296b: 58 ae        BIT     0,VV:AE
296d: 74 0c 27     ANI     D,$27
2970: 70 2e 2a aa  SDED    $AA2A
2974: 70 2f 2a aa  LDED    $AA2A
2978: 70 69 7e aa  MOV     A,($AA7E)
297c: 6a 00        MVI     B,$00
297e: 40 d6 38     CALL    $38D6
2981: 70 79 73 aa  MOV     ($AA73),A
2985: b7           DMOV    HL,EA
2986: 70 3e 42 aa  SHLD    $AA42
298a: 9f           CALT    ($00BE)
298b: 4e db        JRE     $2A68
298d: 40 13 3d     CALL    $3D13
2990: 48 1a        SKN     CY
2992: 4e e4        JRE     $2A78
2994: 70 3e 26 aa  SHLD    $AA26
2998: 70 69 73 aa  MOV     A,($AA73)
299c: 70 79 7e aa  MOV     ($AA7E),A
29a0: 5d 4d        BIT     5,VV:4D
29a2: 4e 34        JRE     $29D8
29a4: 50           EXH     
29a5: ae           LDAX    (HL+EA)
29a6: 4e 30        JRE     $29D8
29a8: 70 2f 2a aa  LDED    $AA2A
29ac: 74 5c c6     OFFI    D,$C6
29af: 4e 27        JRE     $29D8
29b1: 74 0c 18     ANI     D,$18
29b4: 74 6c 18     NEI     D,$18
29b7: 4e 1f        JRE     $29D8
29b9: 44 f0 0f     LXI     EA,$0FF0
29bc: 70 2f 28 aa  LDED    $AA28
29c0: 74 de        DOFF    EA,DE
29c2: d5           JR      $29D8
29c3: 74 1c 10     ORI     D,$10
29c6: 70 2e 28 aa  SDED    $AA28
29ca: 70 3f 3e aa  LHLD    $AA3E
29ce: 74 5e 10     OFFI    H,$10
29d1: dc           JR      $29EE
29d2: 44 ff ef     LXI     EA,$EFFF
29d5: 74 8e        DAN     EA,DE
29d7: d7           JR      $29EF
29d8: 70 2f 28 aa  LDED    $AA28
29dc: 74 0c ef     ANI     D,$EF
29df: 70 2e 28 aa  SDED    $AA28
29e3: 70 3f 3e aa  LHLD    $AA3E
29e7: 74 0e ef     ANI     H,$EF
29ea: 70 3e 3e aa  SHLD    $AA3E
29ee: a6           DMOV    EA,DE
29ef: 70 3f 3e aa  LHLD    $AA3E
29f3: 74 9f        DOR     EA,HL
29f5: b7           DMOV    HL,EA
29f6: 70 3e 3e aa  SHLD    $AA3E
29fa: 99           CALT    ($00B2)
29fb: 70 2f 2a aa  LDED    $AA2A
29ff: a6           DMOV    EA,DE
2a00: 70 3f 40 aa  LHLD    $AA40
2a04: 74 9f        DOR     EA,HL
2a06: b7           DMOV    HL,EA
2a07: 70 3e 40 aa  SHLD    $AA40
2a0b: 99           CALT    ($00B2)
2a0c: 40 0d 3b     CALL    $3B0D
2a0f: 44 00 00     LXI     EA,$0000
2a12: 70 6a 2b aa  MOV     B,($AA2B)
2a16: 74 5a 80     OFFI    B,$80
2a19: 4e 94        JRE     $2AAF
2a1b: 70 69 2a aa  MOV     A,($AA2A)
2a1f: 66 04        SUI     A,$04
2a21: 44 40 45     LXI     EA,$4540
2a24: 70 41        EADD    EA,A
2a26: b7           DMOV    HL,EA
2a27: 2b           LDAX    (HL)
2a28: 44 00 00     LXI     EA,$0000
2a2b: 19           MOV     EAL,A
2a2c: 69 08        MVI     A,$08
2a2e: 74 5a 01     OFFI    B,$01
2a31: 70 41        EADD    EA,A
2a33: 70 6b 29 aa  MOV     C,($AA29)
2a37: 74 5b 08     OFFI    C,$08
2a3a: 48 a4        DSLL    EA
2a3c: 74 5a 02     OFFI    B,$02
2a3f: 48 a4        DSLL    EA
2a41: 74 5a 04     OFFI    B,$04
2a44: 48 a4        DSLL    EA
2a46: 70 3f 44 aa  LHLD    $AA44
2a4a: 74 c7        DADD    EA,HL
2a4c: b7           DMOV    HL,EA
2a4d: 70 3e 44 aa  SHLD    $AA44
2a51: 70 69 2b aa  MOV     A,($AA2B)
2a55: 40 d3 2b     CALL    $2BD3
2a58: 70 69 5b aa  MOV     A,($AA5B)
2a5c: 07 38        ANI     A,$38
2a5e: 67 18        NEI     A,$18
2a60: 4e 6f        JRE     $2AD1
2a62: 67 38        NEI     A,$38
2a64: 4e 6b        JRE     $2AD1
2a66: 4e d0        JRE     $2B38
2a68: 70 2f 2a aa  LDED    $AA2A
2a6c: 6d 20        MVI     E,$20
2a6e: 74 0c 3f     ANI     D,$3F
2a71: 70 2e 2a aa  SDED    $AA2A
2a75: 54 4c 29     JMP     $294C
2a78: 70 3f 5c aa  LHLD    $AA5C
2a7c: 44 10 00     LXI     EA,$0010
2a7f: 74 e7        DSUB    EA,HL
2a81: 48 1a        SKN     CY
2a83: d2           JR      $2A96
2a84: 70 3f 5e aa  LHLD    $AA5E
2a88: a7           DMOV    EA,HL
2a89: 70 2f 42 aa  LDED    $AA42
2a8d: 74 c6        DADD    EA,DE
2a8f: 97           CALT    ($00AE)
2a90: 48 1a        SKN     CY
2a92: 40 49 3a     CALL    $3A49
2a95: c1           JR      $2A97
2a96: 8f           CALT    ($009E)
2a97: 98           CALT    ($00B0)
2a98: 70 69 6a aa  MOV     A,($AA6A)
2a9c: 57 20        OFFI    A,$20
2a9e: 40 dd 3d     CALL    $3DDD
2aa1: 90           CALT    ($00A0)
2aa2: 50           EXH     
2aa3: e3           JR      $2A87
2aa4: c8           JR      $2AAD
2aa5: 70 69 12 aa  MOV     A,($AA12)
2aa9: 1b           MOV     C,A
2aaa: 54 d7 28     JMP     $28D7
2aad: 91           CALT    ($00A2)
2aae: f3           JR      $2AA2
2aaf: 70 2f 2a aa  LDED    $AA2A
2ab3: 40 58 39     CALL    $3958
2ab6: b1           PUSH    BC
2ab7: 32           INX     HL
2ab8: 6a 08        MVI     B,$08
2aba: 2b           LDAX    (HL)
2abb: 48 35        RLL     A
2abd: 48 1a        SKN     CY
2abf: a8           INX     EA
2ac0: 52           DCR     B
2ac1: 48 0c        SK      Z
2ac3: f7           JR      $2ABB
2ac4: 53           DCR     C
2ac5: 48 0c        SK      Z
2ac7: ef           JR      $2AB7
2ac8: a1           POP     BC
2ac9: 0b           MOV     A,C
2aca: 74 5a 01     OFFI    B,$01
2acd: 70 41        EADD    EA,A
2acf: 4f 6b        JRE     $2A3C
2ad1: 5d 0a        BIT     5,VV:0A
2ad3: 4e 63        JRE     $2B38
2ad5: 70 6d 48 aa  MOV     E,($AA48)
2ad9: 6c 00        MVI     D,$00
2adb: 40 91 3e     CALL    $3E91
2ade: 70 6a 48 aa  MOV     B,($AA48)
2ae2: 70 69 5b aa  MOV     A,($AA5B)
2ae6: 07 38        ANI     A,$38
2ae8: 77 18        EQI     A,$18
2aea: 69 14        MVI     A,$14
2aec: 69 12        MVI     A,$12
2aee: 48 2e        MUL     B
2af0: 70 69 5b aa  MOV     A,($AA5B)
2af4: 57 04        OFFI    A,$04
2af6: 48 a4        DSLL    EA
2af8: b6           DMOV    DE,EA
2af9: 70 2e 42 aa  SDED    $AA42
2afd: 40 13 3d     CALL    $3D13
2b00: 48 1a        SKN     CY
2b02: 4e 28        JRE     $2B2C
2b04: 70 3e 26 aa  SHLD    $AA26
2b08: 70 69 73 aa  MOV     A,($AA73)
2b0c: 70 79 7e aa  MOV     ($AA7E),A
2b10: 6c 00        MVI     D,$00
2b12: 70 6d 48 aa  MOV     E,($AA48)
2b16: 40 ba 3e     CALL    $3EBA
2b19: 70 69 5b aa  MOV     A,($AA5B)
2b1d: 70 6a 29 aa  MOV     B,($AA29)
2b21: 74 0a f7     ANI     B,$F7
2b24: 70 7a 29 aa  MOV     ($AA29),B
2b28: 40 d3 2b     CALL    $2BD3
2b2b: cc           JR      $2B38
2b2c: 8f           CALT    ($009E)
2b2d: 98           CALT    ($00B0)
2b2e: 70 69 6a aa  MOV     A,($AA6A)
2b32: 57 20        OFFI    A,$20
2b34: 40 dd 3d     CALL    $3DDD
2b37: 90           CALT    ($00A0)
2b38: 5d 8d        BIT     5,VV:8D
2b3a: d5           JR      $2B50
2b3b: 70 3f 76 aa  LHLD    $AA76
2b3f: 33           DCX     HL
2b40: 70 3e 76 aa  SHLD    $AA76
2b44: 9f           CALT    ($00BE)
2b45: ca           JR      $2B50
2b46: 40 ed 3b     CALL    $3BED
2b49: 70 69 75 aa  MOV     A,($AA75)
2b4d: 54 d7 28     JMP     $28D7
2b50: 5b 8d        BIT     3,VV:8D
2b52: 5b ed        BIT     3,VV:ED
2b54: 5b ae        BIT     3,VV:AE
2b56: 69 00        MVI     A,$00
2b58: 70 79 75 aa  MOV     ($AA75),A
2b5c: b8           RET     
2b5d: 37 80        LTI     A,$80
2b5f: d0           JR      $2B70
2b60: 37 40        LTI     A,$40
2b62: c1           JR      $2B64
2b63: ec           JR      $2B50
2b64: 37 60        LTI     A,$60
2b66: e9           JR      $2B50
2b67: 46 40        ADI     A,$40
2b69: 1b           MOV     C,A
2b6a: 74 0c 3f     ANI     D,$3F
2b6d: 54 10 29     JMP     $2910
2b70: 37 c0        LTI     A,$C0
2b72: c2           JR      $2B75
2b73: 4f db        JRE     $2B50
2b75: 37 e0        LTI     A,$E0
2b77: 54 50 2b     JMP     $2B50
2b7a: 66 40        SUI     A,$40
2b7c: 1b           MOV     C,A
2b7d: 58 ed        BIT     0,VV:ED
2b7f: 4f e9        JRE     $2B6A
2b81: 37 80        LTI     A,$80
2b83: 4e 37        JRE     $2BBC
2b85: 50           EXH     
2b86: ad           LDAX    (HL+B)
2b87: 54 cd 2b     JMP     $2BCD
2b8a: 5d 8c        BIT     5,VV:8C
2b8c: 4e 28        JRE     $2BB6
2b8e: 37 70        LTI     A,$70
2b90: 4f be        JRE     $2B50
2b92: 46 60        ADI     A,$60
2b94: 1b           MOV     C,A
2b95: 74 0c 3f     ANI     D,$3F
2b98: 74 1c 80     ORI     D,$80
2b9b: b0           PUSH    VA
2b9c: b1           PUSH    BC
2b9d: b2           PUSH    DE
2b9e: 40 58 39     CALL    $3958
2ba1: 67 00        NEI     A,$00
2ba3: cc           JR      $2BB0
2ba4: 37 05        LTI     A,$05
2ba6: c9           JR      $2BB0
2ba7: 70 2f 0c aa  LDED    $AA0C
2bab: 22           INX     DE
2bac: 70 2e 0c aa  SDED    $AA0C
2bb0: a2           POP     DE
2bb1: a1           POP     BC
2bb2: a0           POP     VA
2bb3: 54 10 29     JMP     $2910
2bb6: 1b           MOV     C,A
2bb7: 50           EXH     
2bb8: ad           LDAX    (HL+B)
2bb9: e1           JR      $2B9B
2bba: 4f d8        JRE     $2B94
2bbc: 37 f0        LTI     A,$F0
2bbe: 4f 90        JRE     $2B50
2bc0: 50           EXH     
2bc1: ad           LDAX    (HL+B)
2bc2: 4f 8c        JRE     $2B50
2bc4: 37 a0        LTI     A,$A0
2bc6: c2           JR      $2BC9
2bc7: 4f 87        JRE     $2B50
2bc9: 66 20        SUI     A,$20
2bcb: 4f c7        JRE     $2B94
2bcd: 74 1c c0     ORI     D,$C0
2bd0: 54 10 29     JMP     $2910
2bd3: 07 38        ANI     A,$38
2bd5: 48 21        SLR     A
2bd7: 48 21        SLR     A
2bd9: 48 21        SLR     A
2bdb: 34 b6 46     LXI     HL,$46B6
2bde: 70 6a 29 aa  MOV     B,($AA29)
2be2: 74 5a 10     OFFI    B,$10
2be5: d5           JR      $2BFB
2be6: 70 6a 2b aa  MOV     B,($AA2B)
2bea: 74 5a 02     OFFI    B,$02
2bed: 17 08        ORI     A,$08
2bef: 70 6a 29 aa  MOV     B,($AA29)
2bf3: 74 5a 08     OFFI    B,$08
2bf6: 17 10        ORI     A,$10
2bf8: 34 96 46     LXI     HL,$4696
2bfb: ac           LDAX    (HL+A)
2bfc: 70 6a 46 aa  MOV     B,($AA46)
2c00: 60 ba        LTA     A,B
2c02: 70 79 46 aa  MOV     ($AA46),A
2c06: b8           RET     
2c07: 9b           CALT    ($00B6)
2c08: 14 8b 36     LXI     BC,$368B
2c0b: 27 7a        GTI     A,$7A
2c0d: c3           JR      $2C11
2c0e: 48 29        CALB    
2c10: b8           RET     
2c11: 27 20        GTI     A,$20
2c13: fa           JR      $2C0E
2c14: 66 21        SUI     A,$21
2c16: 48 25        SLL     A
2c18: 48 a8        TABLE   
2c1a: f3           JR      $2C0E
2c1b: 15 2d 18     ORIW    VV:2D,$18
2c1e: 2d           LDAX    (HL+)
2c1f: 8b           CALT    ($0096)
2c20: 36 3e        SUINB   A,$3E
2c22: 31           BLOCK   
2c23: 8b           CALT    ($0096)
2c24: 36 e5        SUINB   A,$E5
2c26: 32           INX     HL
2c27: 63 31        STAW    VV:31
2c29: 8d           CALT    ($009A)
2c2a: 2e           LDAX    (DE-)
2c2b: 7a 2e        CALF    $0A2E
2c2d: 66 31        SUI     A,$31
2c2f: 7e 31        CALF    $0E31
2c31: 8b           CALT    ($0096)
2c32: 36 7b        SUINB   A,$7B
2c34: 31           BLOCK   
2c35: 8b           CALT    ($0096)
2c36: 36 8b        SUINB   A,$8B
2c38: 36 9b        SUINB   A,$9B
2c3a: 2e           LDAX    (DE-)
2c3b: 45 2d 47     ONIW    VV:2D,$47
2c3e: 2d           LDAX    (HL+)
2c3f: 49 2d        MVIX    BC,$2D
2c41: 4b 2d        MVIX    HL,$2D
2c43: 4d 2d        illegal 
2c45: 4f 2d        JRE     $2B74
2c47: 8b           CALT    ($0096)
2c48: 36 8b        SUINB   A,$8B
2c4a: 36 8b        SUINB   A,$8B
2c4c: 36 8b        SUINB   A,$8B
2c4e: 36 8b        SUINB   A,$8B
2c50: 36 41        SUINB   A,$41
2c52: 32           INX     HL
2c53: 8b           CALT    ($0096)
2c54: 36 4b        SUINB   A,$4B
2c56: 32           INX     HL
2c57: 88           CALT    ($0090)
2c58: 36 8b        SUINB   A,$8B
2c5a: 36 ff        SUINB   A,$FF
2c5c: 32           INX     HL
2c5d: 06           illegal 
2c5e: 33           DCX     HL
2c5f: 8b           CALT    ($0096)
2c60: 36 2a        SUINB   A,$2A
2c62: 30 e2        DCRW    VV:E2
2c64: 2c           LDAX    (DE+)
2c65: 83           CALT    ($0086)
2c66: 32           INX     HL
2c67: 3a           STAX    (DE)
2c68: 33           DCX     HL
2c69: f6           JR      $2C60
2c6a: 31           BLOCK   
2c6b: 8f           CALT    ($009E)
2c6c: 31           BLOCK   
2c6d: 8b           CALT    ($0096)
2c6e: 36 27        SUINB   A,$27
2c70: 2d           LDAX    (HL+)
2c71: b6           DMOV    DE,EA
2c72: 30 f5        DCRW    VV:F5
2c74: 30 de        DCRW    VV:DE
2c76: 2c           LDAX    (DE+)
2c77: e1           JR      $2C59
2c78: 30 ed        DCRW    VV:ED
2c7a: 2c           LDAX    (DE+)
2c7b: e6           JR      $2C62
2c7c: 2c           LDAX    (DE+)
2c7d: cd           JR      $2C8B
2c7e: 31           BLOCK   
2c7f: 3a           STAX    (DE)
2c80: 33           DCX     HL
2c81: 09           MOV     A,EAL
2c82: 33           DCX     HL
2c83: 8b           CALT    ($0096)
2c84: 36 1a        SUINB   A,$1A
2c86: 33           DCX     HL
2c87: fa           JR      $2C82
2c88: 2f           LDAX    (HL-)
2c89: 2c           LDAX    (DE+)
2c8a: 31           BLOCK   
2c8b: 2f           LDAX    (HL-)
2c8c: 31           BLOCK   
2c8d: 65 30 8b     NEIW    VV:30,$8B
2c90: 36 8b        SUINB   A,$8B
2c92: 36 8b        SUINB   A,$8B
2c94: 36 8b        SUINB   A,$8B
2c96: 36 8b        SUINB   A,$8B
2c98: 36 8b        SUINB   A,$8B
2c9a: 36 0d        SUINB   A,$0D
2c9c: 31           BLOCK   
2c9d: 8b           CALT    ($0096)
2c9e: 36 e3        SUINB   A,$E3
2ca0: 31           BLOCK   
2ca1: 8b           CALT    ($0096)
2ca2: 36 f4        SUINB   A,$F4
2ca4: 2c           LDAX    (DE+)
2ca5: f4           JR      $2C9A
2ca6: 32           INX     HL
2ca7: 2b           LDAX    (HL)
2ca8: 33           DCX     HL
2ca9: 8b           CALT    ($0096)
2caa: 36 8b        SUINB   A,$8B
2cac: 36 8b        SUINB   A,$8B
2cae: 36 8b        SUINB   A,$8B
2cb0: 36 51        SUINB   A,$51
2cb2: 32           INX     HL
2cb3: 03           DCX     SP
2cb4: 31           BLOCK   
2cb5: f1           JR      $2CA7
2cb6: 2c           LDAX    (DE+)
2cb7: f0           JR      $2CA8
2cb8: 30 fd        DCRW    VV:FD
2cba: 2c           LDAX    (DE+)
2cbb: fa           JR      $2CB6
2cbc: 2c           LDAX    (DE+)
2cbd: fc           JR      $2CBA
2cbe: 32           INX     HL
2cbf: 3d           STAX    (HL+)
2cc0: 2e           LDAX    (DE-)
2cc1: 8b           CALT    ($0096)
2cc2: 36 5a        SUINB   A,$5A
2cc4: 2e           LDAX    (DE-)
2cc5: 63 32        STAW    VV:32
2cc7: f1           JR      $2CB9
2cc8: 2f           LDAX    (HL-)
2cc9: 03           DCX     SP
2cca: 30 0e        DCRW    VV:0E
2ccc: 30 19        DCRW    VV:19
2cce: 30 1b        DCRW    VV:1B
2cd0: 2d           LDAX    (HL+)
2cd1: 60 eb        NEA     A,C
2cd3: c6           JR      $2CDA
2cd4: 67 ff        NEI     A,$FF
2cd6: c3           JR      $2CDA
2cd7: 32           INX     HL
2cd8: 32           INX     HL
2cd9: f6           JR      $2CD0
2cda: 48 83        LDEAX   (HL)
2cdc: 0b           MOV     A,C
2cdd: b8           RET     
2cde: 6a 00        MVI     B,$00
2ce0: 4e 2f        JRE     $2D11
2ce2: 6a 08        MVI     B,$08
2ce4: 4e 2b        JRE     $2D11
2ce6: 6a 10        MVI     B,$10
2ce8: 34 88 60     LXI     HL,$6088
2ceb: 4e 13        JRE     $2D00
2ced: 6a 58        MVI     B,$58
2cef: 4e 20        JRE     $2D11
2cf1: 6a 20        MVI     B,$20
2cf3: dd           JR      $2D11
2cf4: 6a 28        MVI     B,$28
2cf6: 34 9e 60     LXI     HL,$609E
2cf9: c6           JR      $2D00
2cfa: 6a 30        MVI     B,$30
2cfc: d4           JR      $2D11
2cfd: 6a 78        MVI     B,$78
2cff: d1           JR      $2D11
2d00: 70 69 5b aa  MOV     A,($AA5B)
2d04: 07 07        ANI     A,$07
2d06: 60 9a        ORA     A,B
2d08: 70 79 5b aa  MOV     ($AA5B),A
2d0c: 70 3e 60 aa  SHLD    $AA60
2d10: b8           RET     
2d11: 34 c0 60     LXI     HL,$60C0
2d14: eb           JR      $2D00
2d15: 6a 02        MVI     B,$02
2d17: c2           JR      $2D1A
2d18: 6a 00        MVI     B,$00
2d1a: 70 69 5b aa  MOV     A,($AA5B)
2d1e: 07 fd        ANI     A,$FD
2d20: 60 9a        ORA     A,B
2d22: 70 79 5b aa  MOV     ($AA5B),A
2d26: b8           RET     
2d27: 9b           CALT    ($00B6)
2d28: 66 30        SUI     A,$30
2d2a: 48 1a        SKN     CY
2d2c: b8           RET     
2d2d: 37 07        LTI     A,$07
2d2f: b8           RET     
2d30: 67 00        NEI     A,$00
2d32: cb           JR      $2D3E
2d33: 67 03        NEI     A,$03
2d35: cb           JR      $2D41
2d36: 67 04        NEI     A,$04
2d38: ca           JR      $2D43
2d39: 70 79 7a aa  MOV     ($AA7A),A
2d3d: b8           RET     
2d3e: 69 08        MVI     A,$08
2d40: f8           JR      $2D39
2d41: 41           INR     A
2d42: f6           JR      $2D39
2d43: 51           DCR     A
2d44: f4           JR      $2D39
2d45: 6f 01        MVI     L,$01
2d47: 6f 02        MVI     L,$02
2d49: 6f 03        MVI     L,$03
2d4b: 6f 04        MVI     L,$04
2d4d: 6f 05        MVI     L,$05
2d4f: 6f 06        MVI     L,$06
2d51: 70 69 5b aa  MOV     A,($AA5B)
2d55: 07 18        ANI     A,$18
2d57: 77 18        EQI     A,$18
2d59: 6f 00        MVI     L,$00
2d5b: 6e 00        MVI     H,$00
2d5d: 70 3e 56 aa  SHLD    $AA56
2d61: 9f           CALT    ($00BE)
2d62: b8           RET     
2d63: a7           DMOV    EA,HL
2d64: b6           DMOV    DE,EA
2d65: 40 91 3e     CALL    $3E91
2d68: 70 69 5b aa  MOV     A,($AA5B)
2d6c: 07 38        ANI     A,$38
2d6e: 77 18        EQI     A,$18
2d70: 69 14        MVI     A,$14
2d72: 69 12        MVI     A,$12
2d74: b1           PUSH    BC
2d75: b2           PUSH    DE
2d76: a1           POP     BC
2d77: 40 35 3d     CALL    $3D35
2d7a: b1           PUSH    BC
2d7b: a2           POP     DE
2d7c: a1           POP     BC
2d7d: a6           DMOV    EA,DE
2d7e: 70 69 5b aa  MOV     A,($AA5B)
2d82: 57 04        OFFI    A,$04
2d84: 48 a4        DSLL    EA
2d86: b6           DMOV    DE,EA
2d87: 70 2e 7c aa  SDED    $AA7C
2d8b: 40 13 3d     CALL    $3D13
2d8e: 48 1a        SKN     CY
2d90: 4e 7a        JRE     $2E0C
2d92: 70 69 73 aa  MOV     A,($AA73)
2d96: 70 79 7e aa  MOV     ($AA7E),A
2d9a: 70 3e 26 aa  SHLD    $AA26
2d9e: 40 ee 3e     CALL    $3EEE
2da1: 74 1e 80     ORI     H,$80
2da4: 5d aa        BIT     5,VV:AA
2da6: c5           JR      $2DAC
2da7: 50           EXH     
2da8: ac           LDAX    (HL+A)
2da9: 74 1e 02     ORI     H,$02
2dac: 70 3e 2c aa  SHLD    $AA2C
2db0: 40 56 34     CALL    $3456
2db3: 4e 2c        JRE     $2DE1
2db5: 70 2f 56 aa  LDED    $AA56
2db9: 70 2e 09 aa  SDED    $AA09
2dbd: 40 1d 36     CALL    $361D
2dc0: 70 69 2d aa  MOV     A,($AA2D)
2dc4: 70 6a 29 aa  MOV     B,($AA29)
2dc8: 74 0a f7     ANI     B,$F7
2dcb: 70 7a 29 aa  MOV     ($AA29),B
2dcf: 40 d3 2b     CALL    $2BD3
2dd2: 40 25 35     CALL    $3525
2dd5: 24 00 00     LXI     DE,$0000
2dd8: 70 2e 56 aa  SDED    $AA56
2ddc: 70 2e 09 aa  SDED    $AA09
2de0: b8           RET     
2de1: 40 5d 36     CALL    $365D
2de4: 48 83        LDEAX   (HL)
2de6: 70 2f 56 aa  LDED    $AA56
2dea: 74 c6        DADD    EA,DE
2dec: b6           DMOV    DE,EA
2ded: 70 2e 56 aa  SDED    $AA56
2df1: 40 5d 36     CALL    $365D
2df4: 40 5d 36     CALL    $365D
2df7: 70 3e 3a aa  SHLD    $AA3A
2dfb: 70 3f 5c aa  LHLD    $AA5C
2dff: a7           DMOV    EA,HL
2e00: 34 0a 00     LXI     HL,$000A
2e03: 74 e7        DSUB    EA,HL
2e05: b7           DMOV    HL,EA
2e06: 70 3e 5c aa  SHLD    $AA5C
2e0a: 4f a9        JRE     $2DB5
2e0c: 70 3f 5c aa  LHLD    $AA5C
2e10: 44 10 00     LXI     EA,$0010
2e13: 74 e7        DSUB    EA,HL
2e15: 48 1a        SKN     CY
2e17: d2           JR      $2E2A
2e18: 70 3f 5e aa  LHLD    $AA5E
2e1c: a7           DMOV    EA,HL
2e1d: 70 2f 7c aa  LDED    $AA7C
2e21: 74 c6        DADD    EA,DE
2e23: 97           CALT    ($00AE)
2e24: 48 1a        SKN     CY
2e26: 40 49 3a     CALL    $3A49
2e29: c1           JR      $2E2B
2e2a: 8f           CALT    ($009E)
2e2b: 98           CALT    ($00B0)
2e2c: 70 69 6a aa  MOV     A,($AA6A)
2e30: 57 20        OFFI    A,$20
2e32: 40 dd 3d     CALL    $3DDD
2e35: 90           CALT    ($00A0)
2e36: 70 2f 7c aa  LDED    $AA7C
2e3a: a6           DMOV    EA,DE
2e3b: 4f 4e        JRE     $2D8B
2e3d: 9b           CALT    ($00B6)
2e3e: 66 30        SUI     A,$30
2e40: 48 1a        SKN     CY
2e42: b8           RET     
2e43: 48 0c        SK      Z
2e45: ce           JR      $2E54
2e46: 34 00 00     LXI     HL,$0000
2e49: 70 3e 56 aa  SHLD    $AA56
2e4d: 5b 0a        BIT     3,VV:0A
2e4f: 70 79 48 aa  MOV     ($AA48),A
2e53: b8           RET     
2e54: 37 0a        LTI     A,$0A
2e56: b8           RET     
2e57: 58 0a        BIT     0,VV:0A
2e59: f5           JR      $2E4F
2e5a: 70 69 bd a9  MOV     A,($A9BD)
2e5e: 67 20        NEI     A,$20
2e60: 54 d4 2f     JMP     $2FD4
2e63: 60 99        ORA     A,A
2e65: 48 0c        SK      Z
2e67: cd           JR      $2E75
2e68: 34 c0 a9     LXI     HL,$A9C0
2e6b: 70 3e b6 a9  SHLD    $A9B6
2e6f: 58 2b        BIT     0,VV:2B
2e71: 58 4b        BIT     0,VV:4B
2e73: 4e ef        JRE     $2F64
2e75: 70 3f b6 a9  LHLD    $A9B6
2e79: f1           JR      $2E6B
2e7a: 69 00        MVI     A,$00
2e7c: 70 79 be a9  MOV     ($A9BE),A
2e80: 34 c0 a9     LXI     HL,$A9C0
2e83: 70 3e b8 a9  SHLD    $A9B8
2e87: 5b 2b        BIT     3,VV:2B
2e89: 5b 4b        BIT     3,VV:4B
2e8b: 4e d7        JRE     $2F64
2e8d: 94           CALT    ($00A8)
2e8e: 34 c0 a9     LXI     HL,$A9C0
2e91: 70 3e b6 a9  SHLD    $A9B6
2e95: 58 2b        BIT     0,VV:2B
2e97: 5b 4b        BIT     3,VV:4B
2e99: 4e c9        JRE     $2F64
2e9b: 54 15 3a     JMP     $3A15
2e9e: b4           PUSH    EA
2e9f: 70 2f b8 a9  LDED    $A9B8
2ea3: 70 6a bd a9  MOV     B,($A9BD)
2ea7: 48 82        LDEAX   (DE)
2ea9: 74 ff        DEQ     EA,HL
2eab: ce           JR      $2EBA
2eac: 44 00 00     LXI     EA,$0000
2eaf: 48 92        STEAX   (DE)
2eb1: 70 69 be a9  MOV     A,($A9BE)
2eb5: 41           INR     A
2eb6: 70 79 be a9  MOV     ($A9BE),A
2eba: 22           INX     DE
2ebb: 22           INX     DE
2ebc: 52           DCR     B
2ebd: 48 0c        SK      Z
2ebf: e7           JR      $2EA7
2ec0: 70 69 be a9  MOV     A,($A9BE)
2ec4: 60 99        ORA     A,A
2ec6: 48 1c        SKN     Z
2ec8: 4e f6        JRE     $2FC0
2eca: 70 69 bd a9  MOV     A,($A9BD)
2ece: 70 6a be a9  MOV     B,($A9BE)
2ed2: 60 e2        SUB     A,B
2ed4: 70 79 bd a9  MOV     ($A9BD),A
2ed8: 48 1c        SKN     Z
2eda: 4e e4        JRE     $2FC0
2edc: 70 2f b8 a9  LDED    $A9B8
2ee0: 70 3f b8 a9  LHLD    $A9B8
2ee4: 70 1f b6 a9  LBCD    $A9B6
2ee8: 48 84        LDEAX   (DE++)
2eea: b2           PUSH    DE
2eeb: b6           DMOV    DE,EA
2eec: 0c           MOV     A,D
2eed: 60 9d        ORA     A,E
2eef: 48 0c        SK      Z
2ef1: 48 95        STEAX   (HL++)
2ef3: a2           POP     DE
2ef4: a5           DMOV    EA,BC
2ef5: 74 fe        DEQ     EA,DE
2ef7: f0           JR      $2EE8
2ef8: 70 69 be a9  MOV     A,($A9BE)
2efc: 48 25        SLL     A
2efe: 70 61        ESUB    EA,A
2f00: 1b           MOV     C,A
2f01: b7           DMOV    HL,EA
2f02: 70 3e b6 a9  SHLD    $A9B6
2f06: 40 22 3a     CALL    $3A22
2f09: 69 00        MVI     A,$00
2f0b: 70 79 be a9  MOV     ($A9BE),A
2f0f: 4e af        JRE     $2FC0
2f11: 24 c0 a9     LXI     DE,$A9C0
2f14: 70 69 bd a9  MOV     A,($A9BD)
2f18: 67 00        NEI     A,$00
2f1a: 4e 31        JRE     $2F4D
2f1c: 48 84        LDEAX   (DE++)
2f1e: 74 ef        DNE     EA,HL
2f20: b8           RET     
2f21: 48 0a        SK      CY
2f23: ca           JR      $2F2E
2f24: 70 1f b6 a9  LBCD    $A9B6
2f28: a5           DMOV    EA,BC
2f29: 74 fe        DEQ     EA,DE
2f2b: f0           JR      $2F1C
2f2c: 4e 1f        JRE     $2F4D
2f2e: 23           DCX     DE
2f2f: 23           DCX     DE
2f30: 70 2e ba a9  SDED    $A9BA
2f34: 70 2f b6 a9  LDED    $A9B6
2f38: 23           DCX     DE
2f39: 23           DCX     DE
2f3a: 48 84        LDEAX   (DE++)
2f3c: 48 92        STEAX   (DE)
2f3e: 23           DCX     DE
2f3f: 23           DCX     DE
2f40: b2           PUSH    DE
2f41: 70 2f ba a9  LDED    $A9BA
2f45: a6           DMOV    EA,DE
2f46: a2           POP     DE
2f47: 74 ee        DNE     EA,DE
2f49: c3           JR      $2F4D
2f4a: 23           DCX     DE
2f4b: 23           DCX     DE
2f4c: ed           JR      $2F3A
2f4d: a7           DMOV    EA,HL
2f4e: 48 92        STEAX   (DE)
2f50: 70 2f b6 a9  LDED    $A9B6
2f54: 22           INX     DE
2f55: 22           INX     DE
2f56: 70 2e b6 a9  SDED    $A9B6
2f5a: 70 69 bd a9  MOV     A,($A9BD)
2f5e: 41           INR     A
2f5f: 70 79 bd a9  MOV     ($A9BD),A
2f63: b8           RET     
2f64: 69 00        MVI     A,$00
2f66: 70 79 bf a9  MOV     ($A9BF),A
2f6a: 44 00 00     LXI     EA,$0000
2f6d: b4           PUSH    EA
2f6e: 6a 03        MVI     B,$03
2f70: 40 a8 3f     CALL    $3FA8
2f73: 4e 5e        JRE     $2FD3
2f75: 70 6a bc a9  MOV     B,($A9BC)
2f79: 74 3a 20     LTI     B,$20
2f7c: 4e 55        JRE     $2FD3
2f7e: 9f           CALT    ($00BE)
2f7f: 4e 52        JRE     $2FD3
2f81: 33           DCX     HL
2f82: 74 7e 00     EQI     H,$00
2f85: 4e 4c        JRE     $2FD3
2f87: 74 3f 8c     LTI     L,$8C
2f8a: 4e 47        JRE     $2FD3
2f8c: 40 3f 3d     CALL    $3D3F
2f8f: 70 3f 5e aa  LHLD    $AA5E
2f93: 74 c7        DADD    EA,HL
2f95: 97           CALT    ($00AE)
2f96: 48 1c        SKN     Z
2f98: 4e 39        JRE     $2FD3
2f9a: 48 1a        SKN     CY
2f9c: 4e 35        JRE     $2FD3
2f9e: a4           POP     EA
2f9f: 74 bf        DLT     EA,HL
2fa1: 4e 31        JRE     $2FD4
2fa3: 5d 2b        BIT     5,VV:2B
2fa5: 4e 30        JRE     $2FD7
2fa7: 50           EXH     
2fa8: 4b 4f        MVIX    HL,$4F
2faa: 66 a7        SUI     A,$A7
2fac: b4           PUSH    EA
2fad: 70 2f b6 a9  LDED    $A9B6
2fb1: 48 94        STEAX   (DE++)
2fb3: 70 2e b6 a9  SDED    $A9B6
2fb7: 70 69 bd a9  MOV     A,($A9BD)
2fbb: 41           INR     A
2fbc: 70 79 bd a9  MOV     ($A9BD),A
2fc0: 50           EXH     
2fc1: 4b d0        MVIX    HL,$D0
2fc3: 9b           CALT    ($00B6)
2fc4: a4           POP     EA
2fc5: 67 2c        NEI     A,$2C
2fc7: 4e 19        JRE     $2FE2
2fc9: 77 2e        EQI     A,$2E
2fcb: 94           CALT    ($00A8)
2fcc: 69 00        MVI     A,$00
2fce: 70 79 bf a9  MOV     ($A9BF),A
2fd2: b8           RET     
2fd3: a4           POP     EA
2fd4: 54 15 3a     JMP     $3A15
2fd7: 70 69 bd a9  MOV     A,($A9BD)
2fdb: 77 00        EQI     A,$00
2fdd: 54 9e 2e     JMP     $2E9E
2fe0: 4f de        JRE     $2FC0
2fe2: 70 69 bf a9  MOV     A,($A9BF)
2fe6: 41           INR     A
2fe7: 70 79 bf a9  MOV     ($A9BF),A
2feb: 37 20        LTI     A,$20
2fed: 4f dc        JRE     $2FCB
2fef: 4f 7c        JRE     $2F6D
2ff1: 50           EXH     
2ff2: cb           JR      $2FFE
2ff3: 5b cb        BIT     3,VV:CB
2ff5: 58 aa        BIT     0,VV:AA
2ff7: 58 ac        BIT     0,VV:AC
2ff9: b8           RET     
2ffa: 5b ac        BIT     3,VV:AC
2ffc: 50           EXH     
2ffd: 4c b8        illegal 
2fff: 50           EXH     
3000: 6c b8        MVI     D,$B8
3002: dd           JR      $3020
3003: 50           EXH     
3004: cb           JR      $3010
3005: 5b cb        BIT     3,VV:CB
3007: 58 aa        BIT     0,VV:AA
3009: 58 4c        BIT     0,VV:4C
300b: 5b 6c        BIT     3,VV:6C
300d: b8           RET     
300e: 50           EXH     
300f: cb           JR      $301B
3010: 5b cb        BIT     3,VV:CB
3012: 58 aa        BIT     0,VV:AA
3014: 58 6c        BIT     0,VV:6C
3016: 5b 4c        BIT     3,VV:4C
3018: b8           RET     
3019: 5b 4c        BIT     3,VV:4C
301b: 5b 6c        BIT     3,VV:6C
301d: 50           EXH     
301e: ac           LDAX    (HL+A)
301f: b8           RET     
3020: 5b aa        BIT     3,VV:AA
3022: 50           EXH     
3023: 0c           MOV     A,D
3024: b8           RET     
3025: 50           EXH     
3026: ea           JR      $3011
3027: 58 cb        BIT     0,VV:CB
3029: b8           RET     
302a: 9a           CALT    ($00B4)
302b: c2           JR      $302E
302c: 91           CALT    ($00A2)
302d: fc           JR      $302A
302e: 92           CALT    ($00A4)
302f: 70 6a 6a aa  MOV     B,($AA6A)
3033: 07 f7        ANI     A,$F7
3035: 60 9a        ORA     A,B
3037: 70 79 6a aa  MOV     ($AA6A),A
303b: 92           CALT    ($00A4)
303c: 70 6a 6b aa  MOV     B,($AA6B)
3040: 07 25        ANI     A,$25
3042: 1b           MOV     C,A
3043: 60 9a        ORA     A,B
3045: 70 79 6b aa  MOV     ($AA6B),A
3049: 74 4b 04     ONI     C,$04
304c: d7           JR      $3064
304d: 74 5a 04     OFFI    B,$04
3050: d3           JR      $3064
3051: 24 00 00     LXI     DE,$0000
3054: 70 2e e0 a8  SDED    $A8E0
3058: 70 2e dc a8  SDED    $A8DC
305c: 70 3f e4 a8  LHLD    $A8E4
3060: 70 3e de a8  SHLD    $A8DE
3064: b8           RET     
3065: 9a           CALT    ($00B4)
3066: c2           JR      $3069
3067: 91           CALT    ($00A2)
3068: fc           JR      $3065
3069: 92           CALT    ($00A4)
306a: 70 6a 6a aa  MOV     B,($AA6A)
306e: 16 ff        XRI     A,$FF
3070: 07 f7        ANI     A,$F7
3072: 60 8a        ANA     A,B
3074: 70 79 6a aa  MOV     ($AA6A),A
3078: 92           CALT    ($00A4)
3079: 70 6a 6b aa  MOV     B,($AA6B)
307d: 16 ff        XRI     A,$FF
307f: 07 25        ANI     A,$25
3081: 1b           MOV     C,A
3082: 60 8a        ANA     A,B
3084: 70 79 6b aa  MOV     ($AA6B),A
3088: 74 5b 04     OFFI    C,$04
308b: dd           JR      $30A9
308c: 74 4a 04     ONI     B,$04
308f: d9           JR      $30A9
3090: 34 48 00     LXI     HL,$0048
3093: 70 3e dc a8  SHLD    $A8DC
3097: 70 3e e0 a8  SHLD    $A8E0
309b: 70 3f de a8  LHLD    $A8DE
309f: a7           DMOV    EA,HL
30a0: 34 48 00     LXI     HL,$0048
30a3: 74 af        DGT     EA,HL
30a5: 70 3e de a8  SHLD    $A8DE
30a9: 74 5b 20     OFFI    C,$20
30ac: b8           RET     
30ad: 74 4a 20     ONI     B,$20
30b0: b8           RET     
30b1: 5b 2c        BIT     3,VV:2C
30b3: 5b 8c        BIT     3,VV:8C
30b5: b8           RET     
30b6: 6a 03        MVI     B,$03
30b8: 40 a8 3f     CALL    $3FA8
30bb: 4e 20        JRE     $30DD
30bd: 74 7e 00     EQI     H,$00
30c0: 4e 1b        JRE     $30DD
30c2: 74 3f 8c     LTI     L,$8C
30c5: 4e 16        JRE     $30DD
30c7: 40 3f 3d     CALL    $3D3F
30ca: 70 3f 62 aa  LHLD    $AA62
30ce: 74 c7        DADD    EA,HL
30d0: 97           CALT    ($00AE)
30d1: 48 1a        SKN     CY
30d3: c9           JR      $30DD
30d4: 48 1c        SKN     Z
30d6: c6           JR      $30DD
30d7: 70 3e 5e aa  SHLD    $AA5E
30db: 98           CALT    ($00B0)
30dc: c8           JR      $30E5
30dd: 40 49 3a     CALL    $3A49
30e0: fa           JR      $30DB
30e1: 58 6b        BIT     0,VV:6B
30e3: 58 8b        BIT     0,VV:8B
30e5: 70 3f 5c aa  LHLD    $AA5C
30e9: 44 10 00     LXI     EA,$0010
30ec: 74 bf        DLT     EA,HL
30ee: 90           CALT    ($00A0)
30ef: b8           RET     
30f0: 58 6b        BIT     0,VV:6B
30f2: 5b 8b        BIT     3,VV:8B
30f4: f0           JR      $30E5
30f5: 50           EXH     
30f6: 0c           MOV     A,D
30f7: c5           JR      $30FD
30f8: 50           EXH     
30f9: aa           EI      
30fa: c2           JR      $30FD
30fb: 58 cb        BIT     0,VV:CB
30fd: 58 ea        BIT     0,VV:EA
30ff: 69 01        MVI     A,$01
3101: 4e 1e        JRE     $3121
3103: 5b cb        BIT     3,VV:CB
3105: 5b 4d        BIT     3,VV:4D
3107: 5b ea        BIT     3,VV:EA
3109: 69 00        MVI     A,$00
310b: 4e 14        JRE     $3121
310d: 9b           CALT    ($00B6)
310e: 67 30        NEI     A,$30
3110: f2           JR      $3103
3111: 67 31        NEI     A,$31
3113: c5           JR      $3119
3114: 67 32        NEI     A,$32
3116: 4f dd        JRE     $30F5
3118: b8           RET     
3119: 58 4d        BIT     0,VV:4D
311b: 5b cb        BIT     3,VV:CB
311d: 5b ea        BIT     3,VV:EA
311f: 69 02        MVI     A,$02
3121: 70 79 70 aa  MOV     ($AA70),A
3125: 70 79 71 aa  MOV     ($AA71),A
3129: 54 9f 0b     JMP     $0B9F
312c: 6a 01        MVI     B,$01
312e: c2           JR      $3131
312f: 6a 00        MVI     B,$00
3131: 70 69 5b aa  MOV     A,($AA5B)
3135: 07 fe        ANI     A,$FE
3137: 60 9a        ORA     A,B
3139: 70 79 5b aa  MOV     ($AA5B),A
313d: b8           RET     
313e: 5b 0c        BIT     3,VV:0C
3140: 5b 2c        BIT     3,VV:2C
3142: 58 6d        BIT     0,VV:6D
3144: 70 69 5b aa  MOV     A,($AA5B)
3148: 47 08        ONI     A,$08
314a: c8           JR      $3153
314b: 47 10        ONI     A,$10
314d: c5           JR      $3153
314e: 07 3f        ANI     A,$3F
3150: 17 40        ORI     A,$40
3152: c2           JR      $3155
3153: 07 3f        ANI     A,$3F
3155: 70 79 5b aa  MOV     ($AA5B),A
3159: 50           EXH     
315a: aa           EI      
315b: b8           RET     
315c: 5d ea        BIT     5,VV:EA
315e: b8           RET     
315f: 58 cb        BIT     0,VV:CB
3161: b8           RET     
3162: b8           RET     
3163: 58 0c        BIT     0,VV:0C
3165: ce           JR      $3174
3166: 70 69 6b aa  MOV     A,($AA6B)
316a: 47 20        ONI     A,$20
316c: 4f d0        JRE     $313E
316e: 50           EXH     
316f: ad           LDAX    (HL+B)
3170: 4f cc        JRE     $313E
3172: 58 8c        BIT     0,VV:8C
3174: 58 0c        BIT     0,VV:0C
3176: 5b 2c        BIT     3,VV:2C
3178: 5b cb        BIT     3,VV:CB
317a: b8           RET     
317b: 5b ad        BIT     3,VV:AD
317d: c2           JR      $3180
317e: 58 ad        BIT     0,VV:AD
3180: 58 cd        BIT     0,VV:CD
3182: 9a           CALT    ($00B4)
3183: c2           JR      $3186
3184: 91           CALT    ($00A2)
3185: fc           JR      $3182
3186: 34 00 a2     LXI     HL,$A200
3189: 24 60 06     LXI     DE,$0660
318c: 54 a4 3a     JMP     $3AA4
318f: 8f           CALT    ($009E)
3190: 90           CALT    ($00A0)
3191: 9a           CALT    ($00B4)
3192: c2           JR      $3195
3193: 91           CALT    ($00A2)
3194: fc           JR      $3191
3195: 92           CALT    ($00A4)
3196: 40 79 3d     CALL    $3D79
3199: 48 1a        SKN     CY
319b: b8           RET     
319c: 70 2f 5a aa  LDED    $AA5A
31a0: 40 bc 31     CALL    $31BC
31a3: b3           PUSH    HL
31a4: 40 96 3d     CALL    $3D96
31a7: a3           POP     HL
31a8: 48 1a        SKN     CY
31aa: b8           RET     
31ab: 3d           STAX    (HL+)
31ac: b3           PUSH    HL
31ad: b1           PUSH    BC
31ae: 92           CALT    ($00A4)
31af: a1           POP     BC
31b0: a3           POP     HL
31b1: 3d           STAX    (HL+)
31b2: 53           DCR     C
31b3: 48 0c        SK      Z
31b5: f6           JR      $31AC
31b6: 92           CALT    ($00A4)
31b7: 77 04        EQI     A,$04
31b9: 4f db        JRE     $3196
31bb: b8           RET     
31bc: 66 20        SUI     A,$20
31be: 6b 09        MVI     C,$09
31c0: 50           EXH     
31c1: ad           LDAX    (HL+B)
31c2: 6b 11        MVI     C,$11
31c4: 48 2f        MUL     C
31c6: 34 00 a2     LXI     HL,$A200
31c9: 74 c7        DADD    EA,HL
31cb: b7           DMOV    HL,EA
31cc: b8           RET     
31cd: 6a 03        MVI     B,$03
31cf: 40 a8 3f     CALL    $3FA8
31d2: b8           RET     
31d3: 9f           CALT    ($00BE)
31d4: b8           RET     
31d5: 70 3e 76 aa  SHLD    $AA76
31d9: 9b           CALT    ($00B6)
31da: 70 79 75 aa  MOV     ($AA75),A
31de: 58 8d        BIT     0,VV:8D
31e0: 54 d7 28     JMP     $28D7
31e3: ba           DI      
31e4: 40 14 0b     CALL    $0B14
31e7: aa           EI      
31e8: 8f           CALT    ($009E)
31e9: 24 05 00     LXI     DE,$0005
31ec: 40 63 3b     CALL    $3B63
31ef: 9a           CALT    ($00B4)
31f0: c2           JR      $31F3
31f1: 91           CALT    ($00A2)
31f2: fc           JR      $31EF
31f3: 54 5d 27     JMP     $275D
31f6: 8f           CALT    ($009E)
31f7: 90           CALT    ($00A0)
31f8: 9a           CALT    ($00B4)
31f9: c2           JR      $31FC
31fa: 91           CALT    ($00A2)
31fb: fc           JR      $31F8
31fc: 6a 04        MVI     B,$04
31fe: 40 a8 3f     CALL    $3FA8
3201: b8           RET     
3202: 9f           CALT    ($00BE)
3203: b8           RET     
3204: 70 69 6b aa  MOV     A,($AA6B)
3208: 57 04        OFFI    A,$04
320a: c9           JR      $3214
320b: 44 90 00     LXI     EA,$0090
320e: 74 bf        DLT     EA,HL
3210: b8           RET     
3211: 48 1c        SKN     Z
3213: b8           RET     
3214: b3           PUSH    HL
3215: 34 da a8     LXI     HL,$A8DA
3218: 6b 6e        MVI     C,$6E
321a: 40 22 3a     CALL    $3A22
321d: a3           POP     HL
321e: 70 69 6b aa  MOV     A,($AA6B)
3222: 57 04        OFFI    A,$04
3224: d8           JR      $323D
3225: 58 0b        BIT     0,VV:0B
3227: 24 48 00     LXI     DE,$0048
322a: 70 2e dc a8  SDED    $A8DC
322e: 70 2e de a8  SDED    $A8DE
3232: 70 2e e0 a8  SDED    $A8E0
3236: 70 3e da a8  SHLD    $A8DA
323a: 5b ec        BIT     3,VV:EC
323c: b8           RET     
323d: 24 00 00     LXI     DE,$0000
3240: e9           JR      $322A
3241: 5d 4a        BIT     5,VV:4A
3243: b8           RET     
3244: 5b 4a        BIT     3,VV:4A
3246: 58 2a        BIT     0,VV:2A
3248: 54 e5 30     JMP     $30E5
324b: 50           EXH     
324c: 4a b8        MVIX    DE,$B8
324e: 58 4a        BIT     0,VV:4A
3250: f5           JR      $3246
3251: 9b           CALT    ($00B6)
3252: 66 30        SUI     A,$30
3254: 48 1a        SKN     CY
3256: b8           RET     
3257: 48 1c        SKN     Z
3259: c6           JR      $3260
325a: 51           DCR     A
325b: 48 1c        SKN     Z
325d: 58 6a        BIT     0,VV:6A
325f: b8           RET     
3260: 5b 6a        BIT     3,VV:6A
3262: b8           RET     
3263: 50           EXH     
3264: 63 b8        STAW    VV:B8
3266: 00           NOP     
3267: 00           NOP     
3268: 9a           CALT    ($00B4)
3269: c2           JR      $326C
326a: 91           CALT    ($00A2)
326b: f7           JR      $3263
326c: 70 69 6b aa  MOV     A,($AA6B)
3270: 47 04        ONI     A,$04
3272: c8           JR      $327B
3273: 34 00 00     LXI     HL,$0000
3276: 70 3e e0 a8  SHLD    $A8E0
327a: b8           RET     
327b: 34 48 00     LXI     HL,$0048
327e: 70 3e e0 a8  SHLD    $A8E0
3282: b8           RET     
3283: 6a 04        MVI     B,$04
3285: 40 a8 3f     CALL    $3FA8
3288: b8           RET     
3289: 44 ce 46     LXI     EA,$46CE
328c: 70 69 5b aa  MOV     A,($AA5B)
3290: 07 38        ANI     A,$38
3292: 48 21        SLR     A
3294: 48 21        SLR     A
3296: 70 41        EADD    EA,A
3298: b6           DMOV    DE,EA
3299: 48 82        LDEAX   (DE)
329b: 74 bf        DLT     EA,HL
329d: c1           JR      $329F
329e: b8           RET     
329f: a7           DMOV    EA,HL
32a0: 70 69 5b aa  MOV     A,($AA5B)
32a4: 07 18        ANI     A,$18
32a6: 77 18        EQI     A,$18
32a8: c3           JR      $32AC
32a9: 6a 10        MVI     B,$10
32ab: c2           JR      $32AE
32ac: 6a 08        MVI     B,$08
32ae: 48 3e        DIV     B
32b0: b7           DMOV    HL,EA
32b1: b1           PUSH    BC
32b2: 40 3f 3d     CALL    $3D3F
32b5: b7           DMOV    HL,EA
32b6: 70 69 5b aa  MOV     A,($AA5B)
32ba: 44 d5 3d     LXI     EA,$3DD5
32bd: 40 c8 3d     CALL    $3DC8
32c0: a1           POP     BC
32c1: 48 2e        MUL     B
32c3: 74 c7        DADD    EA,HL
32c5: 70 3f 5e aa  LHLD    $AA5E
32c9: 74 c7        DADD    EA,HL
32cb: 97           CALT    ($00AE)
32cc: 48 1a        SKN     CY
32ce: b8           RET     
32cf: 70 2f 26 aa  LDED    $AA26
32d3: a6           DMOV    EA,DE
32d4: 74 bf        DLT     EA,HL
32d6: b8           RET     
32d7: 70 3e 26 aa  SHLD    $AA26
32db: b3           PUSH    HL
32dc: b4           PUSH    EA
32dd: a3           POP     HL
32de: a4           POP     EA
32df: 74 e7        DSUB    EA,HL
32e1: b6           DMOV    DE,EA
32e2: 54 10 3e     JMP     $3E10
32e5: 70 69 6b aa  MOV     A,($AA6B)
32e9: 47 20        ONI     A,$20
32eb: c5           JR      $32F1
32ec: 58 2c        BIT     0,VV:2C
32ee: 5b 0c        BIT     3,VV:0C
32f0: b8           RET     
32f1: 5b 2c        BIT     3,VV:2C
32f3: b8           RET     
32f4: 69 00        MVI     A,$00
32f6: 70 79 6c aa  MOV     ($AA6C),A
32fa: 4e 19        JRE     $3315
32fc: 69 04        MVI     A,$04
32fe: f7           JR      $32F6
32ff: 69 18        MVI     A,$18
3301: 70 79 6d aa  MOV     ($AA6D),A
3305: cf           JR      $3315
3306: 69 12        MVI     A,$12
3308: f8           JR      $3301
3309: 6a 02        MVI     B,$02
330b: 40 a8 3f     CALL    $3FA8
330e: b8           RET     
330f: 9f           CALT    ($00BE)
3310: b8           RET     
3311: 70 3e 6d aa  SHLD    $AA6D
3315: 58 8a        BIT     0,VV:8A
3317: 54 e5 30     JMP     $30E5
331a: 6a 04        MVI     B,$04
331c: 40 a8 3f     CALL    $3FA8
331f: b8           RET     
3320: b3           PUSH    HL
3321: 92           CALT    ($00A4)
3322: a3           POP     HL
3323: 70 79 78 aa  MOV     ($AA78),A
3327: 58 cc        BIT     0,VV:CC
3329: 4e 15        JRE     $3340
332b: 6a 03        MVI     B,$03
332d: 40 a8 3f     CALL    $3FA8
3330: b8           RET     
3331: a7           DMOV    EA,HL
3332: 48 a4        DSLL    EA
3334: 48 a4        DSLL    EA
3336: 48 a4        DSLL    EA
3338: b7           DMOV    HL,EA
3339: c6           JR      $3340
333a: 6a 04        MVI     B,$04
333c: 40 a8 3f     CALL    $3FA8
333f: b8           RET     
3340: 9f           CALT    ($00BE)
3341: c1           JR      $3343
3342: c3           JR      $3346
3343: 5b cc        BIT     3,VV:CC
3345: b8           RET     
3346: b3           PUSH    HL
3347: 40 ee 3e     CALL    $3EEE
334a: 70 3f 2e aa  LHLD    $AA2E
334e: 74 0e 80     ANI     H,$80
3351: 70 3e 2e aa  SHLD    $AA2E
3355: 40 5e 34     CALL    $345E
3358: c8           JR      $3361
3359: 34 00 00     LXI     HL,$0000
335c: 70 3e 09 aa  SHLD    $AA09
3360: c3           JR      $3364
3361: 40 87 34     CALL    $3487
3364: a3           POP     HL
3365: b3           PUSH    HL
3366: 70 2f 26 aa  LDED    $AA26
336a: a6           DMOV    EA,DE
336b: 97           CALT    ($00AE)
336c: 48 0a        SK      CY
336e: 48 1c        SKN     Z
3370: d6           JR      $3387
3371: 50           EXH     
3372: cc           JR      $337F
3373: df           JR      $3393
3374: 70 69 0b aa  MOV     A,($AA0B)
3378: 41           INR     A
3379: 77 18        EQI     A,$18
337b: c3           JR      $337F
337c: 91           CALT    ($00A2)
337d: 69 00        MVI     A,$00
337f: 70 79 0b aa  MOV     ($AA0B),A
3383: 40 0a 3c     CALL    $3C0A
3386: d5           JR      $339C
3387: 40 4c 35     CALL    $354C
338a: 5d cc        BIT     5,VV:CC
338c: 54 44 34     JMP     $3444
338f: 5b cc        BIT     3,VV:CC
3391: a3           POP     HL
3392: b8           RET     
3393: 40 bf 43     CALL    $43BF
3396: 70 69 78 aa  MOV     A,($AA78)
339a: c1           JR      $339C
339b: 92           CALT    ($00A4)
339c: b0           PUSH    VA
339d: 6a 00        MVI     B,$00
339f: 6b 07        MVI     C,$07
33a1: 48 31        RLR     A
33a3: 48 1a        SKN     CY
33a5: 42           INR     B
33a6: 53           DCR     C
33a7: f9           JR      $33A1
33a8: 70 69 2d aa  MOV     A,($AA2D)
33ac: 48 31        RLR     A
33ae: 48 1a        SKN     CY
33b0: 42           INR     B
33b1: 48 31        RLR     A
33b3: 48 1a        SKN     CY
33b5: 48 26        SLL     B
33b7: 48 31        RLR     A
33b9: 48 1a        SKN     CY
33bb: 48 26        SLL     B
33bd: 70 3f 44 aa  LHLD    $AA44
33c1: a7           DMOV    EA,HL
33c2: 70 42        EADD    EA,B
33c4: b7           DMOV    HL,EA
33c5: 70 3e 44 aa  SHLD    $AA44
33c9: a0           POP     VA
33ca: b0           PUSH    VA
33cb: 70 3f 09 aa  LHLD    $AA09
33cf: 77 00        EQI     A,$00
33d1: d4           JR      $33E6
33d2: 0f           MOV     A,L
33d3: 60 9e        ORA     A,H
33d5: 77 00        EQI     A,$00
33d7: c8           JR      $33E0
33d8: 70 2f 34 aa  LDED    $AA34
33dc: 70 2e 38 aa  SDED    $AA38
33e0: 32           INX     HL
33e1: 70 3e 09 aa  SHLD    $AA09
33e5: d4           JR      $33FA
33e6: 24 0a 00     LXI     DE,$000A
33e9: a7           DMOV    EA,HL
33ea: 74 e6        DSUB    EA,DE
33ec: 48 0a        SK      CY
33ee: c8           JR      $33F7
33ef: 34 00 00     LXI     HL,$0000
33f2: 70 3e 09 aa  SHLD    $AA09
33f6: c3           JR      $33FA
33f7: 40 4c 35     CALL    $354C
33fa: a0           POP     VA
33fb: 40 f5 34     CALL    $34F5
33fe: 40 25 35     CALL    $3525
3401: 40 be 34     CALL    $34BE
3404: 70 2f 26 aa  LDED    $AA26
3408: a6           DMOV    EA,DE
3409: 70 41        EADD    EA,A
340b: 0f           MOV     A,L
340c: 07 07        ANI     A,$07
340e: b0           PUSH    VA
340f: 97           CALT    ($00AE)
3410: a0           POP     VA
3411: 70 3e 26 aa  SHLD    $AA26
3415: 70 79 7e aa  MOV     ($AA7E),A
3419: 48 0a        SK      CY
341b: 4e 2a        JRE     $3447
341d: b0           PUSH    VA
341e: 40 4c 35     CALL    $354C
3421: a0           POP     VA
3422: 70 2f 5e aa  LDED    $AA5E
3426: a6           DMOV    EA,DE
3427: 70 41        EADD    EA,A
3429: 97           CALT    ($00AE)
342a: 48 1a        SKN     CY
342c: c1           JR      $342E
342d: c8           JR      $3436
342e: 70 3f 62 aa  LHLD    $AA62
3432: 70 3e 5e aa  SHLD    $AA5E
3436: a3           POP     HL
3437: 50           EXH     
3438: cc           JR      $3445
3439: 54 53 34     JMP     $3453
343c: 33           DCX     HL
343d: 9f           CALT    ($00BE)
343e: c1           JR      $3440
343f: c3           JR      $3443
3440: 5b cc        BIT     3,VV:CC
3442: b8           RET     
3443: b3           PUSH    HL
3444: 92           CALT    ($00A4)
3445: a3           POP     HL
3446: f5           JR      $343C
3447: a3           POP     HL
3448: 33           DCX     HL
3449: 0f           MOV     A,L
344a: 60 9e        ORA     A,H
344c: 77 00        EQI     A,$00
344e: 4f 15        JRE     $3365
3450: 40 4c 35     CALL    $354C
3453: 5b cc        BIT     3,VV:CC
3455: b8           RET     
3456: 70 3f 5c aa  LHLD    $AA5C
345a: 44 19 00     LXI     EA,$0019
345d: c7           JR      $3465
345e: 70 3f 5c aa  LHLD    $AA5C
3462: 44 1e 00     LXI     EA,$001E
3465: 74 e7        DSUB    EA,HL
3467: 48 0a        SK      CY
3469: db           JR      $3485
346a: 70 3f 3a aa  LHLD    $AA3A
346e: 40 5d 36     CALL    $365D
3471: 48 83        LDEAX   (HL)
3473: 70 2f 2c aa  LDED    $AA2C
3477: 74 fe        DEQ     EA,DE
3479: cb           JR      $3485
347a: 40 5d 36     CALL    $365D
347d: 48 83        LDEAX   (HL)
347f: 70 2f 2e aa  LDED    $AA2E
3483: 74 fe        DEQ     EA,DE
3485: b9           RETS    
3486: b8           RET     
3487: 40 5d 36     CALL    $365D
348a: 48 83        LDEAX   (HL)
348c: b6           DMOV    DE,EA
348d: 70 2e 32 aa  SDED    $AA32
3491: 69 0c        MVI     A,$0C
3493: 70 41        EADD    EA,A
3495: 09           MOV     A,EAL
3496: 48 21        SLR     A
3498: 48 0a        SK      CY
349a: c2           JR      $349D
349b: a8           INX     EA
349c: 33           DCX     HL
349d: 70 3e 34 aa  SHLD    $AA34
34a1: 70 3f 5c aa  LHLD    $AA5C
34a5: b6           DMOV    DE,EA
34a6: a7           DMOV    EA,HL
34a7: 74 e6        DSUB    EA,DE
34a9: b7           DMOV    HL,EA
34aa: 70 3e 5c aa  SHLD    $AA5C
34ae: 70 3f 3a aa  LHLD    $AA3A
34b2: a7           DMOV    EA,HL
34b3: 74 e6        DSUB    EA,DE
34b5: b7           DMOV    HL,EA
34b6: 40 5f 36     CALL    $365F
34b9: 70 3e 3a aa  SHLD    $AA3A
34bd: b8           RET     
34be: 70 6c 2d aa  MOV     D,($AA2D)
34c2: 40 e6 34     CALL    $34E6
34c5: 70 69 7e aa  MOV     A,($AA7E)
34c9: 60 c7        ADD     A,L
34cb: 1f           MOV     L,A
34cc: 2b           LDAX    (HL)
34cd: 74 47 01     ADI     L,$01
34d0: 74 4f 07     ONI     L,$07
34d3: 74 67 08     SUI     L,$08
34d6: 74 4c 04     ONI     D,$04
34d9: cb           JR      $34E5
34da: 70 c3        ADDX    (HL)
34dc: 74 47 01     ADI     L,$01
34df: 74 4f 07     ONI     L,$07
34e2: 74 67 08     SUI     L,$08
34e5: b8           RET     
34e6: 34 00 45     LXI     HL,$4500
34e9: 0c           MOV     A,D
34ea: 07 38        ANI     A,$38
34ec: 60 c7        ADD     A,L
34ee: 1f           MOV     L,A
34ef: 48 1a        SKN     CY
34f1: 74 46 01     ADI     H,$01
34f4: b8           RET     
34f5: b0           PUSH    VA
34f6: 70 2f 32 aa  LDED    $AA32
34fa: 0d           MOV     A,E
34fb: 60 9c        ORA     A,D
34fd: 77 00        EQI     A,$00
34ff: d3           JR      $3513
3500: 70 3f 3a aa  LHLD    $AA3A
3504: 74 27 06     ADINC   L,$06
3507: 74 46 01     ADI     H,$01
350a: 93           CALT    ($00A6)
350b: 70 3e 34 aa  SHLD    $AA34
350f: 70 3e 38 aa  SHLD    $AA38
3513: a0           POP     VA
3514: 70 3f 34 aa  LHLD    $AA34
3518: 3b           STAX    (HL)
3519: 32           INX     HL
351a: 93           CALT    ($00A6)
351b: 70 3e 34 aa  SHLD    $AA34
351f: 22           INX     DE
3520: 70 2e 32 aa  SDED    $AA32
3524: b8           RET     
3525: 70 3f 4e aa  LHLD    $AA4E
3529: 74 37 32     SUINB   L,$32
352c: 74 66 01     SUI     H,$01
352f: 70 2f 5c aa  LDED    $AA5C
3533: a6           DMOV    EA,DE
3534: 70 2f 32 aa  LDED    $AA32
3538: 74 c6        DADD    EA,DE
353a: 74 bf        DLT     EA,HL
353c: cb           JR      $3548
353d: 70 2f 54 aa  LDED    $AA54
3541: 74 c6        DADD    EA,DE
3543: 74 af        DGT     EA,HL
3545: b8           RET     
3546: 91           CALT    ($00A2)
3547: e7           JR      $352F
3548: 8f           CALT    ($009E)
3549: 90           CALT    ($00A0)
354a: 4f d9        JRE     $3525
354c: 70 3f 32 aa  LHLD    $AA32
3550: 9f           CALT    ($00BE)
3551: b8           RET     
3552: 44 05 00     LXI     EA,$0005
3555: 74 af        DGT     EA,HL
3557: c9           JR      $3561
3558: 70 2f 0c aa  LDED    $AA0C
355c: 22           INX     DE
355d: 70 2e 0c aa  SDED    $AA0C
3561: 70 2f 09 aa  LDED    $AA09
3565: a6           DMOV    EA,DE
3566: 74 ef        DNE     EA,HL
3568: d2           JR      $357B
3569: 14 09 00     LXI     BC,$0009
356c: 74 ad        DGT     EA,BC
356e: 4e 31        JRE     $35A1
3570: a7           DMOV    EA,HL
3571: 74 e6        DSUB    EA,DE
3573: b7           DMOV    HL,EA
3574: 70 3e 32 aa  SHLD    $AA32
3578: 40 a5 35     CALL    $35A5
357b: 40 1d 36     CALL    $361D
357e: 34 00 00     LXI     HL,$0000
3581: 70 3e 09 aa  SHLD    $AA09
3585: 34 00 00     LXI     HL,$0000
3588: 70 3e 32 aa  SHLD    $AA32
358c: 70 2f 2c aa  LDED    $AA2C
3590: 0c           MOV     A,D
3591: 70 2e 2a aa  SDED    $AA2A
3595: 70 2f 2e aa  LDED    $AA2E
3599: 70 2e 28 aa  SDED    $AA28
359d: 40 d3 2b     CALL    $2BD3
35a0: b8           RET     
35a1: 40 a5 35     CALL    $35A5
35a4: e0           JR      $3585
35a5: 70 3f 3a aa  LHLD    $AA3A
35a9: 93           CALT    ($00A6)
35aa: 70 2f 2e aa  LDED    $AA2E
35ae: a6           DMOV    EA,DE
35af: 48 95        STEAX   (HL++)
35b1: 93           CALT    ($00A6)
35b2: 70 2f 2c aa  LDED    $AA2C
35b6: a6           DMOV    EA,DE
35b7: 48 95        STEAX   (HL++)
35b9: 93           CALT    ($00A6)
35ba: 70 1f 32 aa  LBCD    $AA32
35be: a5           DMOV    EA,BC
35bf: 48 95        STEAX   (HL++)
35c1: 74 c7        DADD    EA,HL
35c3: 09           MOV     A,EAL
35c4: 48 01        SLRC    A
35c6: c1           JR      $35C8
35c7: a8           INX     EA
35c8: b7           DMOV    HL,EA
35c9: 93           CALT    ($00A6)
35ca: a5           DMOV    EA,BC
35cb: 48 95        STEAX   (HL++)
35cd: 93           CALT    ($00A6)
35ce: 70 2f 2e aa  LDED    $AA2E
35d2: a6           DMOV    EA,DE
35d3: 48 95        STEAX   (HL++)
35d5: 93           CALT    ($00A6)
35d6: 70 2f 2c aa  LDED    $AA2C
35da: a6           DMOV    EA,DE
35db: 48 95        STEAX   (HL++)
35dd: 93           CALT    ($00A6)
35de: 70 3e 3a aa  SHLD    $AA3A
35e2: 44 0c 00     LXI     EA,$000C
35e5: 74 c5        DADD    EA,BC
35e7: 09           MOV     A,EAL
35e8: 48 01        SLRC    A
35ea: c1           JR      $35EC
35eb: a8           INX     EA
35ec: 70 3f 5c aa  LHLD    $AA5C
35f0: 74 c7        DADD    EA,HL
35f2: b7           DMOV    HL,EA
35f3: 70 3e 5c aa  SHLD    $AA5C
35f7: 70 3f 2e aa  LHLD    $AA2E
35fb: 44 0f 00     LXI     EA,$000F
35fe: 74 8f        DAN     EA,HL
3600: 70 3f 3e aa  LHLD    $AA3E
3604: 74 0e ef     ANI     H,$EF
3607: 74 9f        DOR     EA,HL
3609: b7           DMOV    HL,EA
360a: 70 3e 3e aa  SHLD    $AA3E
360e: 70 69 2d aa  MOV     A,($AA2D)
3612: 70 6a 41 aa  MOV     B,($AA41)
3616: 60 9a        ORA     A,B
3618: 70 79 41 aa  MOV     ($AA41),A
361c: b8           RET     
361d: 70 3f 3a aa  LHLD    $AA3A
3621: 93           CALT    ($00A6)
3622: 70 2f 2e aa  LDED    $AA2E
3626: a6           DMOV    EA,DE
3627: 48 95        STEAX   (HL++)
3629: 93           CALT    ($00A6)
362a: 70 2f 2c aa  LDED    $AA2C
362e: 74 1c 80     ORI     D,$80
3631: a6           DMOV    EA,DE
3632: 48 95        STEAX   (HL++)
3634: 93           CALT    ($00A6)
3635: 70 2f 09 aa  LDED    $AA09
3639: a6           DMOV    EA,DE
363a: 48 95        STEAX   (HL++)
363c: 93           CALT    ($00A6)
363d: 70 2f 2e aa  LDED    $AA2E
3641: a6           DMOV    EA,DE
3642: 48 95        STEAX   (HL++)
3644: 93           CALT    ($00A6)
3645: 70 2f 2c aa  LDED    $AA2C
3649: 74 1c 80     ORI     D,$80
364c: a6           DMOV    EA,DE
364d: 48 95        STEAX   (HL++)
364f: 93           CALT    ($00A6)
3650: 70 3e 3a aa  SHLD    $AA3A
3654: 70 3f 5c aa  LHLD    $AA5C
3658: 44 0a 00     LXI     EA,$000A
365b: 4f 93        JRE     $35F0
365d: 33           DCX     HL
365e: 33           DCX     HL
365f: b2           PUSH    DE
3660: b4           PUSH    EA
3661: 70 2f 4a aa  LDED    $AA4A
3665: a7           DMOV    EA,HL
3666: 74 be        DLT     EA,DE
3668: dc           JR      $3685
3669: 70 2f 4e aa  LDED    $AA4E
366d: 74 c6        DADD    EA,DE
366f: b7           DMOV    HL,EA
3670: d4           JR      $3685
3671: 32           INX     HL
3672: 32           INX     HL
3673: b2           PUSH    DE
3674: b4           PUSH    EA
3675: 70 2f 4c aa  LDED    $AA4C
3679: a7           DMOV    EA,HL
367a: 23           DCX     DE
367b: 74 ae        DGT     EA,DE
367d: c7           JR      $3685
367e: 70 2f 4e aa  LDED    $AA4E
3682: 74 e6        DSUB    EA,DE
3684: b7           DMOV    HL,EA
3685: a4           POP     EA
3686: a2           POP     DE
3687: b8           RET     
3688: 54 7a 21     JMP     $217A
368b: b8           RET     
368c: 5d eb        BIT     5,VV:EB
368e: 4e 5d        JRE     $36ED
3690: 5b eb        BIT     3,VV:EB
3692: 9b           CALT    ($00B6)
3693: 27 19        GTI     A,$19
3695: 4e 53        JRE     $36EA
3697: 37 7f        LTI     A,$7F
3699: 4e 57        JRE     $36F2
369b: 70 6a 5b aa  MOV     B,($AA5B)
369f: 74 5a 80     OFFI    B,$80
36a2: 4e 42        JRE     $36E6
36a4: 70 79 08 aa  MOV     ($AA08),A
36a8: 70 3f 26 aa  LHLD    $AA26
36ac: a7           DMOV    EA,HL
36ad: 70 3f 5e aa  LHLD    $AA5E
36b1: 74 ef        DNE     EA,HL
36b3: b8           RET     
36b4: 70 2f 5a aa  LDED    $AA5A
36b8: 44 00 00     LXI     EA,$0000
36bb: 40 71 39     CALL    $3971
36be: 74 4c 08     ONI     D,$08
36c1: c7           JR      $36C9
36c2: 74 4c 10     ONI     D,$10
36c5: c3           JR      $36C9
36c6: 24 7e 00     LXI     DE,$007E
36c9: b7           DMOV    HL,EA
36ca: 70 2f 26 aa  LDED    $AA26
36ce: a6           DMOV    EA,DE
36cf: 74 e7        DSUB    EA,HL
36d1: b7           DMOV    HL,EA
36d2: 70 2f 5e aa  LDED    $AA5E
36d6: 74 be        DLT     EA,DE
36d8: c1           JR      $36DA
36d9: c8           JR      $36E2
36da: b3           PUSH    HL
36db: 8f           CALT    ($009E)
36dc: a3           POP     HL
36dd: 70 3e 3c aa  SHLD    $AA3C
36e1: 90           CALT    ($00A0)
36e2: 70 69 08 aa  MOV     A,($AA08)
36e6: 1b           MOV     C,A
36e7: 54 d7 28     JMP     $28D7
36ea: 77 08        EQI     A,$08
36ec: c5           JR      $36F2
36ed: 9b           CALT    ($00B6)
36ee: 37 20        LTI     A,$20
36f0: f5           JR      $36E6
36f1: f8           JR      $36EA
36f2: 5b eb        BIT     3,VV:EB
36f4: b8           RET     
36f5: 8f           CALT    ($009E)
36f6: 40 19 3b     CALL    $3B19
36f9: 70 69 6a aa  MOV     A,($AA6A)
36fd: 47 80        ONI     A,$80
36ff: c3           JR      $3703
3700: 40 dd 3d     CALL    $3DDD
3703: 54 5d 27     JMP     $275D
3706: 70 69 5b aa  MOV     A,($AA5B)
370a: 07 fb        ANI     A,$FB
370c: c6           JR      $3713
370d: 70 69 5b aa  MOV     A,($AA5B)
3711: 17 04        ORI     A,$04
3713: 70 79 5b aa  MOV     ($AA5B),A
3717: b8           RET     
3718: 70 69 bd a9  MOV     A,($A9BD)
371c: 60 99        ORA     A,A
371e: 48 1c        SKN     Z
3720: b8           RET     
3721: 70 2f 26 aa  LDED    $AA26
3725: 34 c0 a9     LXI     HL,$A9C0
3728: 70 6a bd a9  MOV     B,($A9BD)
372c: 48 85        LDEAX   (HL++)
372e: 74 e6        DSUB    EA,DE
3730: 48 1a        SKN     CY
3732: d0           JR      $3743
3733: 48 1c        SKN     Z
3735: cd           JR      $3743
3736: b4           PUSH    EA
3737: 74 c6        DADD    EA,DE
3739: b6           DMOV    DE,EA
373a: 70 2e 26 aa  SDED    $AA26
373e: a4           POP     EA
373f: b6           DMOV    DE,EA
3740: 54 10 3e     JMP     $3E10
3743: 52           DCR     B
3744: 48 0c        SK      Z
3746: e5           JR      $372C
3747: b8           RET     
3748: 92           CALT    ($00A4)
3749: 07 1f        ANI     A,$1F
374b: 47 10        ONI     A,$10
374d: 4e 29        JRE     $3778
374f: 07 0f        ANI     A,$0F
3751: 48 1c        SKN     Z
3753: b8           RET     
3754: 1b           MOV     C,A
3755: b1           PUSH    BC
3756: 40 b1 3d     CALL    $3DB1
3759: a1           POP     BC
375a: 48 1a        SKN     CY
375c: b8           RET     
375d: b1           PUSH    BC
375e: 40 dd 3d     CALL    $3DDD
3761: a1           POP     BC
3762: 53           DCR     C
3763: 48 0c        SK      Z
3765: f7           JR      $375D
3766: 50           EXH     
3767: ab c3        LDAX    (DE+$C3)
3769: 50           EXH     
376a: 6a c8        MVI     B,$C8
376c: 70 3f 5e aa  LHLD    $AA5E
3770: 70 3e 3c aa  SHLD    $AA3C
3774: 90           CALT    ($00A0)
3775: b8           RET     
3776: 00           NOP     
3777: 00           NOP     
3778: 60 99        ORA     A,A
377a: 48 1c        SKN     Z
377c: b8           RET     
377d: 37 07        LTI     A,$07
377f: b8           RET     
3780: b0           PUSH    VA
3781: 40 b1 3d     CALL    $3DB1
3784: a0           POP     VA
3785: 48 1a        SKN     CY
3787: b8           RET     
3788: 44 01 00     LXI     EA,$0001
378b: 51           DCR     A
378c: 48 1c        SKN     Z
378e: c4           JR      $3793
378f: 48 a4        DSLL    EA
3791: 51           DCR     A
3792: f9           JR      $378C
3793: b7           DMOV    HL,EA
3794: 40 f5 3d     CALL    $3DF5
3797: 4f cd        JRE     $3766
3799: 40 b1 3d     CALL    $3DB1
379c: 48 1a        SKN     CY
379e: b8           RET     
379f: 40 dd 3d     CALL    $3DDD
37a2: 4e 1a        JRE     $37BE
37a4: 40 b1 3d     CALL    $3DB1
37a7: 48 1a        SKN     CY
37a9: b8           RET     
37aa: 34 02 00     LXI     HL,$0002
37ad: 40 f5 3d     CALL    $3DF5
37b0: cd           JR      $37BE
37b1: 40 b1 3d     CALL    $3DB1
37b4: 48 1a        SKN     CY
37b6: b8           RET     
37b7: 70 3f 6d aa  LHLD    $AA6D
37bb: 40 fe 3d     CALL    $3DFE
37be: 50           EXH     
37bf: ab c3        LDAX    (DE+$C3)
37c1: 50           EXH     
37c2: 6a c3        MVI     B,$C3
37c4: 40 19 3b     CALL    $3B19
37c7: c0           JR      $37C8
37c8: 54 5d 27     JMP     $275D
37cb: 70 69 6a aa  MOV     A,($AA6A)
37cf: 57 10        OFFI    A,$10
37d1: b8           RET     
37d2: 58 a2        BIT     0,VV:A2
37d4: 54 49 04     JMP     $0449
37d7: 40 da 3c     CALL    $3CDA
37da: 70 3f 54 aa  LHLD    $AA54
37de: 0e           MOV     A,H
37df: 60 9f        ORA     A,L
37e1: 48 0c        SK      Z
37e3: f3           JR      $37D7
37e4: 6b 6e        MVI     C,$6E
37e6: 34 48 a9     LXI     HL,$A948
37e9: 40 22 3a     CALL    $3A22
37ec: 70 3f 6d aa  LHLD    $AA6D
37f0: 70 3e 50 a9  SHLD    $A950
37f4: 5b 2d        BIT     3,VV:2D
37f6: 34 00 00     LXI     HL,$0000
37f9: 70 3e 4a a9  SHLD    $A94A
37fd: 70 3e 4c a9  SHLD    $A94C
3801: 70 3e e0 a8  SHLD    $A8E0
3805: 92           CALT    ($00A4)
3806: 07 7f        ANI     A,$7F
3808: 70 79 72 aa  MOV     ($AA72),A
380c: 92           CALT    ($00A4)
380d: 77 40        EQI     A,$40
380f: b8           RET     
3810: 70 69 72 aa  MOV     A,($AA72)
3814: 77 41        EQI     A,$41
3816: b8           RET     
3817: 34 55 a9     LXI     HL,$A955
381a: 3d           STAX    (HL+)
381b: 69 01        MVI     A,$01
381d: 70 79 6f aa  MOV     ($AA6F),A
3821: b3           PUSH    HL
3822: 92           CALT    ($00A4)
3823: a3           POP     HL
3824: 07 7f        ANI     A,$7F
3826: 70 79 72 aa  MOV     ($AA72),A
382a: b3           PUSH    HL
382b: 92           CALT    ($00A4)
382c: a3           POP     HL
382d: 77 40        EQI     A,$40
382f: b8           RET     
3830: 70 69 72 aa  MOV     A,($AA72)
3834: 47 01        ONI     A,$01
3836: db           JR      $3852
3837: 67 41        NEI     A,$41
3839: 4e 33        JRE     $386E
383b: 77 43        EQI     A,$43
383d: b8           RET     
383e: 50           EXH     
383f: 2d           LDAX    (HL+)
3840: b8           RET     
3841: 58 2d        BIT     0,VV:2D
3843: 3d           STAX    (HL+)
3844: 70 69 6f aa  MOV     A,($AA6F)
3848: 41           INR     A
3849: 70 79 6f aa  MOV     ($AA6F),A
384d: 37 62        LTI     A,$62
384f: b8           RET     
3850: 4f cf        JRE     $3821
3852: 3d           STAX    (HL+)
3853: 70 69 6f aa  MOV     A,($AA6F)
3857: 41           INR     A
3858: 70 79 6f aa  MOV     ($AA6F),A
385c: 37 62        LTI     A,$62
385e: b8           RET     
385f: 5d 2d        BIT     5,VV:2D
3861: 4f be        JRE     $3821
3863: 70 69 54 a9  MOV     A,($A954)
3867: 41           INR     A
3868: 70 79 54 a9  MOV     ($A954),A
386c: 4f b3        JRE     $3821
386e: 3b           STAX    (HL)
386f: 70 69 50 a9  MOV     A,($A950)
3873: 70 6a 6f aa  MOV     B,($AA6F)
3877: 48 2e        MUL     B
3879: b6           DMOV    DE,EA
387a: 44 90 00     LXI     EA,$0090
387d: 74 be        DLT     EA,DE
387f: b8           RET     
3880: 70 2e 48 a9  SDED    $A948
3884: 70 69 50 a9  MOV     A,($A950)
3888: 70 6a 54 a9  MOV     B,($A954)
388c: 48 2e        MUL     B
388e: b6           DMOV    DE,EA
388f: 70 2e 4c a9  SDED    $A94C
3893: 70 2e 52 a9  SDED    $A952
3897: 9b           CALT    ($00B6)
3898: 77 1e        EQI     A,$1E
389a: b8           RET     
389b: 58 0d        BIT     0,VV:0D
389d: 50           EXH     
389e: 22           INX     DE
389f: fd           JR      $389D
38a0: 6b 6d        MVI     C,$6D
38a2: 34 48 a9     LXI     HL,$A948
38a5: 24 da a8     LXI     DE,$A8DA
38a8: 10           EXA     
38a9: 5f 0d        BIT     7,VV:0D
38ab: 5a ec        BIT     2,VV:EC
38ad: 5f 2d        BIT     7,VV:2D
38af: 5a 0b        BIT     2,VV:0B
38b1: 70 69 6b aa  MOV     A,($AA6B)
38b5: 17 04        ORI     A,$04
38b7: 70 79 6b aa  MOV     ($AA6B),A
38bb: b8           RET     
38bc: 70 69 5b aa  MOV     A,($AA5B)
38c0: 07 38        ANI     A,$38
38c2: 48 21        SLR     A
38c4: 48 21        SLR     A
38c6: 48 21        SLR     A
38c8: 44 71 3d     LXI     EA,$3D71
38cb: 70 41        EADD    EA,A
38cd: b6           DMOV    DE,EA
38ce: 2a           LDAX    (DE)
38cf: 44 00 00     LXI     EA,$0000
38d2: 19           MOV     EAL,A
38d3: 48 a4        DSLL    EA
38d5: b8           RET     
38d6: 44 00 00     LXI     EA,$0000
38d9: 70 79 79 aa  MOV     ($AA79),A
38dd: 74 4c 80     ONI     D,$80
38e0: 4e 49        JRE     $392B
38e2: 40 58 39     CALL    $3958
38e5: 74 5c 04     OFFI    D,$04
38e8: 48 27        SLL     C
38ea: 74 2b 07     GTI     C,$07
38ed: c7           JR      $38F5
38ee: 40 71 39     CALL    $3971
38f1: 74 63 08     SUI     C,$08
38f4: f5           JR      $38EA
38f5: 74 6b 00     NEI     C,$00
38f8: 4e 46        JRE     $3940
38fa: 53           DCR     C
38fb: 40 e6 34     CALL    $34E6
38fe: 70 69 79 aa  MOV     A,($AA79)
3902: 60 47        ADD     L,A
3904: 74 7a 00     EQI     B,$00
3907: cc           JR      $3914
3908: 2d           LDAX    (HL+)
3909: 70 41        EADD    EA,A
390b: 74 4f 07     ONI     L,$07
390e: 74 67 08     SUI     L,$08
3911: 53           DCR     C
3912: f5           JR      $3908
3913: d3           JR      $3927
3914: 74 67 01     SUI     L,$01
3917: 0f           MOV     A,L
3918: 07 07        ANI     A,$07
391a: 67 07        NEI     A,$07
391c: 74 47 08     ADI     L,$08
391f: 2f           LDAX    (HL-)
3920: 70 41        EADD    EA,A
3922: 53           DCR     C
3923: f3           JR      $3917
3924: 74 47 01     ADI     L,$01
3927: 0f           MOV     A,L
3928: 07 07        ANI     A,$07
392a: b8           RET     
392b: 74 4c 40     ONI     D,$40
392e: c9           JR      $3938
392f: 74 1c 18     ORI     D,$18
3932: 40 45 39     CALL    $3945
3935: 54 e5 38     JMP     $38E5
3938: 40 71 39     CALL    $3971
393b: 74 5c 04     OFFI    D,$04
393e: 48 a4        DSLL    EA
3940: 70 69 79 aa  MOV     A,($AA79)
3944: e5           JR      $392A
3945: 0d           MOV     A,E
3946: 66 04        SUI     A,$04
3948: 1f           MOV     L,A
3949: 6e 00        MVI     H,$00
394b: a7           DMOV    EA,HL
394c: 48 a4        DSLL    EA
394e: 74 c7        DADD    EA,HL
3950: 34 b0 57     LXI     HL,$57B0
3953: 74 c7        DADD    EA,HL
3955: b7           DMOV    HL,EA
3956: 2b           LDAX    (HL)
3957: d4           JR      $396C
3958: 0d           MOV     A,E
3959: 66 20        SUI     A,$20
395b: 6b 09        MVI     C,$09
395d: 50           EXH     
395e: ad           LDAX    (HL+B)
395f: 6b 11        MVI     C,$11
3961: 48 2f        MUL     C
3963: 34 00 a2     LXI     HL,$A200
3966: 74 c7        DADD    EA,HL
3968: b7           DMOV    HL,EA
3969: 2b           LDAX    (HL)
396a: 07 1f        ANI     A,$1F
396c: 1b           MOV     C,A
396d: 44 00 00     LXI     EA,$0000
3970: b8           RET     
3971: b2           PUSH    DE
3972: 34 be 46     LXI     HL,$46BE
3975: 0c           MOV     A,D
3976: 07 38        ANI     A,$38
3978: 48 21        SLR     A
397a: 48 21        SLR     A
397c: 60 27        ADDNC   L,A
397e: 74 46 01     ADI     H,$01
3981: 2d           LDAX    (HL+)
3982: 1d           MOV     E,A
3983: 2b           LDAX    (HL)
3984: 1c           MOV     D,A
3985: 74 c6        DADD    EA,DE
3987: a2           POP     DE
3988: b8           RET     
3989: 40 8f 39     CALL    $398F
398c: 54 af 3a     JMP     $3AAF
398f: 40 51 3a     CALL    $3A51
3992: 40 70 3a     CALL    $3A70
3995: 40 36 3a     CALL    $3A36
3998: 40 db 39     CALL    $39DB
399b: 40 a2 39     CALL    $39A2
399e: 94           CALT    ($00A8)
399f: 54 95 3a     JMP     $3A95
39a2: 34 00 0a     LXI     HL,$0A00
39a5: 70 3e 4e aa  SHLD    $AA4E
39a9: 34 00 ae     LXI     HL,$AE00
39ac: 70 3e 4a aa  SHLD    $AA4A
39b0: 70 3e 50 aa  SHLD    $AA50
39b4: 70 3e 52 aa  SHLD    $AA52
39b8: 90           CALT    ($00A0)
39b9: 34 00 b8     LXI     HL,$B800
39bc: 70 3e 4c aa  SHLD    $AA4C
39c0: 70 3f 5e aa  LHLD    $AA5E
39c4: 70 3e 3c aa  SHLD    $AA3C
39c8: 70 3e 62 aa  SHLD    $AA62
39cc: 34 00 00     LXI     HL,$0000
39cf: 70 3e 54 aa  SHLD    $AA54
39d3: 74 1e 10     ORI     H,$10
39d6: 70 3e 3e aa  SHLD    $AA3E
39da: b8           RET     
39db: 34 0a ff     LXI     HL,$FF0A
39de: 2b           LDAX    (HL)
39df: 07 10        ANI     A,$10
39e1: 3d           STAX    (HL+)
39e2: 2b           LDAX    (HL)
39e3: 07 01        ANI     A,$01
39e5: 3d           STAX    (HL+)
39e6: 2b           LDAX    (HL)
39e7: 07 c0        ANI     A,$C0
39e9: 3d           STAX    (HL+)
39ea: 2b           LDAX    (HL)
39eb: 07 1b        ANI     A,$1B
39ed: 3b           STAX    (HL)
39ee: 58 4d        BIT     0,VV:4D
39f0: 69 02        MVI     A,$02
39f2: 70 79 70 aa  MOV     ($AA70),A
39f6: 70 79 71 aa  MOV     ($AA71),A
39fa: 40 9f 0b     CALL    $0B9F
39fd: 69 00        MVI     A,$00
39ff: 70 79 6c aa  MOV     ($AA6C),A
3a03: 70 79 48 aa  MOV     ($AA48),A
3a07: 34 00 00     LXI     HL,$0000
3a0a: 70 3e 56 aa  SHLD    $AA56
3a0e: 6f 18        MVI     L,$18
3a10: 70 3e 6d aa  SHLD    $AA6D
3a14: b8           RET     
3a15: 34 b6 a9     LXI     HL,$A9B6
3a18: 6b 4a        MVI     C,$4A
3a1a: 40 22 3a     CALL    $3A22
3a1d: 5b 2b        BIT     3,VV:2B
3a1f: 5b 4b        BIT     3,VV:4B
3a21: b8           RET     
3a22: 69 00        MVI     A,$00
3a24: 53           DCR     C
3a25: 3d           STAX    (HL+)
3a26: 53           DCR     C
3a27: fd           JR      $3A25
3a28: b8           RET     
3a29: 77 20        EQI     A,$20
3a2b: 6f c0        MVI     L,$C0
3a2d: 6f 88        MVI     L,$88
3a2f: 6e 60        MVI     H,$60
3a31: 70 3e 60 aa  SHLD    $AA60
3a35: b8           RET     
3a36: 70 69 00 ff  MOV     A,($FF00)
3a3a: 07 60        ANI     A,$60
3a3c: 48 21        SLR     A
3a3e: 48 21        SLR     A
3a40: 48 21        SLR     A
3a42: 48 21        SLR     A
3a44: 48 21        SLR     A
3a46: 40 29 3a     CALL    $3A29
3a49: 34 c0 06     LXI     HL,$06C0
3a4c: 70 3e 5e aa  SHLD    $AA5E
3a50: b8           RET     
3a51: 70 69 00 ff  MOV     A,($FF00)
3a55: 07 87        ANI     A,$87
3a57: 17 50        ORI     A,$50
3a59: 70 79 6a aa  MOV     ($AA6A),A
3a5d: 70 69 00 ff  MOV     A,($FF00)
3a61: 16 ff        XRI     A,$FF
3a63: 07 10        ANI     A,$10
3a65: 48 21        SLR     A
3a67: 48 21        SLR     A
3a69: 17 20        ORI     A,$20
3a6b: 70 79 6b aa  MOV     ($AA6B),A
3a6f: b8           RET     
3a70: 70 69 00 ff  MOV     A,($FF00)
3a74: 07 60        ANI     A,$60
3a76: 48 21        SLR     A
3a78: 48 21        SLR     A
3a7a: 67 18        NEI     A,$18
3a7c: 17 40        ORI     A,$40
3a7e: 1e           MOV     H,A
3a7f: 6f 00        MVI     L,$00
3a81: 70 7f 7e aa  MOV     ($AA7E),L
3a85: 70 3e 5a aa  SHLD    $AA5A
3a89: 34 08 00     LXI     HL,$0008
3a8c: 70 7f 7a aa  MOV     ($AA7A),L
3a90: 70 3e 58 aa  SHLD    $AA58
3a94: b8           RET     
3a95: 5b 0c        BIT     3,VV:0C
3a97: 5b ad        BIT     3,VV:AD
3a99: 5b cd        BIT     3,VV:CD
3a9b: 5b 8c        BIT     3,VV:8C
3a9d: 34 00 a2     LXI     HL,$A200
3aa0: 24 60 06     LXI     DE,$0660
3aa3: c0           JR      $3AA4
3aa4: 69 00        MVI     A,$00
3aa6: 3d           STAX    (HL+)
3aa7: 23           DCX     DE
3aa8: 0c           MOV     A,D
3aa9: 60 9d        ORA     A,E
3aab: 48 1c        SKN     Z
3aad: b8           RET     
3aae: f5           JR      $3AA4
3aaf: 5b ec        BIT     3,VV:EC
3ab1: 34 18 00     LXI     HL,$0018
3ab4: 70 3e 6d aa  SHLD    $AA6D
3ab8: 70 3e e2 a8  SHLD    $A8E2
3abc: 70 69 00 ff  MOV     A,($FF00)
3ac0: 47 08        ONI     A,$08
3ac2: c6           JR      $3AC9
3ac3: 6a 0c        MVI     B,$0C
3ac5: 34 c0 06     LXI     HL,$06C0
3ac8: c5           JR      $3ACE
3ac9: 6a 0b        MVI     B,$0B
3acb: 34 30 06     LXI     HL,$0630
3ace: 70 3e da a8  SHLD    $A8DA
3ad2: 47 10        ONI     A,$10
3ad4: c8           JR      $3ADD
3ad5: 34 48 00     LXI     HL,$0048
3ad8: 69 03        MVI     A,$03
3ada: 58 0b        BIT     0,VV:0B
3adc: c7           JR      $3AE4
3add: 34 00 00     LXI     HL,$0000
3ae0: 69 00        MVI     A,$00
3ae2: 5b 0b        BIT     3,VV:0B
3ae4: 70 3e dc a8  SHLD    $A8DC
3ae8: 70 3e de a8  SHLD    $A8DE
3aec: 70 3e e0 a8  SHLD    $A8E0
3af0: 70 3e e4 a8  SHLD    $A8E4
3af4: 70 79 e6 a8  MOV     ($A8E6),A
3af8: 34 e7 a8     LXI     HL,$A8E7
3afb: 6b 61        MVI     C,$61
3afd: 40 22 3a     CALL    $3A22
3b00: b8           RET     
3b01: 70 3f 52 aa  LHLD    $AA52
3b05: 40 36 3b     CALL    $3B36
3b08: 70 3e 52 aa  SHLD    $AA52
3b0c: b8           RET     
3b0d: 70 3f 3a aa  LHLD    $AA3A
3b11: 40 36 3b     CALL    $3B36
3b14: 70 3e 3a aa  SHLD    $AA3A
3b18: b8           RET     
3b19: 69 00        MVI     A,$00
3b1b: 70 79 7e aa  MOV     ($AA7E),A
3b1f: 70 3f 5e aa  LHLD    $AA5E
3b23: 70 3e 3c aa  SHLD    $AA3C
3b27: 34 00 00     LXI     HL,$0000
3b2a: 70 3e 09 aa  SHLD    $AA09
3b2e: b8           RET     
3b2f: 40 36 3b     CALL    $3B36
3b32: a6           DMOV    EA,DE
3b33: 48 95        STEAX   (HL++)
3b35: b8           RET     
3b36: a7           DMOV    EA,HL
3b37: 70 3f 4c aa  LHLD    $AA4C
3b3b: 74 bf        DLT     EA,HL
3b3d: c2           JR      $3B40
3b3e: b7           DMOV    HL,EA
3b3f: b8           RET     
3b40: 70 3f 4a aa  LHLD    $AA4A
3b44: b8           RET     
3b45: b2           PUSH    DE
3b46: 40 d1 3b     CALL    $3BD1
3b49: 48 0a        SK      CY
3b4b: ce           JR      $3B5A
3b4c: 70 3f 54 aa  LHLD    $AA54
3b50: 0e           MOV     A,H
3b51: 60 9f        ORA     A,L
3b53: 48 0c        SK      Z
3b55: c2           JR      $3B58
3b56: 8f           CALT    ($009E)
3b57: 90           CALT    ($00A0)
3b58: 91           CALT    ($00A2)
3b59: ec           JR      $3B46
3b5a: 40 0d 3b     CALL    $3B0D
3b5d: a2           POP     DE
3b5e: 40 80 3b     CALL    $3B80
3b61: 4e 4e        JRE     $3BB1
3b63: b2           PUSH    DE
3b64: 40 d1 3b     CALL    $3BD1
3b67: 48 0a        SK      CY
3b69: ce           JR      $3B78
3b6a: 70 3f 54 aa  LHLD    $AA54
3b6e: 0e           MOV     A,H
3b6f: 60 9f        ORA     A,L
3b71: 48 0c        SK      Z
3b73: c2           JR      $3B76
3b74: 8f           CALT    ($009E)
3b75: 90           CALT    ($00A0)
3b76: 91           CALT    ($00A2)
3b77: ec           JR      $3B64
3b78: 40 0d 3b     CALL    $3B0D
3b7b: a2           POP     DE
3b7c: 40 8c 3b     CALL    $3B8C
3b7f: da           JR      $3B9A
3b80: 70 3f 3a aa  LHLD    $AA3A
3b84: a6           DMOV    EA,DE
3b85: 48 95        STEAX   (HL++)
3b87: 70 3e 3a aa  SHLD    $AA3A
3b8b: b8           RET     
3b8c: 70 3f 52 aa  LHLD    $AA52
3b90: a6           DMOV    EA,DE
3b91: 48 95        STEAX   (HL++)
3b93: 70 3e 52 aa  SHLD    $AA52
3b97: 40 01 3b     CALL    $3B01
3b9a: 70 3f 54 aa  LHLD    $AA54
3b9e: 32           INX     HL
3b9f: 32           INX     HL
3ba0: 70 3e 54 aa  SHLD    $AA54
3ba4: b8           RET     
3ba5: 24 00 00     LXI     DE,$0000
3ba8: 40 0d 3b     CALL    $3B0D
3bab: 40 80 3b     CALL    $3B80
3bae: 40 0d 3b     CALL    $3B0D
3bb1: 70 3f 5c aa  LHLD    $AA5C
3bb5: 32           INX     HL
3bb6: 32           INX     HL
3bb7: 70 3e 5c aa  SHLD    $AA5C
3bbb: b8           RET     
3bbc: 34 ce 09     LXI     HL,$09CE
3bbf: 70 2f 5c aa  LDED    $AA5C
3bc3: a6           DMOV    EA,DE
3bc4: 70 2f 54 aa  LDED    $AA54
3bc8: 74 c6        DADD    EA,DE
3bca: b6           DMOV    DE,EA
3bcb: a7           DMOV    EA,HL
3bcc: 74 be        DLT     EA,DE
3bce: b8           RET     
3bcf: 91           CALT    ($00A2)
3bd0: eb           JR      $3BBC
3bd1: 24 36 00     LXI     DE,$0036
3bd4: 70 3f 4e aa  LHLD    $AA4E
3bd8: a7           DMOV    EA,HL
3bd9: 74 e6        DSUB    EA,DE
3bdb: b6           DMOV    DE,EA
3bdc: 70 3f 54 aa  LHLD    $AA54
3be0: a7           DMOV    EA,HL
3be1: 70 3f 5c aa  LHLD    $AA5C
3be5: 74 c7        DADD    EA,HL
3be7: b7           DMOV    HL,EA
3be8: a6           DMOV    EA,DE
3be9: 74 bf        DLT     EA,HL
3beb: 00           NOP     
3bec: b8           RET     
3bed: 70 69 7f aa  MOV     A,($AA7F)
3bf1: 41           INR     A
3bf2: 07 03        ANI     A,$03
3bf4: 70 79 7f aa  MOV     ($AA7F),A
3bf8: 48 1c        SKN     Z
3bfa: 91           CALT    ($00A2)
3bfb: b8           RET     
3bfc: 70 69 0b aa  MOV     A,($AA0B)
3c00: 41           INR     A
3c01: 07 01        ANI     A,$01
3c03: 70 79 0b aa  MOV     ($AA0B),A
3c07: 48 1c        SKN     Z
3c09: 91           CALT    ($00A2)
3c0a: 5d e3        BIT     5,VV:E3
3c0c: 4e 2a        JRE     $3C38
3c0e: 5d 4e        BIT     5,VV:4E
3c10: 4e 17        JRE     $3C29
3c12: 50           EXH     
3c13: a2           POP     DE
3c14: 4e 2a        JRE     $3C40
3c16: 70 3f 54 aa  LHLD    $AA54
3c1a: 0e           MOV     A,H
3c1b: 60 9f        ORA     A,L
3c1d: 48 0c        SK      Z
3c1f: 4f db        JRE     $3BFC
3c21: 8f           CALT    ($009E)
3c22: 40 db 3c     CALL    $3CDB
3c25: 90           CALT    ($00A0)
3c26: 91           CALT    ($00A2)
3c27: 4f d3        JRE     $3BFC
3c29: 50           EXH     
3c2a: a2           POP     DE
3c2b: d4           JR      $3C40
3c2c: 70 3f 5c aa  LHLD    $AA5C
3c30: 44 10 00     LXI     EA,$0010
3c33: 74 ef        DNE     EA,HL
3c35: df           JR      $3C55
3c36: 4e 2c        JRE     $3C64
3c38: 40 6d 3c     CALL    $3C6D
3c3b: 48 1a        SKN     CY
3c3d: 4f bd        JRE     $3BFC
3c3f: b8           RET     
3c40: 40 6d 3c     CALL    $3C6D
3c43: 48 1a        SKN     CY
3c45: 4f b5        JRE     $3BFC
3c47: 77 11        EQI     A,$11
3c49: 4f b1        JRE     $3BFC
3c4b: 5d 4e        BIT     5,VV:4E
3c4d: 40 f9 03     CALL    $03F9
3c50: 5b a2        BIT     3,VV:A2
3c52: 54 fc 3b     JMP     $3BFC
3c55: 70 3f 32 aa  LHLD    $AA32
3c59: 0e           MOV     A,H
3c5a: 60 9f        ORA     A,L
3c5c: 48 0c        SK      Z
3c5e: c5           JR      $3C64
3c5f: 5d 09        BIT     5,VV:09
3c61: 54 fc 3b     JMP     $3BFC
3c64: 40 6d 3c     CALL    $3C6D
3c67: 48 0a        SK      CY
3c69: b8           RET     
3c6a: 54 16 3c     JMP     $3C16
3c6d: 70 3f 00 aa  LHLD    $AA00
3c71: 5d a6        BIT     5,VV:A6
3c73: 4e 1a        JRE     $3C8F
3c75: 70 69 b3 aa  MOV     A,($AAB3)
3c79: 77 00        EQI     A,$00
3c7b: d9           JR      $3C95
3c7c: 50           EXH     
3c7d: b2           PUSH    DE
3c7e: 4e 57        JRE     $3CD7
3c80: 70 69 10 fe  MOV     A,($FE10)
3c84: 5d 09        BIT     5,VV:09
3c86: c5           JR      $3C8C
3c87: 70 79 8e aa  MOV     ($AA8E),A
3c8b: c9           JR      $3C95
3c8c: 1b           MOV     C,A
3c8d: 4e 45        JRE     $3CD4
3c8f: 9f           CALT    ($00BE)
3c90: 4e 45        JRE     $3CD7
3c92: 5d 09        BIT     5,VV:09
3c94: c6           JR      $3C9B
3c95: 40 c9 23     CALL    $23C9
3c98: 48 2a        CLC     
3c9a: b8           RET     
3c9b: ba           DI      
3c9c: 70 3f 68 aa  LHLD    $AA68
3ca0: a7           DMOV    EA,HL
3ca1: 70 3f 02 aa  LHLD    $AA02
3ca5: 74 af        DGT     EA,HL
3ca7: 70 3f 66 aa  LHLD    $AA66
3cab: 5d c8        BIT     5,VV:C8
3cad: d6           JR      $3CC4
3cae: 0e           MOV     A,H
3caf: 70 79 10 fe  MOV     ($FE10),A
3cb3: b3           PUSH    HL
3cb4: 6e 80        MVI     H,$80
3cb6: 69 18        MVI     A,$18
3cb8: 4d d0        MOV     MM,A
3cba: 2b           LDAX    (HL)
3cbb: 1b           MOV     C,A
3cbc: 69 08        MVI     A,$08
3cbe: 4d d0        MOV     MM,A
3cc0: a3           POP     HL
3cc1: 32           INX     HL
3cc2: 0b           MOV     A,C
3cc3: c2           JR      $3CC6
3cc4: 2d           LDAX    (HL+)
3cc5: 1b           MOV     C,A
3cc6: 70 3e 02 aa  SHLD    $AA02
3cca: 70 3f 00 aa  LHLD    $AA00
3cce: 33           DCX     HL
3ccf: 70 3e 00 aa  SHLD    $AA00
3cd3: aa           EI      
3cd4: 48 2a        CLC     
3cd6: b8           RET     
3cd7: 48 2b        STC     
3cd9: b8           RET     
3cda: 86           CALT    ($008C)
3cdb: 70 69 70 aa  MOV     A,($AA70)
3cdf: 70 6a 71 aa  MOV     B,($AA71)
3ce3: 60 ea        NEA     A,B
3ce5: b8           RET     
3ce6: 67 02        NEI     A,$02
3ce8: d7           JR      $3D00
3ce9: 67 01        NEI     A,$01
3ceb: cb           JR      $3CF7
3cec: 5b 4d        BIT     3,VV:4D
3cee: 5b cb        BIT     3,VV:CB
3cf0: 5b ea        BIT     3,VV:EA
3cf2: 70 79 71 aa  MOV     ($AA71),A
3cf6: b8           RET     
3cf7: 5b 4d        BIT     3,VV:4D
3cf9: 5d aa        BIT     5,VV:AA
3cfb: 58 cb        BIT     0,VV:CB
3cfd: 58 ea        BIT     0,VV:EA
3cff: f2           JR      $3CF2
3d00: 58 4d        BIT     0,VV:4D
3d02: 5b ea        BIT     3,VV:EA
3d04: 5b cb        BIT     3,VV:CB
3d06: eb           JR      $3CF2
3d07: 92           CALT    ($00A4)
3d08: 70 6a 6b aa  MOV     B,($AA6B)
3d0c: 74 5a 20     OFFI    B,$20
3d0f: 07 7f        ANI     A,$7F
3d11: 1b           MOV     C,A
3d12: b8           RET     
3d13: 70 3f 26 aa  LHLD    $AA26
3d17: 74 c7        DADD    EA,HL
3d19: b7           DMOV    HL,EA
3d1a: 70 2f 60 aa  LDED    $AA60
3d1e: a6           DMOV    EA,DE
3d1f: 74 bf        DLT     EA,HL
3d21: 00           NOP     
3d22: b8           RET     
3d23: 0e           MOV     A,H
3d24: 60 9f        ORA     A,L
3d26: 48 1c        SKN     Z
3d28: b8           RET     
3d29: b9           RETS    
3d2a: 70 2f 54 aa  LDED    $AA54
3d2e: 0c           MOV     A,D
3d2f: 60 9d        ORA     A,E
3d31: 48 0c        SK      Z
3d33: b9           RETS    
3d34: b8           RET     
3d35: 48 2f        MUL     C
3d37: b4           PUSH    EA
3d38: 48 2e        MUL     B
3d3a: a1           POP     BC
3d3b: 09           MOV     A,EAL
3d3c: 60 42        ADD     B,A
3d3e: b8           RET     
3d3f: 70 69 5b aa  MOV     A,($AA5B)
3d43: 07 38        ANI     A,$38
3d45: 48 21        SLR     A
3d47: 48 21        SLR     A
3d49: 48 21        SLR     A
3d4b: 44 71 3d     LXI     EA,$3D71
3d4e: 6c 00        MVI     D,$00
3d50: 1d           MOV     E,A
3d51: 74 c6        DADD    EA,DE
3d53: b5           DMOV    BC,EA
3d54: 29           LDAX    (BC)
3d55: b0           PUSH    VA
3d56: 0f           MOV     A,L
3d57: 1a           MOV     B,A
3d58: a0           POP     VA
3d59: 48 2e        MUL     B
3d5b: 48 a4        DSLL    EA
3d5d: 14 00 00     LXI     BC,$0000
3d60: 74 ef        DNE     EA,HL
3d62: cd           JR      $3D70
3d63: 70 69 5b aa  MOV     A,($AA5B)
3d67: 07 38        ANI     A,$38
3d69: 67 10        NEI     A,$10
3d6b: c2           JR      $3D6E
3d6c: 67 28        NEI     A,$28
3d6e: 74 c7        DADD    EA,HL
3d70: b8           RET     
3d71: 90           CALT    ($00A0)
3d72: 78 54        CALF    $0854
3d74: 90           CALT    ($00A0)
3d75: a0           POP     VA
3d76: 6b 60        MVI     C,$60
3d78: a0           POP     VA
3d79: 37 20        LTI     A,$20
3d7b: c3           JR      $3D7F
3d7c: 48 2b        STC     
3d7e: b8           RET     
3d7f: 37 f0        LTI     A,$F0
3d81: fa           JR      $3D7C
3d82: 5d ad        BIT     5,VV:AD
3d84: c6           JR      $3D8B
3d85: 37 80        LTI     A,$80
3d87: f4           JR      $3D7C
3d88: 48 2a        CLC     
3d8a: b8           RET     
3d8b: 37 80        LTI     A,$80
3d8d: c1           JR      $3D8F
3d8e: f9           JR      $3D88
3d8f: 37 a0        LTI     A,$A0
3d91: c1           JR      $3D93
3d92: e9           JR      $3D7C
3d93: 66 20        SUI     A,$20
3d95: f2           JR      $3D88
3d96: 92           CALT    ($00A4)
3d97: 07 3f        ANI     A,$3F
3d99: 1a           MOV     B,A
3d9a: 50           EXH     
3d9b: ad           LDAX    (HL+B)
3d9c: 69 11        MVI     A,$11
3d9e: 69 09        MVI     A,$09
3da0: b0           PUSH    VA
3da1: 0a           MOV     A,B
3da2: 1b           MOV     C,A
3da3: a0           POP     VA
3da4: 74 0b 1f     ANI     C,$1F
3da7: 60 3b        LTA     C,A
3da9: c4           JR      $3DAE
3daa: 0a           MOV     A,B
3dab: 48 2a        CLC     
3dad: b8           RET     
3dae: 48 2b        STC     
3db0: b8           RET     
3db1: 70 69 6a aa  MOV     A,($AA6A)
3db5: 47 40        ONI     A,$40
3db7: c4           JR      $3DBC
3db8: 8f           CALT    ($009E)
3db9: 48 2a        CLC     
3dbb: cb           JR      $3DC7
3dbc: 44 10 00     LXI     EA,$0010
3dbf: 70 3f 5c aa  LHLD    $AA5C
3dc3: 74 bf        DLT     EA,HL
3dc5: 58 ab        BIT     0,VV:AB
3dc7: b8           RET     
3dc8: 07 38        ANI     A,$38
3dca: 48 21        SLR     A
3dcc: 48 21        SLR     A
3dce: 48 21        SLR     A
3dd0: 70 41        EADD    EA,A
3dd2: b6           DMOV    DE,EA
3dd3: 2a           LDAX    (DE)
3dd4: b8           RET     
3dd5: 24 1e 15     LXI     DE,$151E
3dd8: 12           INX     BC
3dd9: 28           illegal 
3dda: 1b           MOV     C,A
3ddb: 18           MOV     EAH,A
3ddc: 14 70 6c     LXI     BC,$6C70
3ddf: 6c aa        MVI     D,$AA
3de1: 74 1c 80     ORI     D,$80
3de4: 70 3f 6d aa  LHLD    $AA6D
3de8: 6d 00        MVI     E,$00
3dea: a7           DMOV    EA,HL
3deb: 74 9e        DOR     EA,DE
3ded: b6           DMOV    DE,EA
3dee: 40 8c 3b     CALL    $3B8C
3df1: 40 bc 3b     CALL    $3BBC
3df4: b8           RET     
3df5: 70 6c 6c aa  MOV     D,($AA6C)
3df9: 74 1c c0     ORI     D,$C0
3dfc: 4f ea        JRE     $3DE8
3dfe: 70 6c 6c aa  MOV     D,($AA6C)
3e02: 74 1c a0     ORI     D,$A0
3e05: 4f dd        JRE     $3DE4
3e07: 70 6c 6c aa  MOV     D,($AA6C)
3e0b: 74 1c e0     ORI     D,$E0
3e0e: 4f d4        JRE     $3DE4
3e10: b2           PUSH    DE
3e11: 70 2f 58 aa  LDED    $AA58
3e15: 70 69 5b aa  MOV     A,($AA5B)
3e19: 07 38        ANI     A,$38
3e1b: 67 00        NEI     A,$00
3e1d: 74 1c 00     ORI     D,$00
3e20: 74 1c 80     ORI     D,$80
3e23: 99           CALT    ($00B2)
3e24: 40 5a 3e     CALL    $3E5A
3e27: 70 2f 5a aa  LDED    $AA5A
3e2b: 6d 00        MVI     E,$00
3e2d: 74 0c 38     ANI     D,$38
3e30: 74 1c c0     ORI     D,$C0
3e33: 99           CALT    ($00B2)
3e34: 40 7e 3e     CALL    $3E7E
3e37: a2           POP     DE
3e38: 99           CALT    ($00B2)
3e39: 70 2f 58 aa  LDED    $AA58
3e3d: 70 69 5b aa  MOV     A,($AA5B)
3e41: 07 38        ANI     A,$38
3e43: 67 00        NEI     A,$00
3e45: 74 1c 00     ORI     D,$00
3e48: 74 1c 80     ORI     D,$80
3e4b: 99           CALT    ($00B2)
3e4c: 70 2f 5a aa  LDED    $AA5A
3e50: 6d 00        MVI     E,$00
3e52: 74 0c 38     ANI     D,$38
3e55: 74 1c c0     ORI     D,$C0
3e58: 99           CALT    ($00B2)
3e59: b8           RET     
3e5a: 70 3f 3e aa  LHLD    $AA3E
3e5e: 44 ff 18     LXI     EA,$18FF
3e61: 74 8e        DAN     EA,DE
3e63: b6           DMOV    DE,EA
3e64: 74 4c 10     ONI     D,$10
3e67: cc           JR      $3E74
3e68: 74 4e 10     ONI     H,$10
3e6b: cc           JR      $3E78
3e6c: 74 9f        DOR     EA,HL
3e6e: b7           DMOV    HL,EA
3e6f: 70 3e 3e aa  SHLD    $AA3E
3e73: b8           RET     
3e74: 74 0e ef     ANI     H,$EF
3e77: f4           JR      $3E6C
3e78: 44 ff ef     LXI     EA,$EFFF
3e7b: 74 8e        DAN     EA,DE
3e7d: ee           JR      $3E6C
3e7e: 70 3f 40 aa  LHLD    $AA40
3e82: 6f 00        MVI     L,$00
3e84: 44 00 3f     LXI     EA,$3F00
3e87: 74 8e        DAN     EA,DE
3e89: 74 9f        DOR     EA,HL
3e8b: b7           DMOV    HL,EA
3e8c: 70 3e 40 aa  SHLD    $AA40
3e90: b8           RET     
3e91: a6           DMOV    EA,DE
3e92: 69 08        MVI     A,$08
3e94: 48 3d        DIV     A
3e96: 70 6a 7e aa  MOV     B,($AA7E)
3e9a: 60 c2        ADD     A,B
3e9c: 37 08        LTI     A,$08
3e9e: 76 08        SBI     A,$08
3ea0: 70 79 73 aa  MOV     ($AA73),A
3ea4: 70 69 5b aa  MOV     A,($AA5B)
3ea8: 47 04        ONI     A,$04
3eaa: b8           RET     
3eab: 70 69 73 aa  MOV     A,($AA73)
3eaf: 48 25        SLL     A
3eb1: 66 08        SUI     A,$08
3eb3: 48 0a        SK      CY
3eb5: 70 79 73 aa  MOV     ($AA73),A
3eb9: b8           RET     
3eba: b2           PUSH    DE
3ebb: 70 2f 58 aa  LDED    $AA58
3ebf: 40 11 3f     CALL    $3F11
3ec2: 99           CALT    ($00B2)
3ec3: 40 5a 3e     CALL    $3E5A
3ec6: 70 2f 5a aa  LDED    $AA5A
3eca: 6d 00        MVI     E,$00
3ecc: 74 0c 3f     ANI     D,$3F
3ecf: 74 1c 80     ORI     D,$80
3ed2: 99           CALT    ($00B2)
3ed3: 40 7e 3e     CALL    $3E7E
3ed6: a2           POP     DE
3ed7: 99           CALT    ($00B2)
3ed8: 70 2f 58 aa  LDED    $AA58
3edc: 40 11 3f     CALL    $3F11
3edf: 99           CALT    ($00B2)
3ee0: 70 2f 5a aa  LDED    $AA5A
3ee4: 6d 00        MVI     E,$00
3ee6: 74 0c 3f     ANI     D,$3F
3ee9: 74 1c 80     ORI     D,$80
3eec: 99           CALT    ($00B2)
3eed: b8           RET     
3eee: 70 6e 59 aa  MOV     H,($AA59)
3ef2: 70 6f 7a aa  MOV     L,($AA7A)
3ef6: 74 0f 0f     ANI     L,$0F
3ef9: 74 0e 02     ANI     H,$02
3efc: 74 1e 80     ORI     H,$80
3eff: 70 3e 2e aa  SHLD    $AA2E
3f03: 70 6e 5b aa  MOV     H,($AA5B)
3f07: 74 0e 3f     ANI     H,$3F
3f0a: 6f 00        MVI     L,$00
3f0c: 70 3e 2c aa  SHLD    $AA2C
3f10: b8           RET     
3f11: 74 1c 80     ORI     D,$80
3f14: 74 0c 82     ANI     D,$82
3f17: b8           RET     
3f18: 50           EXH     
3f19: ac           LDAX    (HL+A)
3f1a: 74 1c 02     ORI     D,$02
3f1d: b8           RET     
3f1e: 34 87 3f     LXI     HL,$3F87
3f21: 70 6a 6a aa  MOV     B,($AA6A)
3f25: 74 0a 07     ANI     B,$07
3f28: 40 cf 2c     CALL    $2CCF
3f2b: 24 00 00     LXI     DE,$0000
3f2e: 74 ee        DNE     EA,DE
3f30: b8           RET     
3f31: 70 42        EADD    EA,B
3f33: b7           DMOV    HL,EA
3f34: 2b           LDAX    (HL)
3f35: 1b           MOV     C,A
3f36: b8           RET     
3f37: 23           DCX     DE
3f38: 08           MOV     A,EAH
3f39: 23           DCX     DE
3f3a: 08           MOV     A,EAH
3f3b: 23           DCX     DE
3f3c: 23           DCX     DE
3f3d: 08           MOV     A,EAH
3f3e: 08           MOV     A,EAH
3f3f: 40 09 40     CALL    $4009
3f42: 40 09 40     CALL    $4009
3f45: 12           INX     BC
3f46: 09           MOV     A,EAL
3f47: 5b 1a        BIT     3,VV:1A
3f49: 04 5b 0a     LXI     SP,$0A5B
3f4c: 0a           MOV     A,B
3f4d: 1a           MOV     B,A
3f4e: 16 5c        XRI     A,$5C
3f50: 14 07 5c     LXI     BC,$5C07
3f53: 1b           MOV     C,A
3f54: 1b           MOV     C,A
3f55: 14 19 5d     LXI     BC,$5D19
3f58: 0d           MOV     A,E
3f59: 0c           MOV     A,D
3f5a: 5d 1c        BIT     5,VV:1C
3f5c: 0c           MOV     A,D
3f5d: 09           MOV     A,EAL
3f5e: 17 60        ORI     A,$60
3f60: 1d           MOV     E,A
3f61: 60 60        SUB     V,A
3f63: 60 60        SUB     V,A
3f65: 60 60        SUB     V,A
3f67: 7b 12        CALF    $0B12
3f69: 05 7b 0e     ANIW    VV:7B,$0E
3f6c: 0e           MOV     A,H
3f6d: 0d           MOV     A,E
3f6e: 1a           MOV     B,A
3f6f: 7c 1e        CALF    $0C1E
3f71: 06           illegal 
3f72: 7c 0b        CALF    $0C0B
3f74: 0b           MOV     A,C
3f75: 1d           MOV     E,A
3f76: 18           MOV     EAH,A
3f77: 7d 15        CALF    $0D15
3f79: 0f           MOV     A,L
3f7a: 7d 10        CALF    $0D10
3f7c: 0f           MOV     A,L
3f7d: 15 14 7e     ORIW    VV:14,$7E
3f80: 1f           MOV     L,A
3f81: 7e 7e        CALF    $0E7E
3f83: 11           EXX     
3f84: 7e 13        CALF    $0E13
3f86: 7e 23        CALF    $0E23
3f88: 37 3f        LTI     A,$3F
3f8a: 40 3f 3f     CALL    $3F3F
3f8d: 5b 47        BIT     3,VV:47
3f8f: 3f           STAX    (HL-)
3f90: 5c 4f        BIT     4,VV:4F
3f92: 3f           STAX    (HL-)
3f93: 5d 57        BIT     5,VV:57
3f95: 3f           STAX    (HL-)
3f96: 60 5f        illegal 
3f98: 3f           STAX    (HL-)
3f99: 7b 67        CALF    $0B67
3f9b: 3f           STAX    (HL-)
3f9c: 7c 6f        CALF    $0C6F
3f9e: 3f           STAX    (HL-)
3f9f: 7d 77        CALF    $0D77
3fa1: 3f           STAX    (HL-)
3fa2: 7e 7f        CALF    $0E7F
3fa4: 3f           STAX    (HL-)
3fa5: ff           JR      $3FA5
3fa6: 00           NOP     
3fa7: 00           NOP     
3fa8: 70 7a 7b aa  MOV     ($AA7B),B
3fac: 44 00 00     LXI     EA,$0000
3faf: b1           PUSH    BC
3fb0: b4           PUSH    EA
3fb1: 9b           CALT    ($00B6)
3fb2: a4           POP     EA
3fb3: a1           POP     BC
3fb4: 67 20        NEI     A,$20
3fb6: 69 30        MVI     A,$30
3fb8: cc           JR      $3FC5
3fb9: 00           NOP     
3fba: 00           NOP     
3fbb: 00           NOP     
3fbc: 00           NOP     
3fbd: 00           NOP     
3fbe: 00           NOP     
3fbf: 00           NOP     
3fc0: b8           RET     
3fc1: 00           NOP     
3fc2: 00           NOP     
3fc3: 00           NOP     
3fc4: 00           NOP     
3fc5: 36 30        SUINB   A,$30
3fc7: f8           JR      $3FC0
3fc8: 37 0a        LTI     A,$0A
3fca: f5           JR      $3FC0
3fcb: 48 a4        DSLL    EA
3fcd: b7           DMOV    HL,EA
3fce: 48 a4        DSLL    EA
3fd0: 48 a4        DSLL    EA
3fd2: 74 c7        DADD    EA,HL
3fd4: 1f           MOV     L,A
3fd5: 6e 00        MVI     H,$00
3fd7: 74 c7        DADD    EA,HL
3fd9: 52           DCR     B
3fda: 48 0c        SK      Z
3fdc: 4f d1        JRE     $3FAF
3fde: b7           DMOV    HL,EA
3fdf: b9           RETS    
3fe0: 70 3f 9b aa  LHLD    $AA9B
3fe4: 70 2f 9d aa  LDED    $AA9D
3fe8: a6           DMOV    EA,DE
3fe9: 74 ef        DNE     EA,HL
3feb: 54 c9 42     JMP     $42C9
3fee: 50           EXH     
3fef: 68 4e        MVI     V,$4E
3ff1: 22           INX     DE
3ff2: 58 a8        BIT     0,VV:A8
3ff4: 5f 44        BIT     7,VV:44
3ff6: 5a 8e        BIT     2,VV:8E
3ff8: 14 00 c8     LXI     BC,$C800
3ffb: 83           CALT    ($0086)
3ffc: 01 10        LDAW    VV:10
3ffe: 5d 44        BIT     5,VV:44
4000: cf           JR      $4010
4001: 14 00 00     LXI     BC,$0000
4004: 70 1e 10 aa  SBCD    $AA10
4008: 6d 08        MVI     E,$08
400a: 60 65        SUB     E,A
400c: 74 0d 07     ANI     E,$07
400f: 0d           MOV     A,E
4010: 63 11        STAW    VV:11
4012: 58 68        BIT     0,VV:68
4014: 58 48        BIT     0,VV:48
4016: 40 30 43     CALL    $4330
4019: b3           PUSH    HL
401a: 70 3f 9f aa  LHLD    $AA9F
401e: a5           DMOV    EA,BC
401f: 74 cf        DON     EA,HL
4021: 5b 48        BIT     3,VV:48
4023: 74 4a 10     ONI     B,$10
4026: c9           JR      $4030
4027: 58 08        BIT     0,VV:08
4029: 34 80 4b     LXI     HL,$4B80
402c: 6b 0c        MVI     C,$0C
402e: 4e 75        JRE     $40A5
4030: 0f           MOV     A,L
4031: 74 4a 07     ONI     B,$07
4034: c3           JR      $4038
4035: 58 28        BIT     0,VV:28
4037: c6           JR      $403E
4038: 74 4a 08     ONI     B,$08
403b: c6           JR      $4042
403c: 58 07        BIT     0,VV:07
403e: 57 f0        OFFI    A,$F0
4040: 58 c7        BIT     0,VV:C7
4042: 74 5a 80     OFFI    B,$80
4045: 4e 79        JRE     $40C0
4047: 0c           MOV     A,D
4048: 57 c0        OFFI    A,$C0
404a: d5           JR      $4060
404b: 5d 07        BIT     5,VV:07
404d: cb           JR      $4059
404e: 34 07 5f     LXI     HL,$5F07
4051: 50           EXH     
4052: c7           JR      $405A
4053: 34 c7 68     LXI     HL,$68C7
4056: 6b 10        MVI     C,$10
4058: c5           JR      $405E
4059: 34 d0 52     LXI     HL,$52D0
405c: 6b 08        MVI     C,$08
405e: 4e 45        JRE     $40A5
4060: 57 80        OFFI    A,$80
4062: 4e 27        JRE     $408B
4064: 34 b0 57     LXI     HL,$57B0
4067: 50           EXH     
4068: 07 34        ANI     A,$34
406a: 87           CALT    ($008E)
406b: 72           SOFTI   
406c: 0d           MOV     A,E
406d: 66 04        SUI     A,$04
406f: 44 00 00     LXI     EA,$0000
4072: 19           MOV     EAL,A
4073: 48 a4        DSLL    EA
4075: 70 41        EADD    EA,A
4077: ae           LDAX    (HL+EA)
4078: 1b           MOV     C,A
4079: 32           INX     HL
407a: 48 8e        LDEAX   (HL+EA)
407c: 50           EXH     
407d: 28           illegal 
407e: 4e 2c        JRE     $40AC
4080: 5d c7        BIT     5,VV:C7
4082: 4e 28        JRE     $40AC
4084: 34 e3 05     LXI     HL,$05E3
4087: 74 c7        DADD    EA,HL
4089: 4e 21        JRE     $40AC
408b: 34 00 a2     LXI     HL,$A200
408e: 6a 11        MVI     B,$11
4090: 47 40        ONI     A,$40
4092: 6a 09        MVI     B,$09
4094: 0d           MOV     A,E
4095: 66 20        SUI     A,$20
4097: 48 2e        MUL     B
4099: 74 c7        DADD    EA,HL
409b: b7           DMOV    HL,EA
409c: 2d           LDAX    (HL+)
409d: 57 20        OFFI    A,$20
409f: 58 27        BIT     0,VV:27
40a1: 07 1f        ANI     A,$1F
40a3: 1b           MOV     C,A
40a4: cd           JR      $40B2
40a5: 0d           MOV     A,E
40a6: 66 04        SUI     A,$04
40a8: 48 2f        MUL     C
40aa: 74 c7        DADD    EA,HL
40ac: b7           DMOV    HL,EA
40ad: 74 2d 7f     GTI     E,$7F
40b0: 58 e7        BIT     0,VV:E7
40b2: a4           POP     EA
40b3: 6a 00        MVI     B,$00
40b5: 5d 44        BIT     5,VV:44
40b7: 4e 5f        JRE     $4118
40b9: a7           DMOV    EA,HL
40ba: 70 43        EADD    EA,C
40bc: a9           DCX     EA
40bd: b7           DMOV    HL,EA
40be: 4e 58        JRE     $4118
40c0: 5b e7        BIT     3,VV:E7
40c2: a3           POP     HL
40c3: 5d 44        BIT     5,VV:44
40c5: c6           JR      $40CC
40c6: 82           CALT    ($0084)
40c7: 2f           LDAX    (HL-)
40c8: 1a           MOV     B,A
40c9: 2b           LDAX    (HL)
40ca: 1b           MOV     C,A
40cb: d0           JR      $40DC
40cc: 2d           LDAX    (HL+)
40cd: 1b           MOV     C,A
40ce: 2b           LDAX    (HL)
40cf: 1a           MOV     B,A
40d0: 81           CALT    ($0082)
40d1: 74 5b 01     OFFI    C,$01
40d4: 58 a7        BIT     0,VV:A7
40d6: 74 5c 80     OFFI    D,$80
40d9: c7           JR      $40E1
40da: 4e 3c        JRE     $4118
40dc: 74 4c 80     ONI     D,$80
40df: 4e 32        JRE     $4113
40e1: 70 3e 9b aa  SHLD    $AA9B
40e5: 58 87        BIT     0,VV:87
40e7: 74 5c 40     OFFI    D,$40
40ea: ca           JR      $40F5
40eb: 70 69 9f aa  MOV     A,($AA9F)
40ef: 57 f0        OFFI    A,$F0
40f1: 58 c7        BIT     0,VV:C7
40f3: 4e 23        JRE     $4118
40f5: 58 47        BIT     0,VV:47
40f7: 44 1f 00     LXI     EA,$001F
40fa: 74 bd        DLT     EA,BC
40fc: cf           JR      $410C
40fd: 09           MOV     A,EAL
40fe: 63 12        STAW    VV:12
4100: a5           DMOV    EA,BC
4101: 48 3d        DIV     A
4103: b5           DMOV    BC,EA
4104: 77 00        EQI     A,$00
4106: 74 c0 12     ADDW    VV:12
4109: 63 13        STAW    VV:13
410b: cc           JR      $4118
410c: 0b           MOV     A,C
410d: 63 12        STAW    VV:12
410f: 14 01 00     LXI     BC,$0001
4112: c5           JR      $4118
4113: 82           CALT    ($0084)
4114: 74 5b 01     OFFI    C,$01
4117: 82           CALT    ($0084)
4118: b3           PUSH    HL
4119: b1           PUSH    BC
411a: 2b           LDAX    (HL)
411b: 1b           MOV     C,A
411c: 50           EXH     
411d: 87           CALT    ($008E)
411e: 6b 00        MVI     C,$00
4120: 6a 00        MVI     B,$00
4122: 50           EXH     
4123: 27 c8        GTI     A,$C8
4125: 5d e7        BIT     5,VV:E7
4127: c9           JR      $4131
4128: 47 80        ONI     A,$80
412a: c6           JR      $4131
412b: 48 27        SLL     C
412d: 48 27        SLL     C
412f: 48 36        RLL     B
4131: 5d 28        BIT     5,VV:28
4133: 4e 3c        JRE     $4171
4135: a5           DMOV    EA,BC
4136: 14 00 04     LXI     BC,$0400
4139: 5d c7        BIT     5,VV:C7
413b: c5           JR      $4141
413c: 14 00 03     LXI     BC,$0300
413f: 48 a0        DSLR    EA
4141: 48 a0        DSLR    EA
4143: 48 33        RLR     C
4145: 48 a0        DSLR    EA
4147: 52           DCR     B
4148: f8           JR      $4141
4149: 42           INR     B
414a: 00           NOP     
414b: a5           DMOV    EA,BC
414c: 48 a0        DSLR    EA
414e: 50           EXH     
414f: c7           JR      $4157
4150: 48 a0        DSLR    EA
4152: 70 69 a6 aa  MOV     A,($AAA6)
4156: 48 01        SLRC    A
4158: c5           JR      $415E
4159: 48 a0        DSLR    EA
415b: 48 a0        DSLR    EA
415d: d2           JR      $4170
415e: 48 01        SLRC    A
4160: cb           JR      $416C
4161: b5           DMOV    BC,EA
4162: 50           EXH     
4163: c7           JR      $416B
4164: db           JR      $4180
4165: 74 5c 01     OFFI    D,$01
4168: 74 1b 40     ORI     C,$40
416b: d4           JR      $4180
416c: 48 a4        DSLL    EA
416e: 48 a4        DSLL    EA
4170: b5           DMOV    BC,EA
4171: 50           EXH     
4172: c7           JR      $417A
4173: cc           JR      $4180
4174: 74 4c 01     ONI     D,$01
4177: c8           JR      $4180
4178: 5f 08        BIT     7,VV:08
417a: 31           BLOCK   
417b: 8e           CALT    ($009C)
417c: 48 0a        SK      CY
417e: 6a 01        MVI     B,$01
4180: 5d 48        BIT     5,VV:48
4182: 14 00 00     LXI     BC,$0000
4185: 5d 08        BIT     5,VV:08
4187: 4e 3d        JRE     $41C6
4189: 59 8e        BIT     1,VV:8E
418b: 50           EXH     
418c: 67 dd        NEI     A,$DD
418e: 6d 00        MVI     E,$00
4190: 58 67        BIT     0,VV:67
4192: 0c           MOV     A,D
4193: 34 dc 45     LXI     HL,$45DC
4196: 48 21        SLR     A
4198: 48 21        SLR     A
419a: 48 21        SLR     A
419c: ac           LDAX    (HL+A)
419d: 63 16        STAW    VV:16
419f: 77 0e        EQI     A,$0E
41a1: c3           JR      $41A5
41a2: 41           INR     A
41a3: 4e 30        JRE     $41D5
41a5: 77 12        EQI     A,$12
41a7: c3           JR      $41AB
41a8: 51           DCR     A
41a9: 4e 2a        JRE     $41D5
41ab: 01 16        LDAW    VV:16
41ad: 77 1b        EQI     A,$1B
41af: 4e 24        JRE     $41D5
41b1: 5d 44        BIT     5,VV:44
41b3: c5           JR      $41B9
41b4: 74 6d 00     NEI     E,$00
41b7: 51           DCR     A
41b8: c4           JR      $41BD
41b9: 74 6d 02     NEI     E,$02
41bc: 51           DCR     A
41bd: 74 45 01     ADI     E,$01
41c0: 74 6d 03     NEI     E,$03
41c3: 6d 00        MVI     E,$00
41c5: cf           JR      $41D5
41c6: 5d 47        BIT     5,VV:47
41c8: 4e 23        JRE     $41ED
41ca: 01 13        LDAW    VV:13
41cc: 67 00        NEI     A,$00
41ce: c4           JR      $41D3
41cf: 71 13 00     MVIW    VV:13,$00
41d2: c2           JR      $41D5
41d3: 01 12        LDAW    VV:12
41d5: 48 25        SLL     A
41d7: 5d 44        BIT     5,VV:44
41d9: cc           JR      $41E6
41da: b1           PUSH    BC
41db: 70 1f 10 aa  LBCD    $AA10
41df: a5           DMOV    EA,BC
41e0: a1           POP     BC
41e1: 70 1e 10 aa  SBCD    $AA10
41e5: b5           DMOV    BC,EA
41e6: 17 80        ORI     A,$80
41e8: 60 1a        ORA     B,A
41ea: 83           CALT    ($0086)
41eb: 4e 60        JRE     $424D
41ed: 50           EXH     
41ee: 67 4e        NEI     A,$4E
41f0: 27 58        GTI     A,$58
41f2: 67 b1        NEI     A,$B1
41f4: 0c           MOV     A,D
41f5: 07 38        ANI     A,$38
41f7: 1a           MOV     B,A
41f8: 01 11        LDAW    VV:11
41fa: 5d 07        BIT     5,VV:07
41fc: cf           JR      $420C
41fd: 34 00 46     LXI     HL,$4600
4200: 48 26        SLL     B
4202: 48 25        SLL     A
4204: 60 c2        ADD     A,B
4206: 60 47        ADD     L,A
4208: 50           EXH     
4209: 44 32 c7     LXI     EA,$C732
420c: 34 00 45     LXI     HL,$4500
420f: 60 c2        ADD     A,B
4211: 60 47        ADD     L,A
4213: a1           POP     BC
4214: 70 3e a3 aa  SHLD    $AAA3
4218: 70 3f a3 aa  LHLD    $AAA3
421c: 5d 44        BIT     5,VV:44
421e: de           JR      $423D
421f: b1           PUSH    BC
4220: 70 1f 10 aa  LBCD    $AA10
4224: a5           DMOV    EA,BC
4225: a1           POP     BC
4226: 70 1e 10 aa  SBCD    $AA10
422a: b5           DMOV    BC,EA
422b: 40 59 43     CALL    $4359
422e: 40 e5 42     CALL    $42E5
4231: 74 4c 04     ONI     D,$04
4234: d8           JR      $424D
4235: 70 1f 10 aa  LBCD    $AA10
4239: 40 59 43     CALL    $4359
423c: cd           JR      $424A
423d: 40 51 43     CALL    $4351
4240: 40 e5 42     CALL    $42E5
4243: 74 4c 04     ONI     D,$04
4246: c6           JR      $424D
4247: 40 51 43     CALL    $4351
424a: 40 e5 42     CALL    $42E5
424d: a1           POP     BC
424e: a3           POP     HL
424f: 70 69 a6 aa  MOV     A,($AAA6)
4253: 57 80        OFFI    A,$80
4255: d3           JR      $4269
4256: 13           DCX     BC
4257: 0a           MOV     A,B
4258: 60 9b        ORA     A,C
425a: 48 1c        SKN     Z
425c: 4e 3b        JRE     $4299
425e: 5d 44        BIT     5,VV:44
4260: c4           JR      $4265
4261: 33           DCX     HL
4262: 54 18 41     JMP     $4118
4265: 32           INX     HL
4266: 54 18 41     JMP     $4118
4269: 70 69 a8 aa  MOV     A,($AAA8)
426d: 57 80        OFFI    A,$80
426f: 4e 1f        JRE     $4290
4271: 13           DCX     BC
4272: 0a           MOV     A,B
4273: 60 9b        ORA     A,C
4275: 48 0c        SK      Z
4277: cd           JR      $4285
4278: 6b 06        MVI     C,$06
427a: 50           EXH     
427b: 44 4e 21     LXI     EA,$214E
427e: 81           CALT    ($0082)
427f: 50           EXH     
4280: a7           DMOV    EA,HL
4281: 6b 07        MVI     C,$07
4283: 4e 1a        JRE     $429F
4285: 5d 44        BIT     5,VV:44
4287: c4           JR      $428C
4288: 82           CALT    ($0084)
4289: 54 18 41     JMP     $4118
428c: 81           CALT    ($0082)
428d: 54 18 41     JMP     $4118
4290: 13           DCX     BC
4291: 0a           MOV     A,B
4292: 60 9b        ORA     A,C
4294: 48 0c        SK      Z
4296: 54 18 41     JMP     $4118
4299: 6b 04        MVI     C,$04
429b: 70 3f 9b aa  LHLD    $AA9B
429f: 70 2f 4e aa  LDED    $AA4E
42a3: a7           DMOV    EA,HL
42a4: 5d 44        BIT     5,VV:44
42a6: cc           JR      $42B3
42a7: 70 63        ESUB    EA,C
42a9: 70 3f 4a aa  LHLD    $AA4A
42ad: 33           DCX     HL
42ae: 74 af        DGT     EA,HL
42b0: 74 c6        DADD    EA,DE
42b2: ca           JR      $42BD
42b3: 70 43        EADD    EA,C
42b5: 70 3f 4c aa  LHLD    $AA4C
42b9: 74 bf        DLT     EA,HL
42bb: 74 e6        DSUB    EA,DE
42bd: b7           DMOV    HL,EA
42be: 70 3e 9b aa  SHLD    $AA9B
42c2: 05 07 00     ANIW    VV:07,$00
42c5: 05 08 e8     ANIW    VV:08,$E8
42c8: d9           JR      $42E2
42c9: 75 14 00     EQIW    VV:14,$00
42cc: c2           JR      $42CF
42cd: 80           CALT    ($0080)
42ce: d3           JR      $42E2
42cf: 5d 44        BIT     5,VV:44
42d1: c8           JR      $42DA
42d2: 70 1f 10 aa  LBCD    $AA10
42d6: 74 1a c0     ORI     B,$C0
42d9: 83           CALT    ($0086)
42da: 14 00 48     LXI     BC,$4800
42dd: 83           CALT    ($0086)
42de: 05 08 c0     ANIW    VV:08,$C0
42e1: 80           CALT    ($0080)
42e2: 54 e0 3f     JMP     $3FE0
42e5: 01 11        LDAW    VV:11
42e7: 5d 07        BIT     5,VV:07
42e9: 4e 26        JRE     $4311
42eb: 5d 44        BIT     5,VV:44
42ed: cf           JR      $42FD
42ee: 33           DCX     HL
42ef: 5d 88        BIT     5,VV:88
42f1: cf           JR      $4301
42f2: 51           DCR     A
42f3: d9           JR      $430D
42f4: 74 27 10     ADINC   L,$10
42f7: 74 46 01     ADI     H,$01
42fa: 69 07        MVI     A,$07
42fc: d0           JR      $430D
42fd: 32           INX     HL
42fe: 50           EXH     
42ff: 88           CALT    ($0090)
4300: c4           JR      $4305
4301: 58 88        BIT     0,VV:88
4303: 4e 26        JRE     $432B
4305: 41           INR     A
4306: 07 07        ANI     A,$07
4308: 48 1c        SKN     Z
430a: 74 67 10     SUI     L,$10
430d: 5b 88        BIT     3,VV:88
430f: 4e 18        JRE     $4329
4311: 5d 44        BIT     5,VV:44
4313: cc           JR      $4320
4314: 33           DCX     HL
4315: 51           DCR     A
4316: d2           JR      $4329
4317: 74 27 08     ADINC   L,$08
431a: 74 46 01     ADI     H,$01
431d: 69 07        MVI     A,$07
431f: c9           JR      $4329
4320: 32           INX     HL
4321: 41           INR     A
4322: 07 07        ANI     A,$07
4324: 48 1c        SKN     Z
4326: 74 67 08     SUI     L,$08
4329: 63 11        STAW    VV:11
432b: 70 3e a3 aa  SHLD    $AAA3
432f: b8           RET     
4330: 5d 44        BIT     5,VV:44
4332: cb           JR      $433E
4333: 82           CALT    ($0084)
4334: 2f           LDAX    (HL-)
4335: 1c           MOV     D,A
4336: 2b           LDAX    (HL)
4337: 1d           MOV     E,A
4338: 82           CALT    ($0084)
4339: 2f           LDAX    (HL-)
433a: 1a           MOV     B,A
433b: 2b           LDAX    (HL)
433c: 1b           MOV     C,A
433d: ca           JR      $4348
433e: 2d           LDAX    (HL+)
433f: 1b           MOV     C,A
4340: 2b           LDAX    (HL)
4341: 1a           MOV     B,A
4342: 81           CALT    ($0082)
4343: 2d           LDAX    (HL+)
4344: 1d           MOV     E,A
4345: 2b           LDAX    (HL)
4346: 1c           MOV     D,A
4347: 81           CALT    ($0082)
4348: 70 1e a5 aa  SBCD    $AAA5
434c: 70 2e a7 aa  SDED    $AAA7
4350: b8           RET     
4351: 74 4c 02     ONI     D,$02
4354: d0           JR      $4365
4355: 40 72 43     CALL    $4372
4358: d0           JR      $4369
4359: 74 4c 02     ONI     D,$02
435c: c8           JR      $4365
435d: 40 69 43     CALL    $4369
4360: 70 1f 10 aa  LBCD    $AA10
4364: cd           JR      $4372
4365: 2b           LDAX    (HL)
4366: 48 25        SLL     A
4368: cc           JR      $4375
4369: 2b           LDAX    (HL)
436a: 48 21        SLR     A
436c: 48 1a        SKN     CY
436e: 41           INR     A
436f: 48 25        SLL     A
4371: c3           JR      $4375
4372: 2b           LDAX    (HL)
4373: 07 fe        ANI     A,$FE
4375: 17 80        ORI     A,$80
4377: b1           PUSH    BC
4378: 60 1a        ORA     B,A
437a: 83           CALT    ($0086)
437b: a1           POP     BC
437c: b8           RET     
437d: b3           PUSH    HL
437e: 70 3f 4a aa  LHLD    $AA4A
4382: a7           DMOV    EA,HL
4383: a3           POP     HL
4384: 74 ff        DEQ     EA,HL
4386: c4           JR      $438B
4387: 70 3f 4c aa  LHLD    $AA4C
438b: 33           DCX     HL
438c: b8           RET     
438d: 32           INX     HL
438e: b3           PUSH    HL
438f: 70 3f 4c aa  LHLD    $AA4C
4393: a7           DMOV    EA,HL
4394: a3           POP     HL
4395: 74 ef        DNE     EA,HL
4397: 70 3f 4a aa  LHLD    $AA4A
439b: b8           RET     
439c: b3           PUSH    HL
439d: 75 15 02     EQIW    VV:15,$02
43a0: c2           JR      $43A3
43a1: 80           CALT    ($0080)
43a2: fa           JR      $439D
43a3: 70 3f a1 aa  LHLD    $AAA1
43a7: 0b           MOV     A,C
43a8: 16 ff        XRI     A,$FF
43aa: 3d           STAX    (HL+)
43ab: 0a           MOV     A,B
43ac: 66 02        SUI     A,$02
43ae: 16 01        XRI     A,$01
43b0: 3b           STAX    (HL)
43b1: 0f           MOV     A,L
43b2: 46 01        ADI     A,$01
43b4: 47 7f        ONI     A,$7F
43b6: 20 15        INRW    VV:15
43b8: 1f           MOV     L,A
43b9: 70 3e a1 aa  SHLD    $AAA1
43bd: a3           POP     HL
43be: b8           RET     
43bf: 70 69 7f aa  MOV     A,($AA7F)
43c3: 41           INR     A
43c4: 77 1c        EQI     A,$1C
43c6: c3           JR      $43CA
43c7: 91           CALT    ($00A2)
43c8: 69 00        MVI     A,$00
43ca: 70 79 7f aa  MOV     ($AA7F),A
43ce: b8           RET     
43cf: 58 49        BIT     0,VV:49
43d1: 40 d5 3a     CALL    $3AD5
43d4: 54 86 01     JMP     $0186
43d7: 70 2f d3 a8  LDED    $A8D3
43db: 50           EXH     
43dc: ee           JR      $43CB
43dd: 88           CALT    ($0090)
43de: 54 41 1e     JMP     $1E41
43e1: 4b 09        MVIX    HL,$09
43e3: 54 46 44     JMP     $4446
43e6: 5b ee        BIT     3,VV:EE
43e8: 24 ce a8     LXI     DE,$A8CE
43eb: b8           RET     
43ec: 5b ce        BIT     3,VV:CE
43ee: 00           NOP     
43ef: 00           NOP     
43f0: 58 ee        BIT     0,VV:EE
43f2: 40 2a 16     CALL    $162A
43f5: b8           RET     
43f6: 70 69 d5 a8  MOV     A,($A8D5)
43fa: 77 00        EQI     A,$00
43fc: 5d ee        BIT     5,VV:EE
43fe: c5           JR      $4404
43ff: 51           DCR     A
4400: 70 79 d5 a8  MOV     ($A8D5),A
4404: 40 3b 20     CALL    $203B
4407: b8           RET     
4408: 5d ee        BIT     5,VV:EE
440a: ce           JR      $4419
440b: 44 20 01     LXI     EA,$0120
440e: 70 2f dc a8  LDED    $A8DC
4412: 74 e6        DSUB    EA,DE
4414: b6           DMOV    DE,EA
4415: 70 2e 8c aa  SDED    $AA8C
4419: 58 ce        BIT     0,VV:CE
441b: 4b 09        MVIX    HL,$09
441d: b8           RET     
441e: 5f 43        BIT     7,VV:43
4420: 5c ee        BIT     4,VV:EE
4422: 48 1a        SKN     CY
4424: 67 00        NEI     A,$00
4426: b8           RET     
4427: b9           RETS    
4428: 45 02 07     ONIW    VV:02,$07
442b: 3b           STAX    (HL)
442c: b8           RET     
442d: 4c ce        illegal 
442f: 70 79 02 ff  MOV     ($FF02),A
4433: 34 a5 00     LXI     HL,$00A5
4436: 54 d4 00     JMP     $00D4
4439: 70 69 02 ff  MOV     A,($FF02)
443d: 6a 00        MVI     B,$00
443f: 70 7a 02 ff  MOV     ($FF02),B
4443: 07 0f        ANI     A,$0F
4445: b8           RET     
4446: 24 40 02     LXI     DE,$0240
4449: 70 2e d3 a8  SDED    $A8D3
444d: 54 d8 1d     JMP     $1DD8
4450: 70 3f 50 aa  LHLD    $AA50
4454: 0b           MOV     A,C
4455: 60 9a        ORA     A,B
4457: 67 00        NEI     A,$00
4459: b8           RET     
445a: 8e           CALT    ($009C)
445b: 13           DCX     BC
445c: 13           DCX     BC
445d: a6           DMOV    EA,DE
445e: 24 07 00     LXI     DE,$0007
4461: 74 e6        DSUB    EA,DE
4463: 24 f9 df     LXI     DE,$DFF9
4466: 74 ae        DGT     EA,DE
4468: b9           RETS    
4469: ea           JR      $4454
446a: 45 09 0f     ONIW    VV:09,$0F
446d: 5d 63        BIT     5,VV:63
446f: 54 97 0a     JMP     $0A97
4472: 5d a3        BIT     5,VV:A3
4474: b8           RET     
4475: 54 9b 0a     JMP     $0A9B
4478: ff           JR      $4478
4479: ff           JR      $4479
447a: ff           JR      $447A
447b: ff           JR      $447B
447c: ff           JR      $447C
447d: ff           JR      $447D
447e: ff           JR      $447E
447f: ff           JR      $447F
4480: 00           NOP     
4481: 40 3b 80     CALL    $803B
4484: 70 00        illegal 
4486: 01 40        LDAW    VV:40
4488: 4a 80        MVIX    DE,$80
448a: 60 00        illegal 
448c: 02           INX     SP
448d: 40 52 80     CALL    $8052
4490: 50           EXH     
4491: 00           NOP     
4492: 03           DCX     SP
4493: 40 63 80     CALL    $8063
4496: 50           EXH     
4497: 00           NOP     
4498: 03           DCX     SP
4499: 30 72        DCRW    VV:72
449b: 80           CALT    ($0080)
449c: 40 00 04     CALL    $0400
449f: 40 7c 80     CALL    $807C
44a2: 40 00 04     CALL    $0400
44a5: 31           BLOCK   
44a6: 8e           CALT    ($009C)
44a7: 80           CALT    ($0080)
44a8: 40 00 04     CALL    $0400
44ab: 2c           LDAX    (DE+)
44ac: 95           CALT    ($00AA)
44ad: 80           CALT    ($0080)
44ae: 40 00 05     CALL    $0500
44b1: 40 a5 80     CALL    $80A5
44b4: 42           INR     B
44b5: 00           NOP     
44b6: 05 2c c7     ANIW    VV:2C,$C7
44b9: 80           CALT    ($0080)
44ba: 42           INR     B
44bb: 00           NOP     
44bc: 06           illegal 
44bd: 3d           STAX    (HL+)
44be: e4           JR      $44A3
44bf: 80           CALT    ($0080)
44c0: 42           INR     B
44c1: 00           NOP     
44c2: 06           illegal 
44c3: 33           DCX     HL
44c4: f8           JR      $44BD
44c5: 80           CALT    ($0080)
44c6: 42           INR     B
44c7: 00           NOP     
44c8: 07 40        ANI     A,$40
44ca: 2a           LDAX    (DE)
44cb: 81           CALT    ($0082)
44cc: 42           INR     B
44cd: 00           NOP     
44ce: 07 40        ANI     A,$40
44d0: 2a           LDAX    (DE)
44d1: 81           CALT    ($0082)
44d2: 42           INR     B
44d3: 00           NOP     
44d4: 07 34        ANI     A,$34
44d6: 4b 81        MVIX    HL,$81
44d8: 42           INR     B
44d9: 00           NOP     
44da: 07 1f        ANI     A,$1F
44dc: aa           EI      
44dd: 81           CALT    ($0082)
44de: 42           INR     B
44df: 00           NOP     
44e0: 07 17        ANI     A,$17
44e2: f1           JR      $44D4
44e3: 81           CALT    ($0082)
44e4: 42           INR     B
44e5: 00           NOP     
44e6: 07 17        ANI     A,$17
44e8: f1           JR      $44DA
44e9: 81           CALT    ($0082)
44ea: 42           INR     B
44eb: 00           NOP     
44ec: 07 10        ANI     A,$10
44ee: 54 82 42     JMP     $4282
44f1: 00           NOP     
44f2: 07 10        ANI     A,$10
44f4: 54 82 42     JMP     $4282
44f7: 00           NOP     
44f8: 07 0b        ANI     A,$0B
44fa: ea           JR      $44E5
44fb: 82           CALT    ($0084)
44fc: 42           INR     B
44fd: 00           NOP     
44fe: ff           JR      $44FE
44ff: ff           JR      $44FF
4500: 24 24 24     LXI     DE,$2424
4503: 24 24 24     LXI     DE,$2424
4506: 24 24 1e     LXI     DE,$1E24
4509: 1e           MOV     H,A
450a: 1e           MOV     H,A
450b: 1e           MOV     H,A
450c: 1e           MOV     H,A
450d: 1e           MOV     H,A
450e: 1e           MOV     H,A
450f: 1e           MOV     H,A
4510: 16 15        XRI     A,$15
4512: 15 15 15     ORIW    VV:15,$15
4515: 15 15 15     ORIW    VV:15,$15
4518: 12           INX     BC
4519: 12           INX     BC
451a: 12           INX     BC
451b: 12           INX     BC
451c: 12           INX     BC
451d: 12           INX     BC
451e: 12           INX     BC
451f: 12           INX     BC
4520: 28           illegal 
4521: 28           illegal 
4522: 28           illegal 
4523: 28           illegal 
4524: 28           illegal 
4525: 28           illegal 
4526: 28           illegal 
4527: 28           illegal 
4528: 1b           MOV     C,A
4529: 1b           MOV     C,A
452a: 1b           MOV     C,A
452b: 1b           MOV     C,A
452c: 1b           MOV     C,A
452d: 1b           MOV     C,A
452e: 1b           MOV     C,A
452f: 1a           MOV     B,A
4530: 18           MOV     EAH,A
4531: 18           MOV     EAH,A
4532: 18           MOV     EAH,A
4533: 18           MOV     EAH,A
4534: 18           MOV     EAH,A
4535: 18           MOV     EAH,A
4536: 18           MOV     EAH,A
4537: 18           MOV     EAH,A
4538: 14 14 14     LXI     BC,$1414
453b: 14 14 14     LXI     BC,$1414
453e: 14 14 19     LXI     BC,$1914
4541: 14 12 13     LXI     BC,$1312
4544: 0f           MOV     A,L
4545: 11           EXX     
4546: 12           INX     BC
4547: 0e           MOV     A,H
4548: 15 10 10     ORIW    VV:10,$10
454b: 13           DCX     BC
454c: 0e           MOV     A,H
454d: 12           INX     BC
454e: 10           EXA     
454f: 02           INX     SP
4550: 0f           MOV     A,L
4551: 10           EXA     
4552: 05 0b 12     ANIW    VV:0B,$12
4555: 13           DCX     BC
4556: 08           MOV     A,EAH
4557: 10           EXA     
4558: 0d           MOV     A,E
4559: 0e           MOV     A,H
455a: 0e           MOV     A,H
455b: 09           MOV     A,EAL
455c: 00           NOP     
455d: 05 06 16     ANIW    VV:06,$16
4560: 15 0f 12     ORIW    VV:0F,$12
4563: 03           DCX     SP
4564: 07 07        ANI     A,$07
4566: 0e           MOV     A,H
4567: 09           MOV     A,EAL
4568: 06           illegal 
4569: 06           illegal 
456a: 04 07 10     LXI     SP,$1007
456d: 0a           MOV     A,B
456e: 11           EXX     
456f: 11           EXX     
4570: 10           EXA     
4571: 14 0f 0c     LXI     BC,$0C0F
4574: 14 0f 08     LXI     BC,$080F
4577: 0a           MOV     A,B
4578: 07 0e        ANI     A,$0E
457a: 07 0b        ANI     A,$0B
457c: 14 12 17     LXI     BC,$1712
457f: 0f           MOV     A,L
4580: 12           INX     BC
4581: 15 10 13     ORIW    VV:10,$13
4584: 12           INX     BC
4585: 0b           MOV     A,C
4586: 0d           MOV     A,E
4587: 0f           MOV     A,L
4588: 0c           MOV     A,D
4589: 13           DCX     BC
458a: 13           DCX     BC
458b: 12           INX     BC
458c: 11           EXX     
458d: 13           DCX     BC
458e: 14 12 0d     LXI     BC,$0D12
4591: 10           EXA     
4592: 0d           MOV     A,E
4593: 12           INX     BC
4594: 0d           MOV     A,E
4595: 0a           MOV     A,B
4596: 0f           MOV     A,L
4597: 0b           MOV     A,C
4598: 07 0b        ANI     A,$0B
459a: 03           DCX     SP
459b: 08           MOV     A,EAH
459c: 03           DCX     SP
459d: 0e           MOV     A,H
459e: 12           INX     BC
459f: 0b           MOV     A,C
45a0: 12           INX     BC
45a1: 0e           MOV     A,H
45a2: 0c           MOV     A,D
45a3: 14 0e 06     LXI     BC,$060E
45a6: 09           MOV     A,EAL
45a7: 0e           MOV     A,H
45a8: 08           MOV     A,EAH
45a9: 12           INX     BC
45aa: 0c           MOV     A,D
45ab: 0e           MOV     A,H
45ac: 10           EXA     
45ad: 10           EXA     
45ae: 09           MOV     A,EAL
45af: 0e           MOV     A,H
45b0: 0b           MOV     A,C
45b1: 0c           MOV     A,D
45b2: 09           MOV     A,EAL
45b3: 0e           MOV     A,H
45b4: 09           MOV     A,EAL
45b5: 09           MOV     A,EAL
45b6: 0d           MOV     A,E
45b7: 09           MOV     A,EAL
45b8: 07 09        ANI     A,$09
45ba: 06           illegal 
45bb: 00           NOP     
45bc: 23           DCX     DE
45bd: 13           DCX     BC
45be: 10           EXA     
45bf: 19           MOV     EAL,A
45c0: 08           MOV     A,EAH
45c1: 2f           LDAX    (HL-)
45c2: 1d           MOV     E,A
45c3: 0e           MOV     A,H
45c4: 0d           MOV     A,E
45c5: 03           DCX     SP
45c6: 0e           MOV     A,H
45c7: 0e           MOV     A,H
45c8: 07 12        ANI     A,$12
45ca: 38           illegal 
45cb: 1a           MOV     B,A
45cc: 1a           MOV     B,A
45cd: 16 16        XRI     A,$16
45cf: 07 0e        ANI     A,$0E
45d1: 0d           MOV     A,E
45d2: 1c           MOV     D,A
45d3: 1c           MOV     D,A
45d4: 11           EXX     
45d5: 10           EXA     
45d6: 08           MOV     A,EAH
45d7: 19           MOV     EAL,A
45d8: 0e           MOV     A,H
45d9: 14 18 08     LXI     BC,$0818
45dc: 18           MOV     EAH,A
45dd: 14 0e 12     LXI     BC,$120E
45e0: 1b           MOV     C,A
45e1: 12           INX     BC
45e2: 10           EXA     
45e3: 14 ff ff     LXI     BC,$FFFF
45e6: ff           JR      $45E6
45e7: ff           JR      $45E7
45e8: ff           JR      $45E8
45e9: ff           JR      $45E9
45ea: ff           JR      $45EA
45eb: ff           JR      $45EB
45ec: ff           JR      $45EC
45ed: ff           JR      $45ED
45ee: ff           JR      $45EE
45ef: ff           JR      $45EF
45f0: ff           JR      $45F0
45f1: ff           JR      $45F1
45f2: ff           JR      $45F2
45f3: ff           JR      $45F3
45f4: ff           JR      $45F4
45f5: ff           JR      $45F5
45f6: ff           JR      $45F6
45f7: ff           JR      $45F7
45f8: ff           JR      $45F8
45f9: ff           JR      $45F9
45fa: ff           JR      $45FA
45fb: ff           JR      $45FB
45fc: ff           JR      $45FC
45fd: ff           JR      $45FD
45fe: ff           JR      $45FE
45ff: ff           JR      $45FF
4600: 12           INX     BC
4601: 12           INX     BC
4602: 12           INX     BC
4603: 12           INX     BC
4604: 12           INX     BC
4605: 12           INX     BC
4606: 12           INX     BC
4607: 12           INX     BC
4608: 12           INX     BC
4609: 12           INX     BC
460a: 12           INX     BC
460b: 12           INX     BC
460c: 12           INX     BC
460d: 12           INX     BC
460e: 12           INX     BC
460f: 12           INX     BC
4610: 0f           MOV     A,L
4611: 0f           MOV     A,L
4612: 0f           MOV     A,L
4613: 0f           MOV     A,L
4614: 0f           MOV     A,L
4615: 0f           MOV     A,L
4616: 0f           MOV     A,L
4617: 0f           MOV     A,L
4618: 0f           MOV     A,L
4619: 0f           MOV     A,L
461a: 0f           MOV     A,L
461b: 0f           MOV     A,L
461c: 0f           MOV     A,L
461d: 0f           MOV     A,L
461e: 0f           MOV     A,L
461f: 0f           MOV     A,L
4620: 0b           MOV     A,C
4621: 0b           MOV     A,C
4622: 0b           MOV     A,C
4623: 0a           MOV     A,B
4624: 0b           MOV     A,C
4625: 0a           MOV     A,B
4626: 0b           MOV     A,C
4627: 0a           MOV     A,B
4628: 0b           MOV     A,C
4629: 0a           MOV     A,B
462a: 0b           MOV     A,C
462b: 0a           MOV     A,B
462c: 0b           MOV     A,C
462d: 0a           MOV     A,B
462e: 0b           MOV     A,C
462f: 0a           MOV     A,B
4630: 09           MOV     A,EAL
4631: 09           MOV     A,EAL
4632: 09           MOV     A,EAL
4633: 09           MOV     A,EAL
4634: 09           MOV     A,EAL
4635: 09           MOV     A,EAL
4636: 09           MOV     A,EAL
4637: 09           MOV     A,EAL
4638: 09           MOV     A,EAL
4639: 09           MOV     A,EAL
463a: 09           MOV     A,EAL
463b: 09           MOV     A,EAL
463c: 09           MOV     A,EAL
463d: 09           MOV     A,EAL
463e: 09           MOV     A,EAL
463f: 09           MOV     A,EAL
4640: 14 14 14     LXI     BC,$1414
4643: 14 14 14     LXI     BC,$1414
4646: 14 14 14     LXI     BC,$1414
4649: 14 14 14     LXI     BC,$1414
464c: 14 14 14     LXI     BC,$1414
464f: 14 0e 0d     LXI     BC,$0D0E
4652: 0e           MOV     A,H
4653: 0d           MOV     A,E
4654: 0e           MOV     A,H
4655: 0d           MOV     A,E
4656: 0e           MOV     A,H
4657: 0d           MOV     A,E
4658: 0e           MOV     A,H
4659: 0d           MOV     A,E
465a: 0e           MOV     A,H
465b: 0d           MOV     A,E
465c: 0e           MOV     A,H
465d: 0d           MOV     A,E
465e: 0d           MOV     A,E
465f: 0d           MOV     A,E
4660: 0c           MOV     A,D
4661: 0c           MOV     A,D
4662: 0c           MOV     A,D
4663: 0c           MOV     A,D
4664: 0c           MOV     A,D
4665: 0c           MOV     A,D
4666: 0c           MOV     A,D
4667: 0c           MOV     A,D
4668: 0c           MOV     A,D
4669: 0c           MOV     A,D
466a: 0c           MOV     A,D
466b: 0c           MOV     A,D
466c: 0c           MOV     A,D
466d: 0c           MOV     A,D
466e: 0c           MOV     A,D
466f: 0c           MOV     A,D
4670: 0a           MOV     A,B
4671: 0a           MOV     A,B
4672: 0a           MOV     A,B
4673: 0a           MOV     A,B
4674: 0a           MOV     A,B
4675: 0a           MOV     A,B
4676: 0a           MOV     A,B
4677: 0a           MOV     A,B
4678: 0a           MOV     A,B
4679: 0a           MOV     A,B
467a: 0a           MOV     A,B
467b: 0a           MOV     A,B
467c: 0a           MOV     A,B
467d: 0a           MOV     A,B
467e: 0a           MOV     A,B
467f: 0a           MOV     A,B
4680: 88           CALT    ($0090)
4681: 13           DCX     BC
4682: 94           CALT    ($00A8)
4683: 16 ea        XRI     A,$EA
4685: 10           EXA     
4686: 8e           CALT    ($009C)
4687: 0d           MOV     A,E
4688: 4a 0b        MVIX    DE,$0B
468a: b0           PUSH    VA
468b: 09           MOV     A,EAL
468c: 7a 08        CALF    $0A08
468e: cc           JR      $469B
468f: 06           illegal 
4690: cc           JR      $469D
4691: 06           illegal 
4692: cc           JR      $469F
4693: 06           illegal 
4694: cc           JR      $46A1
4695: 06           illegal 
4696: 02           INX     SP
4697: 03           DCX     SP
4698: 06           illegal 
4699: 08           MOV     A,EAH
469a: 01 04        LDAW    VV:04
469c: 05 07 08     ANIW    VV:07,$08
469f: 09           MOV     A,EAL
46a0: 0c           MOV     A,D
46a1: 0e           MOV     A,H
46a2: 07 0a        ANI     A,$0A
46a4: 0b           MOV     A,C
46a5: 0d           MOV     A,E
46a6: 08           MOV     A,EAH
46a7: 09           MOV     A,EAL
46a8: 0c           MOV     A,D
46a9: 0e           MOV     A,H
46aa: 07 0a        ANI     A,$0A
46ac: 0b           MOV     A,C
46ad: 0d           MOV     A,E
46ae: 0e           MOV     A,H
46af: 0f           MOV     A,L
46b0: 12           INX     BC
46b1: 14 0d 10     LXI     BC,$100D
46b4: 11           EXX     
46b5: 13           DCX     BC
46b6: 00           NOP     
46b7: 01 04        LDAW    VV:04
46b9: 08           MOV     A,EAH
46ba: 00           NOP     
46bb: 03           DCX     SP
46bc: 03           DCX     SP
46bd: 07 20        ANI     A,$20
46bf: 01 f0        LDAW    VV:F0
46c1: 00           NOP     
46c2: a9           DCX     EA
46c3: 00           NOP     
46c4: 90           CALT    ($00A0)
46c5: 00           NOP     
46c6: 40 01 d7     CALL    $D701
46c9: 00           NOP     
46ca: c0           JR      $46CB
46cb: 00           NOP     
46cc: a0           POP     VA
46cd: 00           NOP     
46ce: 7f 02        CALF    $0F02
46d0: ff           JR      $46D0
46d1: 02           INX     SP
46d2: 3f           STAX    (HL-)
46d3: 04 ff 04     LXI     SP,$04FF
46d6: 3f           STAX    (HL-)
46d7: 02           INX     SP
46d8: 57 03        OFFI    A,$03
46da: bf 03        STAX    (HL+$03)
46dc: 7f 04        CALF    $0F04
46de: bf 03        STAX    (HL+$03)
46e0: 7f 04        CALF    $0F04
46e2: 5f 06        BIT     7,VV:06
46e4: ff           JR      $46E4
46e5: 04 5f 03     LXI     SP,$035F
46e8: 03           DCX     SP
46e9: 05 9f 05     ANIW    VV:9F,$05
46ec: 7f 04        CALF    $0F04
46ee: ff           JR      $46EE
46ef: ff           JR      $46EF
46f0: ff           JR      $46F0
46f1: ff           JR      $46F1
46f2: ff           JR      $46F2
46f3: ff           JR      $46F3
46f4: ff           JR      $46F4
46f5: ff           JR      $46F5
46f6: ff           JR      $46F6
46f7: ff           JR      $46F7
46f8: ff           JR      $46F8
46f9: ff           JR      $46F9
46fa: ff           JR      $46FA
46fb: ff           JR      $46FB
46fc: ff           JR      $46FC
46fd: ff           JR      $46FD
46fe: ff           JR      $46FE
46ff: ff           JR      $46FF
4700: 00           NOP     
4701: 01 02        LDAW    VV:02
4703: 03           DCX     SP
4704: 03           DCX     SP
4705: 04 04 04     LXI     SP,$0404
4708: 05 05 06     ANIW    VV:05,$06
470b: 06           illegal 
470c: 07 07        ANI     A,$07
470e: 07 07        ANI     A,$07
4710: 07 07        ANI     A,$07
4712: 07 07        ANI     A,$07
4714: 07 00        ANI     A,$00
4716: 02           INX     SP
4717: 01 00        LDAW    VV:00
4719: 03           DCX     SP
471a: 02           INX     SP
471b: 00           NOP     
471c: 04 03 00     LXI     SP,$0003
471f: 05 04 00     ANIW    VV:04,$00
4722: 06           illegal 
4723: 06           illegal 
4724: 00           NOP     
4725: 07 07        ANI     A,$07
4727: 00           NOP     
4728: 08           MOV     A,EAH
4729: 08           MOV     A,EAH
472a: 00           NOP     
472b: 09           MOV     A,EAL
472c: 09           MOV     A,EAL
472d: 00           NOP     
472e: 0a           MOV     A,B
472f: 0a           MOV     A,B
4730: 00           NOP     
4731: 0b           MOV     A,C
4732: 0b           MOV     A,C
4733: 00           NOP     
4734: 0c           MOV     A,D
4735: 0c           MOV     A,D
4736: 00           NOP     
4737: 0d           MOV     A,E
4738: 0d           MOV     A,E
4739: 00           NOP     
473a: 0f           MOV     A,L
473b: 0f           MOV     A,L
473c: 00           NOP     
473d: 11           EXX     
473e: 11           EXX     
473f: 00           NOP     
4740: 14 14 00     LXI     BC,$0014
4743: 19           MOV     EAL,A
4744: 19           MOV     EAL,A
4745: 00           NOP     
4746: 1e           MOV     H,A
4747: 1e           MOV     H,A
4748: 00           NOP     
4749: 28           illegal 
474a: 28           illegal 
474b: 00           NOP     
474c: 3c           STAX    (DE+)
474d: 32           INX     HL
474e: ff           JR      $474E
474f: ff           JR      $474F
4750: 3c           STAX    (DE+)
4751: 01 96        LDAW    VV:96
4753: 92           CALT    ($00A4)
4754: 8c           CALT    ($0098)
4755: 87           CALT    ($008E)
4756: 86           CALT    ($008C)
4757: 02           INX     SP
4758: 04 85 9c     LXI     SP,$9C85
475b: 98           CALT    ($00B0)
475c: 92           CALT    ($00A4)
475d: 8d           CALT    ($009A)
475e: 8c           CALT    ($0098)
475f: 84           CALT    ($0088)
4760: 82           CALT    ($0084)
4761: 8a           CALT    ($0094)
4762: a1           POP     BC
4763: 9d           CALT    ($00BA)
4764: 97           CALT    ($00AE)
4765: 92           CALT    ($00A4)
4766: 91           CALT    ($00A2)
4767: 89           CALT    ($0092)
4768: 87           CALT    ($008E)
4769: 90           CALT    ($00A0)
476a: a7           DMOV    EA,HL
476b: a3           POP     HL
476c: 9d           CALT    ($00BA)
476d: 98           CALT    ($00B0)
476e: 97           CALT    ($00AE)
476f: 8f           CALT    ($009E)
4770: 8d           CALT    ($009A)
4771: bb 83        STAX    (DE+$83)
4773: 8b           CALT    ($0096)
4774: 81           CALT    ($0082)
4775: 2f           LDAX    (HL-)
4776: 81           CALT    ($0082)
4777: 00           NOP     
4778: 81           CALT    ($0082)
4779: e1           JR      $475B
477a: 80           CALT    ($0080)
477b: cb           JR      $4787
477c: 80           CALT    ($0080)
477d: bb 80        STAX    (DE+$80)
477f: ae           LDAX    (HL+EA)
4780: 80           CALT    ($0080)
4781: a3           POP     HL
4782: 80           CALT    ($0080)
4783: 9b           CALT    ($00B6)
4784: 80           CALT    ($0080)
4785: 93           CALT    ($00A6)
4786: 80           CALT    ($0080)
4787: 8c           CALT    ($0098)
4788: 80           CALT    ($0080)
4789: 87           CALT    ($008E)
478a: 80           CALT    ($0080)
478b: 82           CALT    ($0084)
478c: 80           CALT    ($0080)
478d: 7d 80        CALF    $0D80
478f: 79 80        CALF    $0980
4791: 75 80 72     EQIW    VV:80,$72
4794: 80           CALT    ($0080)
4795: 6f 80        MVI     L,$80
4797: 6c 80        MVI     D,$80
4799: 69 80        MVI     A,$80
479b: 67 80        NEI     A,$80
479d: 64 80 62     MVI     ANM,$62
47a0: 80           CALT    ($0080)
47a1: 60 80        illegal 
47a3: 5e 80        BIT     6,VV:80
47a5: 5c 80        BIT     4,VV:80
47a7: 5b 80        BIT     3,VV:80
47a9: 59 80        BIT     1,VV:80
47ab: 57 80        OFFI    A,$80
47ad: 56 80        ACI     A,$80
47af: 55 80 53     OFFIW   VV:80,$53
47b2: 80           CALT    ($0080)
47b3: 52           DCR     B
47b4: 80           CALT    ($0080)
47b5: 51           DCR     A
47b6: 80           CALT    ($0080)
47b7: 50           EXH     
47b8: 80           CALT    ($0080)
47b9: 4f 80        JRE     $473B
47bb: 4e 80        JRE     $483D
47bd: 4d 80        illegal 
47bf: 4c 80        illegal 
47c1: 4b 80        MVIX    HL,$80
47c3: 4a 80        MVIX    DE,$80
47c5: 49 80        MVIX    BC,$80
47c7: 48 80        illegal 
47c9: 47 80        ONI     A,$80
47cb: 46 80        ADI     A,$80
47cd: 46 80        ADI     A,$80
47cf: 45 80 44     ONIW    VV:80,$44
47d2: 80           CALT    ($0080)
47d3: 43           INR     C
47d4: 80           CALT    ($0080)
47d5: 43           INR     C
47d6: 80           CALT    ($0080)
47d7: 42           INR     B
47d8: 80           CALT    ($0080)
47d9: 41           INR     A
47da: 80           CALT    ($0080)
47db: 41           INR     A
47dc: 80           CALT    ($0080)
47dd: 40 80 40     CALL    $4080
47e0: 80           CALT    ($0080)
47e1: 3f           STAX    (HL-)
47e2: 80           CALT    ($0080)
47e3: 3f           STAX    (HL-)
47e4: 80           CALT    ($0080)
47e5: 3e           STAX    (DE-)
47e6: 80           CALT    ($0080)
47e7: 3d           STAX    (HL+)
47e8: 80           CALT    ($0080)
47e9: 3d           STAX    (HL+)
47ea: 80           CALT    ($0080)
47eb: 3c           STAX    (DE+)
47ec: 80           CALT    ($0080)
47ed: 3c           STAX    (DE+)
47ee: 80           CALT    ($0080)
47ef: 3b           STAX    (HL)
47f0: 80           CALT    ($0080)
47f1: aa           EI      
47f2: 84           CALT    ($0088)
47f3: ee           JR      $47E2
47f4: 81           CALT    ($0082)
47f5: 7b 81        CALF    $0B81
47f7: 40 81 19     CALL    $1981
47fa: 81           CALT    ($0082)
47fb: fe           JR      $47FA
47fc: 80           CALT    ($0080)
47fd: ea           JR      $47E8
47fe: 80           CALT    ($0080)
47ff: da           JR      $481A
4800: 80           CALT    ($0080)
4801: cc           JR      $480E
4802: 80           CALT    ($0080)
4803: c1           JR      $4805
4804: 80           CALT    ($0080)
4805: b8           RET     
4806: 80           CALT    ($0080)
4807: b0           PUSH    VA
4808: 80           CALT    ($0080)
4809: a8           INX     EA
480a: 80           CALT    ($0080)
480b: a2           POP     DE
480c: 80           CALT    ($0080)
480d: 9c           CALT    ($00B8)
480e: 80           CALT    ($0080)
480f: 97           CALT    ($00AE)
4810: 80           CALT    ($0080)
4811: 93           CALT    ($00A6)
4812: 80           CALT    ($0080)
4813: 8e           CALT    ($009C)
4814: 80           CALT    ($0080)
4815: 8a           CALT    ($0094)
4816: 80           CALT    ($0080)
4817: 87           CALT    ($008E)
4818: 80           CALT    ($0080)
4819: 83           CALT    ($0086)
481a: 80           CALT    ($0080)
481b: 80           CALT    ($0080)
481c: 80           CALT    ($0080)
481d: 7d 80        CALF    $0D80
481f: 7b 80        CALF    $0B80
4821: 78 80        CALF    $0880
4823: 76 80        SBI     A,$80
4825: 74 80        illegal 
4827: 71 80 6f     MVIW    VV:80,$6F
482a: 80           CALT    ($0080)
482b: 6d 80        MVI     E,$80
482d: 6c 80        MVI     D,$80
482f: 6a 80        MVI     B,$80
4831: 68 80        MVI     V,$80
4833: 67 80        NEI     A,$80
4835: 65 80 64     NEIW    VV:80,$64
4838: 80           CALT    ($0080)
4839: 62           RETI    
483a: 80           CALT    ($0080)
483b: 61           DAA     
483c: 80           CALT    ($0080)
483d: 60 80        illegal 
483f: 5f 80        BIT     7,VV:80
4841: 5d 80        BIT     5,VV:80
4843: 5c 80        BIT     4,VV:80
4845: 5b 80        BIT     3,VV:80
4847: 5a 80        BIT     2,VV:80
4849: 59 80        BIT     1,VV:80
484b: 58 80        BIT     0,VV:80
484d: 57 80        OFFI    A,$80
484f: 56 80        ACI     A,$80
4851: 55 80 54     OFFIW   VV:80,$54
4854: 80           CALT    ($0080)
4855: 54 80 53     JMP     $5380
4858: 80           CALT    ($0080)
4859: 52           DCR     B
485a: 80           CALT    ($0080)
485b: 51           DCR     A
485c: 80           CALT    ($0080)
485d: 50           EXH     
485e: 80           CALT    ($0080)
485f: 50           EXH     
4860: 80           CALT    ($0080)
4861: 4f 80        JRE     $47E3
4863: 4e 80        JRE     $48E5
4865: 4e 80        JRE     $48E7
4867: 4d 80        illegal 
4869: 4c 80        illegal 
486b: 4c 80        illegal 
486d: 4b 80        MVIX    HL,$80
486f: 4a 80        MVIX    DE,$80
4871: 2f           LDAX    (HL-)
4872: 85           CALT    ($008A)
4873: 25 82 a5     GTIW    VV:82,$A5
4876: 81           CALT    ($0082)
4877: 63 81        STAW    VV:81
4879: 39           STAX    (BC)
487a: 81           CALT    ($0082)
487b: 1b           MOV     C,A
487c: 81           CALT    ($0082)
487d: 04 81 f2     LXI     SP,$F281
4880: 80           CALT    ($0080)
4881: e3           JR      $4865
4882: 80           CALT    ($0080)
4883: d7           JR      $489B
4884: 80           CALT    ($0080)
4885: cc           JR      $4892
4886: 80           CALT    ($0080)
4887: c3           JR      $488B
4888: 80           CALT    ($0080)
4889: bb 80        STAX    (DE+$80)
488b: b4           PUSH    EA
488c: 80           CALT    ($0080)
488d: ae           LDAX    (HL+EA)
488e: 80           CALT    ($0080)
488f: a8           INX     EA
4890: 80           CALT    ($0080)
4891: a3           POP     HL
4892: 80           CALT    ($0080)
4893: 9e           CALT    ($00BC)
4894: 80           CALT    ($0080)
4895: 9a           CALT    ($00B4)
4896: 80           CALT    ($0080)
4897: 96           CALT    ($00AC)
4898: 80           CALT    ($0080)
4899: 92           CALT    ($00A4)
489a: 80           CALT    ($0080)
489b: 8f           CALT    ($009E)
489c: 80           CALT    ($0080)
489d: 8b           CALT    ($0096)
489e: 80           CALT    ($0080)
489f: 88           CALT    ($0090)
48a0: 80           CALT    ($0080)
48a1: 86           CALT    ($008C)
48a2: 80           CALT    ($0080)
48a3: 83           CALT    ($0086)
48a4: 80           CALT    ($0080)
48a5: 80           CALT    ($0080)
48a6: 80           CALT    ($0080)
48a7: 7e 80        CALF    $0E80
48a9: 7c 80        CALF    $0C80
48ab: 7a 80        CALF    $0A80
48ad: 78 80        CALF    $0880
48af: 76 80        SBI     A,$80
48b1: 74 80        illegal 
48b3: 72           SOFTI   
48b4: 80           CALT    ($0080)
48b5: 70 80        illegal 
48b7: 6f 80        MVI     L,$80
48b9: 6d 80        MVI     E,$80
48bb: 6c 80        MVI     D,$80
48bd: 6a 80        MVI     B,$80
48bf: 69 80        MVI     A,$80
48c1: 68 80        MVI     V,$80
48c3: 67 80        NEI     A,$80
48c5: 65 80 64     NEIW    VV:80,$64
48c8: 80           CALT    ($0080)
48c9: 63 80        STAW    VV:80
48cb: 62           RETI    
48cc: 80           CALT    ($0080)
48cd: 61           DAA     
48ce: 80           CALT    ($0080)
48cf: 60 80        illegal 
48d1: 5f 80        BIT     7,VV:80
48d3: 5e 80        BIT     6,VV:80
48d5: 5d 80        BIT     5,VV:80
48d7: 5c 80        BIT     4,VV:80
48d9: 5b 80        BIT     3,VV:80
48db: 5a 80        BIT     2,VV:80
48dd: 59 80        BIT     1,VV:80
48df: 59 80        BIT     1,VV:80
48e1: 58 80        BIT     0,VV:80
48e3: 57 80        OFFI    A,$80
48e5: 56 80        ACI     A,$80
48e7: 56 80        ACI     A,$80
48e9: 55 80 54     OFFIW   VV:80,$54
48ec: 80           CALT    ($0080)
48ed: 53           DCR     C
48ee: 80           CALT    ($0080)
48ef: 53           DCR     C
48f0: 80           CALT    ($0080)
48f1: 38           illegal 
48f2: 86           CALT    ($008C)
48f3: 93           CALT    ($00A6)
48f4: 82           CALT    ($0084)
48f5: fa           JR      $48F0
48f6: 81           CALT    ($0082)
48f7: aa           EI      
48f8: 81           CALT    ($0082)
48f9: 77 81        EQI     A,$81
48fb: 53           DCR     C
48fc: 81           CALT    ($0082)
48fd: 38           illegal 
48fe: 81           CALT    ($0082)
48ff: 22           INX     DE
4900: 81           CALT    ($0082)
4901: 11           EXX     
4902: 81           CALT    ($0082)
4903: 02           INX     SP
4904: 81           CALT    ($0082)
4905: f5           JR      $48FB
4906: 80           CALT    ($0080)
4907: ea           JR      $48F2
4908: 80           CALT    ($0080)
4909: e1           JR      $48EB
490a: 80           CALT    ($0080)
490b: d8           JR      $4924
490c: 80           CALT    ($0080)
490d: d1           JR      $491F
490e: 80           CALT    ($0080)
490f: ca           JR      $491A
4910: 80           CALT    ($0080)
4911: c4           JR      $4916
4912: 80           CALT    ($0080)
4913: be           STAX    (HL+EA)
4914: 80           CALT    ($0080)
4915: b9           RETS    
4916: 80           CALT    ($0080)
4917: b4           PUSH    EA
4918: 80           CALT    ($0080)
4919: af 80        LDAX    (HL+$80)
491b: ab 80        LDAX    (DE+$80)
491d: a7           DMOV    EA,HL
491e: 80           CALT    ($0080)
491f: a4           POP     EA
4920: 80           CALT    ($0080)
4921: a0           POP     VA
4922: 80           CALT    ($0080)
4923: 9d           CALT    ($00BA)
4924: 80           CALT    ($0080)
4925: 9a           CALT    ($00B4)
4926: 80           CALT    ($0080)
4927: 97           CALT    ($00AE)
4928: 80           CALT    ($0080)
4929: 95           CALT    ($00AA)
492a: 80           CALT    ($0080)
492b: 92           CALT    ($00A4)
492c: 80           CALT    ($0080)
492d: 90           CALT    ($00A0)
492e: 80           CALT    ($0080)
492f: 8d           CALT    ($009A)
4930: 80           CALT    ($0080)
4931: 8b           CALT    ($0096)
4932: 80           CALT    ($0080)
4933: 89           CALT    ($0092)
4934: 80           CALT    ($0080)
4935: 87           CALT    ($008E)
4936: 80           CALT    ($0080)
4937: 85           CALT    ($008A)
4938: 80           CALT    ($0080)
4939: 83           CALT    ($0086)
493a: 80           CALT    ($0080)
493b: 82           CALT    ($0084)
493c: 80           CALT    ($0080)
493d: 80           CALT    ($0080)
493e: 80           CALT    ($0080)
493f: 7e 80        CALF    $0E80
4941: 7d 80        CALF    $0D80
4943: 7b 80        CALF    $0B80
4945: 7a 80        CALF    $0A80
4947: 78 80        CALF    $0880
4949: 77 80        EQI     A,$80
494b: 76 80        SBI     A,$80
494d: 74 80        illegal 
494f: 73           illegal 
4950: 80           CALT    ($0080)
4951: 72           SOFTI   
4952: 80           CALT    ($0080)
4953: 71 80 70     MVIW    VV:80,$70
4956: 80           CALT    ($0080)
4957: 6e 80        MVI     H,$80
4959: 6d 80        MVI     E,$80
495b: 6c 80        MVI     D,$80
495d: 6b 80        MVI     C,$80
495f: 6a 80        MVI     B,$80
4961: 69 80        MVI     A,$80
4963: 69 80        MVI     A,$80
4965: 68 80        MVI     V,$80
4967: 67 80        NEI     A,$80
4969: 66 80        SUI     A,$80
496b: 65 80 64     NEIW    VV:80,$64
496e: 80           CALT    ($0080)
496f: 63 80        STAW    VV:80
4971: c6           JR      $4978
4972: 87           CALT    ($008E)
4973: 38           illegal 
4974: 83           CALT    ($0086)
4975: 78 82        CALF    $0882
4977: 15 82 d5     ORIW    VV:82,$D5
497a: 81           CALT    ($0082)
497b: a8           INX     EA
497c: 81           CALT    ($0082)
497d: 86           CALT    ($008C)
497e: 81           CALT    ($0082)
497f: 6b 81        MVI     C,$81
4981: 55 81 43     OFFIW   VV:81,$43
4984: 81           CALT    ($0082)
4985: 33           DCX     HL
4986: 81           CALT    ($0082)
4987: 25 81 19     GTIW    VV:81,$19
498a: 81           CALT    ($0082)
498b: 0e           MOV     A,H
498c: 81           CALT    ($0082)
498d: 05 81 fc     ANIW    VV:81,$FC
4990: 80           CALT    ($0080)
4991: f5           JR      $4987
4992: 80           CALT    ($0080)
4993: ed           JR      $4981
4994: 80           CALT    ($0080)
4995: e7           JR      $497D
4996: 80           CALT    ($0080)
4997: e1           JR      $4979
4998: 80           CALT    ($0080)
4999: db           JR      $49B5
499a: 80           CALT    ($0080)
499b: d6           JR      $49B2
499c: 80           CALT    ($0080)
499d: d1           JR      $49AF
499e: 80           CALT    ($0080)
499f: cd           JR      $49AD
49a0: 80           CALT    ($0080)
49a1: c9           JR      $49AB
49a2: 80           CALT    ($0080)
49a3: c5           JR      $49A9
49a4: 80           CALT    ($0080)
49a5: c1           JR      $49A7
49a6: 80           CALT    ($0080)
49a7: bd           STAX    (HL+B)
49a8: 80           CALT    ($0080)
49a9: ba           DI      
49aa: 80           CALT    ($0080)
49ab: b7           DMOV    HL,EA
49ac: 80           CALT    ($0080)
49ad: b4           PUSH    EA
49ae: 80           CALT    ($0080)
49af: b1           PUSH    BC
49b0: 80           CALT    ($0080)
49b1: ae           LDAX    (HL+EA)
49b2: 80           CALT    ($0080)
49b3: ab 80        LDAX    (DE+$80)
49b5: a9           DCX     EA
49b6: 80           CALT    ($0080)
49b7: a7           DMOV    EA,HL
49b8: 80           CALT    ($0080)
49b9: a4           POP     EA
49ba: 80           CALT    ($0080)
49bb: a2           POP     DE
49bc: 80           CALT    ($0080)
49bd: a0           POP     VA
49be: 80           CALT    ($0080)
49bf: 9e           CALT    ($00BC)
49c0: 80           CALT    ($0080)
49c1: 9c           CALT    ($00B8)
49c2: 80           CALT    ($0080)
49c3: 9a           CALT    ($00B4)
49c4: 80           CALT    ($0080)
49c5: 98           CALT    ($00B0)
49c6: 80           CALT    ($0080)
49c7: 96           CALT    ($00AC)
49c8: 80           CALT    ($0080)
49c9: 95           CALT    ($00AA)
49ca: 80           CALT    ($0080)
49cb: 93           CALT    ($00A6)
49cc: 80           CALT    ($0080)
49cd: 91           CALT    ($00A2)
49ce: 80           CALT    ($0080)
49cf: 90           CALT    ($00A0)
49d0: 80           CALT    ($0080)
49d1: 8e           CALT    ($009C)
49d2: 80           CALT    ($0080)
49d3: 8d           CALT    ($009A)
49d4: 80           CALT    ($0080)
49d5: 8c           CALT    ($0098)
49d6: 80           CALT    ($0080)
49d7: 8a           CALT    ($0094)
49d8: 80           CALT    ($0080)
49d9: 89           CALT    ($0092)
49da: 80           CALT    ($0080)
49db: 88           CALT    ($0090)
49dc: 80           CALT    ($0080)
49dd: 86           CALT    ($008C)
49de: 80           CALT    ($0080)
49df: 85           CALT    ($008A)
49e0: 80           CALT    ($0080)
49e1: 84           CALT    ($0088)
49e2: 80           CALT    ($0080)
49e3: 83           CALT    ($0086)
49e4: 80           CALT    ($0080)
49e5: 82           CALT    ($0084)
49e6: 80           CALT    ($0080)
49e7: 81           CALT    ($0082)
49e8: 80           CALT    ($0080)
49e9: 7f 80        CALF    $0F80
49eb: 7e 80        CALF    $0E80
49ed: 7d 80        CALF    $0D80
49ef: 7c 80        CALF    $0C80
49f1: 5e 8a        BIT     6,VV:8A
49f3: 4b 84        MVIX    HL,$84
49f5: 4b 83        MVIX    HL,$83
49f7: c7           JR      $49FF
49f8: 82           CALT    ($0084)
49f9: 72           SOFTI   
49fa: 82           CALT    ($0084)
49fb: 36 82        SUINB   A,$82
49fd: 08           MOV     A,EAH
49fe: 82           CALT    ($0084)
49ff: e4           JR      $49E4
4a00: 81           CALT    ($0082)
4a01: c7           JR      $4A09
4a02: 81           CALT    ($0082)
4a03: ae           LDAX    (HL+EA)
4a04: 81           CALT    ($0082)
4a05: 99           CALT    ($00B2)
4a06: 81           CALT    ($0082)
4a07: 87           CALT    ($008E)
4a08: 81           CALT    ($0082)
4a09: 77 81        EQI     A,$81
4a0b: 69 81        MVI     A,$81
4a0d: 5c 81        BIT     4,VV:81
4a0f: 51           DCR     A
4a10: 81           CALT    ($0082)
4a11: 46 81        ADI     A,$81
4a13: 3d           STAX    (HL+)
4a14: 81           CALT    ($0082)
4a15: 34 81 2c     LXI     HL,$2C81
4a18: 81           CALT    ($0082)
4a19: 25 81 1e     GTIW    VV:81,$1E
4a1c: 81           CALT    ($0082)
4a1d: 17 81        ORI     A,$81
4a1f: 11           EXX     
4a20: 81           CALT    ($0082)
4a21: 0c           MOV     A,D
4a22: 81           CALT    ($0082)
4a23: 06           illegal 
4a24: 81           CALT    ($0082)
4a25: 01 81        LDAW    VV:81
4a27: fd           JR      $4A25
4a28: 80           CALT    ($0080)
4a29: f8           JR      $4A22
4a2a: 80           CALT    ($0080)
4a2b: f4           JR      $4A20
4a2c: 80           CALT    ($0080)
4a2d: f0           JR      $4A1E
4a2e: 80           CALT    ($0080)
4a2f: ec           JR      $4A1C
4a30: 80           CALT    ($0080)
4a31: e8           JR      $4A1A
4a32: 80           CALT    ($0080)
4a33: e5           JR      $4A19
4a34: 80           CALT    ($0080)
4a35: e1           JR      $4A17
4a36: 80           CALT    ($0080)
4a37: de           JR      $4A56
4a38: 80           CALT    ($0080)
4a39: db           JR      $4A55
4a3a: 80           CALT    ($0080)
4a3b: d8           JR      $4A54
4a3c: 80           CALT    ($0080)
4a3d: d5           JR      $4A53
4a3e: 80           CALT    ($0080)
4a3f: d3           JR      $4A53
4a40: 80           CALT    ($0080)
4a41: d0           JR      $4A52
4a42: 80           CALT    ($0080)
4a43: ce           JR      $4A52
4a44: 80           CALT    ($0080)
4a45: cb           JR      $4A51
4a46: 80           CALT    ($0080)
4a47: c9           JR      $4A51
4a48: 80           CALT    ($0080)
4a49: c6           JR      $4A50
4a4a: 80           CALT    ($0080)
4a4b: c4           JR      $4A50
4a4c: 80           CALT    ($0080)
4a4d: c2           JR      $4A50
4a4e: 80           CALT    ($0080)
4a4f: c0           JR      $4A50
4a50: 80           CALT    ($0080)
4a51: be           STAX    (HL+EA)
4a52: 80           CALT    ($0080)
4a53: bc           STAX    (HL+A)
4a54: 80           CALT    ($0080)
4a55: ba           DI      
4a56: 80           CALT    ($0080)
4a57: b8           RET     
4a58: 80           CALT    ($0080)
4a59: b7           DMOV    HL,EA
4a5a: 80           CALT    ($0080)
4a5b: b5           DMOV    BC,EA
4a5c: 80           CALT    ($0080)
4a5d: b3           PUSH    HL
4a5e: 80           CALT    ($0080)
4a5f: b2           PUSH    DE
4a60: 80           CALT    ($0080)
4a61: b0           PUSH    VA
4a62: 80           CALT    ($0080)
4a63: af 80        LDAX    (HL+$80)
4a65: ad           LDAX    (HL+B)
4a66: 80           CALT    ($0080)
4a67: ac           LDAX    (HL+A)
4a68: 80           CALT    ($0080)
4a69: aa           EI      
4a6a: 80           CALT    ($0080)
4a6b: a9           DCX     EA
4a6c: 80           CALT    ($0080)
4a6d: a7           DMOV    EA,HL
4a6e: 80           CALT    ($0080)
4a6f: a6           DMOV    EA,DE
4a70: 80           CALT    ($0080)
4a71: e0           JR      $4A52
4a72: 8d           CALT    ($009A)
4a73: bf 85        STAX    (HL+$85)
4a75: 69 84        MVI     A,$84
4a77: b7           DMOV    HL,EA
4a78: 83           CALT    ($0086)
4a79: 46 83        ADI     A,$83
4a7b: f6           JR      $4A72
4a7c: 82           CALT    ($0084)
4a7d: b9           RETS    
4a7e: 82           CALT    ($0084)
4a7f: 88           CALT    ($0090)
4a80: 82           CALT    ($0084)
4a81: 61           DAA     
4a82: 82           CALT    ($0084)
4a83: 40 82 24     CALL    $2482
4a86: 82           CALT    ($0084)
4a87: 0b           MOV     A,C
4a88: 82           CALT    ($0084)
4a89: f6           JR      $4A80
4a8a: 81           CALT    ($0082)
4a8b: e3           JR      $4A6F
4a8c: 81           CALT    ($0082)
4a8d: d2           JR      $4AA0
4a8e: 81           CALT    ($0082)
4a8f: c3           JR      $4A93
4a90: 81           CALT    ($0082)
4a91: b5           DMOV    BC,EA
4a92: 81           CALT    ($0082)
4a93: a8           INX     EA
4a94: 81           CALT    ($0082)
4a95: 9c           CALT    ($00B8)
4a96: 81           CALT    ($0082)
4a97: 92           CALT    ($00A4)
4a98: 81           CALT    ($0082)
4a99: 88           CALT    ($0090)
4a9a: 81           CALT    ($0082)
4a9b: 7f 81        CALF    $0F81
4a9d: 76 81        SBI     A,$81
4a9f: 6e 81        MVI     H,$81
4aa1: 66 81        SUI     A,$81
4aa3: 5f 81        BIT     7,VV:81
4aa5: 59 81        BIT     1,VV:81
4aa7: 52           DCR     B
4aa8: 81           CALT    ($0082)
4aa9: 4c 81        illegal 
4aab: 47 81        ONI     A,$81
4aad: 41           INR     A
4aae: 81           CALT    ($0082)
4aaf: 3c           STAX    (DE+)
4ab0: 81           CALT    ($0082)
4ab1: 37 81        LTI     A,$81
4ab3: 32           INX     HL
4ab4: 81           CALT    ($0082)
4ab5: 2e           LDAX    (DE-)
4ab6: 81           CALT    ($0082)
4ab7: 2a           LDAX    (DE)
4ab8: 81           CALT    ($0082)
4ab9: 25 81 22     GTIW    VV:81,$22
4abc: 81           CALT    ($0082)
4abd: 1e           MOV     H,A
4abe: 81           CALT    ($0082)
4abf: 1a           MOV     B,A
4ac0: 81           CALT    ($0082)
4ac1: 17 81        ORI     A,$81
4ac3: 13           DCX     BC
4ac4: 81           CALT    ($0082)
4ac5: 10           EXA     
4ac6: 81           CALT    ($0082)
4ac7: 0d           MOV     A,E
4ac8: 81           CALT    ($0082)
4ac9: 0a           MOV     A,B
4aca: 81           CALT    ($0082)
4acb: 07 81        ANI     A,$81
4acd: 04 81 01     LXI     SP,$0181
4ad0: 81           CALT    ($0082)
4ad1: ff           JR      $4AD1
4ad2: 80           CALT    ($0080)
4ad3: fc           JR      $4AD0
4ad4: 80           CALT    ($0080)
4ad5: f9           JR      $4ACF
4ad6: 80           CALT    ($0080)
4ad7: f7           JR      $4ACF
4ad8: 80           CALT    ($0080)
4ad9: f5           JR      $4ACF
4ada: 80           CALT    ($0080)
4adb: f2           JR      $4ACE
4adc: 80           CALT    ($0080)
4add: f0           JR      $4ACE
4ade: 80           CALT    ($0080)
4adf: ee           JR      $4ACE
4ae0: 80           CALT    ($0080)
4ae1: ec           JR      $4ACE
4ae2: 80           CALT    ($0080)
4ae3: ea           JR      $4ACE
4ae4: 80           CALT    ($0080)
4ae5: e8           JR      $4ACE
4ae6: 80           CALT    ($0080)
4ae7: e6           JR      $4ACE
4ae8: 80           CALT    ($0080)
4ae9: e4           JR      $4ACE
4aea: 80           CALT    ($0080)
4aeb: e2           JR      $4ACE
4aec: 80           CALT    ($0080)
4aed: e0           JR      $4ACE
4aee: 80           CALT    ($0080)
4aef: de           JR      $4B0E
4af0: 80           CALT    ($0080)
4af1: a9           DCX     EA
4af2: 92           CALT    ($00A4)
4af3: bb 87        STAX    (DE+$87)
4af5: ee           JR      $4AE4
4af6: 85           CALT    ($008A)
4af7: 00           NOP     
4af8: 85           CALT    ($008A)
4af9: 67 84        NEI     A,$84
4afb: fb           JR      $4AF7
4afc: 83           CALT    ($0086)
4afd: a9           DCX     EA
4afe: 83           CALT    ($0086)
4aff: 68 83        MVI     V,$83
4b01: 33           DCX     HL
4b02: 83           CALT    ($0086)
4b03: 07 83        ANI     A,$83
4b05: e1           JR      $4AE7
4b06: 82           CALT    ($0084)
4b07: c0           JR      $4B08
4b08: 82           CALT    ($0084)
4b09: a3           POP     HL
4b0a: 82           CALT    ($0084)
4b0b: 8a           CALT    ($0094)
4b0c: 82           CALT    ($0084)
4b0d: 73           illegal 
4b0e: 82           CALT    ($0084)
4b0f: 5e 82        BIT     6,VV:82
4b11: 4c 82        illegal 
4b13: 3b           STAX    (HL)
4b14: 82           CALT    ($0084)
4b15: 2b           LDAX    (HL)
4b16: 82           CALT    ($0084)
4b17: 1d           MOV     E,A
4b18: 82           CALT    ($0084)
4b19: 0f           MOV     A,L
4b1a: 82           CALT    ($0084)
4b1b: 03           DCX     SP
4b1c: 82           CALT    ($0084)
4b1d: f7           JR      $4B15
4b1e: 81           CALT    ($0082)
4b1f: ec           JR      $4B0C
4b20: 81           CALT    ($0082)
4b21: e2           JR      $4B04
4b22: 81           CALT    ($0082)
4b23: d9           JR      $4B3D
4b24: 81           CALT    ($0082)
4b25: d0           JR      $4B36
4b26: 81           CALT    ($0082)
4b27: c7           JR      $4B2F
4b28: 81           CALT    ($0082)
4b29: bf 81        STAX    (HL+$81)
4b2b: b7           DMOV    HL,EA
4b2c: 81           CALT    ($0082)
4b2d: b0           PUSH    VA
4b2e: 81           CALT    ($0082)
4b2f: a9           DCX     EA
4b30: 81           CALT    ($0082)
4b31: a3           POP     HL
4b32: 81           CALT    ($0082)
4b33: 9c           CALT    ($00B8)
4b34: 81           CALT    ($0082)
4b35: 96           CALT    ($00AC)
4b36: 81           CALT    ($0082)
4b37: 90           CALT    ($00A0)
4b38: 81           CALT    ($0082)
4b39: 8b           CALT    ($0096)
4b3a: 81           CALT    ($0082)
4b3b: 86           CALT    ($008C)
4b3c: 81           CALT    ($0082)
4b3d: 81           CALT    ($0082)
4b3e: 81           CALT    ($0082)
4b3f: 7c 81        CALF    $0C81
4b41: 77 81        EQI     A,$81
4b43: 72           SOFTI   
4b44: 81           CALT    ($0082)
4b45: 6e 81        MVI     H,$81
4b47: 6a 81        MVI     B,$81
4b49: 66 81        SUI     A,$81
4b4b: 62           RETI    
4b4c: 81           CALT    ($0082)
4b4d: 5e 81        BIT     6,VV:81
4b4f: 5a 81        BIT     2,VV:81
4b51: 57 81        OFFI    A,$81
4b53: 53           DCR     C
4b54: 81           CALT    ($0082)
4b55: 50           EXH     
4b56: 81           CALT    ($0082)
4b57: 4c 81        illegal 
4b59: 49 81        MVIX    BC,$81
4b5b: 46 81        ADI     A,$81
4b5d: 43           INR     C
4b5e: 81           CALT    ($0082)
4b5f: 40 81 3d     CALL    $3D81
4b62: 81           CALT    ($0082)
4b63: 3b           STAX    (HL)
4b64: 81           CALT    ($0082)
4b65: 38           illegal 
4b66: 81           CALT    ($0082)
4b67: 35 81 33     LTIW    VV:81,$33
4b6a: 81           CALT    ($0082)
4b6b: 30 81        DCRW    VV:81
4b6d: 2e           LDAX    (DE-)
4b6e: 81           CALT    ($0082)
4b6f: 2b           LDAX    (HL)
4b70: 81           CALT    ($0082)
4b71: 30 34        DCRW    VV:34
4b73: ff           JR      $4B73
4b74: ff           JR      $4B74
4b75: ff           JR      $4B75
4b76: ff           JR      $4B76
4b77: ff           JR      $4B77
4b78: ff           JR      $4B78
4b79: ff           JR      $4B79
4b7a: ff           JR      $4B7A
4b7b: ff           JR      $4B7B
4b7c: ff           JR      $4B7C
4b7d: ff           JR      $4B7D
4b7e: ff           JR      $4B7E
4b7f: ff           JR      $4B7F
4b80: 7e 00        CALF    $0E00
4b82: 09           MOV     A,EAL
4b83: 00           NOP     
4b84: 7f 00        CALF    $0F00
4b86: 49 00        MVIX    BC,$00
4b88: 41           INR     A
4b89: 00           NOP     
4b8a: 00           NOP     
4b8b: 00           NOP     
4b8c: 20 04        INRW    VV:04
4b8e: 50           EXH     
4b8f: 04 78 04     LXI     SP,$0478
4b92: 50           EXH     
4b93: 04 58 00     LXI     SP,$0058
4b96: 00           NOP     
4b97: 00           NOP     
4b98: ae           LDAX    (HL+EA)
4b99: 44 20 54     LXI     EA,$5420
4b9c: 08           MOV     A,EAH
4b9d: 44 3a 00     LXI     EA,$003A
4ba0: 00           NOP     
4ba1: 00           NOP     
4ba2: 00           NOP     
4ba3: 00           NOP     
4ba4: 3e           STAX    (DE-)
4ba5: 00           NOP     
4ba6: 61           DAA     
4ba7: 10           EXA     
4ba8: 49 04        MVIX    BC,$04
4baa: 43           INR     C
4bab: 00           NOP     
4bac: 3e           STAX    (DE-)
4bad: 00           NOP     
4bae: 00           NOP     
4baf: 00           NOP     
4bb0: 48 00        illegal 
4bb2: 3e           STAX    (DE-)
4bb3: 01 48        LDAW    VV:48
4bb5: 01 48        LDAW    VV:48
4bb7: 02           INX     SP
4bb8: 40 00 00     CALL    $0000
4bbb: 00           NOP     
4bbc: 0a           MOV     A,B
4bbd: 55 00 55     OFFIW   VV:00,$55
4bc0: 00           NOP     
4bc1: 55 00 55     OFFIW   VV:00,$55
4bc4: 28           illegal 
4bc5: 00           NOP     
4bc6: 00           NOP     
4bc7: 00           NOP     
4bc8: 60 11        XRA     A,A
4bca: 28           illegal 
4bcb: 04 22 04     LXI     SP,$0422
4bce: 28           illegal 
4bcf: 11           EXX     
4bd0: 60 00        illegal 
4bd2: 00           NOP     
4bd3: 00           NOP     
4bd4: 00           NOP     
4bd5: 38           illegal 
4bd6: 45 00 44     ONIW    VV:00,$44
4bd9: 00           NOP     
4bda: 45 38 00     ONIW    VV:38,$00
4bdd: 00           NOP     
4bde: 00           NOP     
4bdf: 00           NOP     
4be0: 70 00        illegal 
4be2: 28           illegal 
4be3: 03           DCX     SP
4be4: 24 03 28     LXI     DE,$2803
4be7: 00           NOP     
4be8: 70 00        illegal 
4bea: 00           NOP     
4beb: 00           NOP     
4bec: 38           illegal 
4bed: 44 10 44     LXI     EA,$4410
4bf0: 12           INX     BC
4bf1: 45 10 44     ONIW    VV:10,$44
4bf4: 18           MOV     EAH,A
4bf5: 00           NOP     
4bf6: 00           NOP     
4bf7: 00           NOP     
4bf8: 20 50        INRW    VV:50
4bfa: 05 50 04     ANIW    VV:50,$04
4bfd: 50           EXH     
4bfe: 05 38 40     ANIW    VV:38,$40
4c01: 00           NOP     
4c02: 00           NOP     
4c03: 00           NOP     
4c04: 20 50        INRW    VV:50
4c06: 04 53 04     LXI     SP,$0453
4c09: 53           DCR     C
4c0a: 04 38 40     LXI     SP,$4038
4c0d: 00           NOP     
4c0e: 00           NOP     
4c0f: 00           NOP     
4c10: 3c           STAX    (DE+)
4c11: 40 01 40     CALL    $4001
4c14: 00           NOP     
4c15: 40 01 3c     CALL    $3C01
4c18: 40 00 00     CALL    $0000
4c1b: 00           NOP     
4c1c: 40 3e 41     CALL    $413E
4c1f: 00           NOP     
4c20: 49 00        MVIX    BC,$00
4c22: 49 36        MVIX    BC,$36
4c24: 00           NOP     
4c25: 00           NOP     
4c26: 00           NOP     
4c27: 00           NOP     
4c28: 20 50        INRW    VV:50
4c2a: 04 51 06     LXI     SP,$0651
4c2d: 50           EXH     
4c2e: 04 38 40     LXI     SP,$4038
4c31: 00           NOP     
4c32: 00           NOP     
4c33: 00           NOP     
4c34: 00           NOP     
4c35: 00           NOP     
4c36: 01 00        LDAW    VV:00
4c38: 00           NOP     
4c39: 00           NOP     
4c3a: 01 00        LDAW    VV:00
4c3c: 00           NOP     
4c3d: 00           NOP     
4c3e: 00           NOP     
4c3f: 00           NOP     
4c40: 38           illegal 
4c41: d1           JR      $4C53
4c42: 00           NOP     
4c43: d1           JR      $4C55
4c44: 00           NOP     
4c45: f1           JR      $4C37
4c46: 00           NOP     
4c47: 44 00 00     LXI     EA,$0000
4c4a: 00           NOP     
4c4b: 00           NOP     
4c4c: 38           illegal 
4c4d: 44 10 45     LXI     EA,$4510
4c50: 12           INX     BC
4c51: 44 10 44     LXI     EA,$4410
4c54: 18           MOV     EAH,A
4c55: 00           NOP     
4c56: 00           NOP     
4c57: 00           NOP     
4c58: 00           NOP     
4c59: 00           NOP     
4c5a: 00           NOP     
4c5b: 00           NOP     
4c5c: f9           JR      $4C56
4c5d: 00           NOP     
4c5e: 00           NOP     
4c5f: 00           NOP     
4c60: 00           NOP     
4c61: 00           NOP     
4c62: 00           NOP     
4c63: 00           NOP     
4c64: b0           PUSH    VA
4c65: c0           JR      $4C66
4c66: 20 c0        INRW    VV:C0
4c68: 14 c0 00     LXI     BC,$00C0
4c6b: c0           JR      $4C6C
4c6c: a0           POP     VA
4c6d: 00           NOP     
4c6e: 00           NOP     
4c6f: 00           NOP     
4c70: 02           INX     SP
4c71: 79 00        CALF    $0900
4c73: 09           MOV     A,EAL
4c74: 00           NOP     
4c75: 0a           MOV     A,B
4c76: 00           NOP     
4c77: 0a           MOV     A,B
4c78: 71 00 00     MVIW    VV:00,$00
4c7b: 00           NOP     
4c7c: 7a 01        CALF    $0A01
4c7e: 08           MOV     A,EAH
4c7f: 01 10        LDAW    VV:10
4c81: 02           INX     SP
4c82: 20 02        INRW    VV:02
4c84: 79 00        CALF    $0900
4c86: 00           NOP     
4c87: 00           NOP     
4c88: 00           NOP     
4c89: 00           NOP     
4c8a: 00           NOP     
4c8b: 03           DCX     SP
4c8c: 00           NOP     
4c8d: 03           DCX     SP
4c8e: 00           NOP     
4c8f: 00           NOP     
4c90: 00           NOP     
4c91: 00           NOP     
4c92: 00           NOP     
4c93: 00           NOP     
4c94: 18           MOV     EAH,A
4c95: 25 42 00     GTIW    VV:42,$00
4c98: 42           INR     B
4c99: 00           NOP     
4c9a: 42           INR     B
4c9b: 25 18 00     GTIW    VV:18,$00
4c9e: 00           NOP     
4c9f: 00           NOP     
4ca0: 3c           STAX    (DE+)
4ca1: 41           INR     A
4ca2: 00           NOP     
4ca3: 40 00 40     CALL    $4000
4ca6: 00           NOP     
4ca7: 41           INR     A
4ca8: 3c           STAX    (DE+)
4ca9: 00           NOP     
4caa: 00           NOP     
4cab: 00           NOP     
4cac: 3c           STAX    (DE+)
4cad: 40 00 41     CALL    $4100
4cb0: 02           INX     SP
4cb1: 40 00 3c     CALL    $3C00
4cb4: 40 00 00     CALL    $0000
4cb7: 00           NOP     
4cb8: 00           NOP     
4cb9: 38           illegal 
4cba: 44 01 46     LXI     EA,$4601
4cbd: 00           NOP     
4cbe: 44 38 00     LXI     EA,$0038
4cc1: 00           NOP     
4cc2: 00           NOP     
4cc3: 00           NOP     
4cc4: 00           NOP     
4cc5: 00           NOP     
4cc6: 48 01        SLRC    A
4cc8: 7a 00        CALF    $0A00
4cca: 40 00 00     CALL    $0000
4ccd: 00           NOP     
4cce: 00           NOP     
4ccf: 00           NOP     
4cd0: 00           NOP     
4cd1: 00           NOP     
4cd2: 00           NOP     
4cd3: 00           NOP     
4cd4: 00           NOP     
4cd5: 00           NOP     
4cd6: 00           NOP     
4cd7: 00           NOP     
4cd8: 00           NOP     
4cd9: 00           NOP     
4cda: 00           NOP     
4cdb: 00           NOP     
4cdc: 00           NOP     
4cdd: 00           NOP     
4cde: 00           NOP     
4cdf: 00           NOP     
4ce0: 4f 00        JRE     $4BE2
4ce2: 00           NOP     
4ce3: 00           NOP     
4ce4: 00           NOP     
4ce5: 00           NOP     
4ce6: 00           NOP     
4ce7: 00           NOP     
4ce8: 00           NOP     
4ce9: 00           NOP     
4cea: 07 00        ANI     A,$00
4cec: 00           NOP     
4ced: 00           NOP     
4cee: 07 00        ANI     A,$00
4cf0: 00           NOP     
4cf1: 00           NOP     
4cf2: 00           NOP     
4cf3: 00           NOP     
4cf4: 14 00 7f     LXI     BC,$7F00
4cf7: 00           NOP     
4cf8: 14 00 7f     LXI     BC,$7F00
4cfb: 00           NOP     
4cfc: 14 00 00     LXI     BC,$0000
4cff: 00           NOP     
4d00: 24 00 2a     LXI     DE,$2A00
4d03: 00           NOP     
4d04: 7f 00        CALF    $0F00
4d06: 2a           LDAX    (DE)
4d07: 00           NOP     
4d08: 12           INX     BC
4d09: 00           NOP     
4d0a: 00           NOP     
4d0b: 00           NOP     
4d0c: 03           DCX     SP
4d0d: 40 23 10     CALL    $1023
4d10: 08           MOV     A,EAH
4d11: 64 02 61     MVI     PC,$61
4d14: 00           NOP     
4d15: 00           NOP     
4d16: 00           NOP     
4d17: 00           NOP     
4d18: 32           INX     HL
4d19: 05 48 05     ANIW    VV:48,$05
4d1c: 52           DCR     B
4d1d: 00           NOP     
4d1e: 20 10        INRW    VV:10
4d20: 48 00        illegal 
4d22: 00           NOP     
4d23: 00           NOP     
4d24: 00           NOP     
4d25: 00           NOP     
4d26: 00           NOP     
4d27: 04 02 01     LXI     SP,$0102
4d2a: 00           NOP     
4d2b: 00           NOP     
4d2c: 00           NOP     
4d2d: 00           NOP     
4d2e: 00           NOP     
4d2f: 00           NOP     
4d30: 00           NOP     
4d31: 00           NOP     
4d32: 00           NOP     
4d33: 00           NOP     
4d34: 1c           MOV     D,A
4d35: 22           INX     DE
4d36: 41           INR     A
4d37: 00           NOP     
4d38: 00           NOP     
4d39: 00           NOP     
4d3a: 00           NOP     
4d3b: 00           NOP     
4d3c: 00           NOP     
4d3d: 00           NOP     
4d3e: 41           INR     A
4d3f: 22           INX     DE
4d40: 1c           MOV     D,A
4d41: 00           NOP     
4d42: 00           NOP     
4d43: 00           NOP     
4d44: 00           NOP     
4d45: 00           NOP     
4d46: 00           NOP     
4d47: 00           NOP     
4d48: 08           MOV     A,EAH
4d49: 00           NOP     
4d4a: 2a           LDAX    (DE)
4d4b: 14 08 14     LXI     BC,$1408
4d4e: 2a           LDAX    (DE)
4d4f: 00           NOP     
4d50: 08           MOV     A,EAH
4d51: 00           NOP     
4d52: 00           NOP     
4d53: 00           NOP     
4d54: 08           MOV     A,EAH
4d55: 00           NOP     
4d56: 08           MOV     A,EAH
4d57: 00           NOP     
4d58: 3e           STAX    (DE-)
4d59: 00           NOP     
4d5a: 08           MOV     A,EAH
4d5b: 00           NOP     
4d5c: 08           MOV     A,EAH
4d5d: 00           NOP     
4d5e: 00           NOP     
4d5f: 00           NOP     
4d60: 00           NOP     
4d61: 00           NOP     
4d62: 00           NOP     
4d63: 00           NOP     
4d64: 60 c0        ADD     A,V
4d66: b8           RET     
4d67: 00           NOP     
4d68: 00           NOP     
4d69: 00           NOP     
4d6a: 00           NOP     
4d6b: 00           NOP     
4d6c: 08           MOV     A,EAH
4d6d: 00           NOP     
4d6e: 08           MOV     A,EAH
4d6f: 00           NOP     
4d70: 08           MOV     A,EAH
4d71: 00           NOP     
4d72: 08           MOV     A,EAH
4d73: 00           NOP     
4d74: 08           MOV     A,EAH
4d75: 00           NOP     
4d76: 00           NOP     
4d77: 00           NOP     
4d78: 00           NOP     
4d79: 00           NOP     
4d7a: 00           NOP     
4d7b: 00           NOP     
4d7c: 60 00        illegal 
4d7e: 60 00        illegal 
4d80: 00           NOP     
4d81: 00           NOP     
4d82: 00           NOP     
4d83: 00           NOP     
4d84: 00           NOP     
4d85: 40 20 10     CALL    $1020
4d88: 08           MOV     A,EAH
4d89: 04 02 01     LXI     SP,$0102
4d8c: 00           NOP     
4d8d: 00           NOP     
4d8e: 00           NOP     
4d8f: 00           NOP     
4d90: 1c           MOV     D,A
4d91: 22           INX     DE
4d92: 00           NOP     
4d93: 41           INR     A
4d94: 00           NOP     
4d95: 41           INR     A
4d96: 00           NOP     
4d97: 22           INX     DE
4d98: 1c           MOV     D,A
4d99: 00           NOP     
4d9a: 00           NOP     
4d9b: 00           NOP     
4d9c: 00           NOP     
4d9d: 00           NOP     
4d9e: 42           INR     B
4d9f: 00           NOP     
4da0: 7f 00        CALF    $0F00
4da2: 40 00 00     CALL    $0000
4da5: 00           NOP     
4da6: 00           NOP     
4da7: 00           NOP     
4da8: 42           INR     B
4da9: 01 60        LDAW    VV:60
4dab: 01 50        LDAW    VV:50
4dad: 01 48        LDAW    VV:48
4daf: 01 46        LDAW    VV:46
4db1: 00           NOP     
4db2: 00           NOP     
4db3: 00           NOP     
4db4: 22           INX     DE
4db5: 41           INR     A
4db6: 00           NOP     
4db7: 41           INR     A
4db8: 00           NOP     
4db9: 49 00        MVIX    BC,$00
4dbb: 49 36        MVIX    BC,$36
4dbd: 00           NOP     
4dbe: 00           NOP     
4dbf: 00           NOP     
4dc0: 10           EXA     
4dc1: 08           MOV     A,EAH
4dc2: 14 02 11     LXI     BC,$1102
4dc5: 00           NOP     
4dc6: 7f 00        CALF    $0F00
4dc8: 10           EXA     
4dc9: 00           NOP     
4dca: 00           NOP     
4dcb: 00           NOP     
4dcc: 27 00        GTI     A,$00
4dce: 45 00 45     ONIW    VV:00,$45
4dd1: 00           NOP     
4dd2: 45 00 39     ONIW    VV:00,$39
4dd5: 00           NOP     
4dd6: 00           NOP     
4dd7: 00           NOP     
4dd8: 30 48        DCRW    VV:48
4dda: 04 4a 01     LXI     SP,$014A
4ddd: 48 00        illegal 
4ddf: 48 30        illegal 
4de1: 00           NOP     
4de2: 00           NOP     
4de3: 00           NOP     
4de4: 01 00        LDAW    VV:00
4de6: 01 00        LDAW    VV:00
4de8: 61           DAA     
4de9: 10           EXA     
4dea: 09           MOV     A,EAL
4deb: 04 03 00     LXI     SP,$0003
4dee: 00           NOP     
4def: 00           NOP     
4df0: 36 49        SUINB   A,$49
4df2: 00           NOP     
4df3: 49 00        MVIX    BC,$00
4df5: 49 00        MVIX    BC,$00
4df7: 49 36        MVIX    BC,$36
4df9: 00           NOP     
4dfa: 00           NOP     
4dfb: 00           NOP     
4dfc: 06           illegal 
4dfd: 09           MOV     A,EAL
4dfe: 00           NOP     
4dff: 09           MOV     A,EAL
4e00: 40 29 10     CALL    $1029
4e03: 09           MOV     A,EAL
4e04: 06           illegal 
4e05: 00           NOP     
4e06: 00           NOP     
4e07: 00           NOP     
4e08: 00           NOP     
4e09: 00           NOP     
4e0a: 00           NOP     
4e0b: 00           NOP     
4e0c: 6c 00        MVI     D,$00
4e0e: 6c 00        MVI     D,$00
4e10: 00           NOP     
4e11: 00           NOP     
4e12: 00           NOP     
4e13: 00           NOP     
4e14: 00           NOP     
4e15: 00           NOP     
4e16: 00           NOP     
4e17: 00           NOP     
4e18: db           JR      $4E34
4e19: 00           NOP     
4e1a: bb 00        STAX    (DE+$00)
4e1c: 00           NOP     
4e1d: 00           NOP     
4e1e: 00           NOP     
4e1f: 00           NOP     
4e20: 00           NOP     
4e21: 08           MOV     A,EAH
4e22: 00           NOP     
4e23: 14 00 22     LXI     BC,$2200
4e26: 00           NOP     
4e27: 41           INR     A
4e28: 00           NOP     
4e29: 00           NOP     
4e2a: 00           NOP     
4e2b: 00           NOP     
4e2c: 14 00 14     LXI     BC,$1400
4e2f: 00           NOP     
4e30: 14 00 14     LXI     BC,$1400
4e33: 00           NOP     
4e34: 14 00 00     LXI     BC,$0000
4e37: 00           NOP     
4e38: 00           NOP     
4e39: 00           NOP     
4e3a: 41           INR     A
4e3b: 00           NOP     
4e3c: 22           INX     DE
4e3d: 00           NOP     
4e3e: 14 00 08     LXI     BC,$0800
4e41: 00           NOP     
4e42: 00           NOP     
4e43: 00           NOP     
4e44: 02           INX     SP
4e45: 01 00        LDAW    VV:00
4e47: 01 50        LDAW    VV:50
4e49: 01 08        LDAW    VV:08
4e4b: 01 06        LDAW    VV:06
4e4d: 00           NOP     
4e4e: 00           NOP     
4e4f: 00           NOP     
4e50: 1c           MOV     D,A
4e51: 22           INX     DE
4e52: 41           INR     A
4e53: 08           MOV     A,EAH
4e54: 55 00 55     OFFIW   VV:00,$55
4e57: 00           NOP     
4e58: 0e           MOV     A,H
4e59: 00           NOP     
4e5a: 00           NOP     
4e5b: 00           NOP     
4e5c: 78 04        CALF    $0804
4e5e: 12           INX     BC
4e5f: 01 10        LDAW    VV:10
4e61: 01 12        LDAW    VV:12
4e63: 04 78 00     LXI     SP,$0078
4e66: 00           NOP     
4e67: 00           NOP     
4e68: 41           INR     A
4e69: 3e           STAX    (DE-)
4e6a: 41           INR     A
4e6b: 08           MOV     A,EAH
4e6c: 41           INR     A
4e6d: 08           MOV     A,EAH
4e6e: 41           INR     A
4e6f: 08           MOV     A,EAH
4e70: 36 00        SUINB   A,$00
4e72: 00           NOP     
4e73: 00           NOP     
4e74: 3e           STAX    (DE-)
4e75: 41           INR     A
4e76: 00           NOP     
4e77: 41           INR     A
4e78: 00           NOP     
4e79: 41           INR     A
4e7a: 00           NOP     
4e7b: 41           INR     A
4e7c: 22           INX     DE
4e7d: 00           NOP     
4e7e: 00           NOP     
4e7f: 00           NOP     
4e80: 41           INR     A
4e81: 3e           STAX    (DE-)
4e82: 41           INR     A
4e83: 00           NOP     
4e84: 41           INR     A
4e85: 00           NOP     
4e86: 41           INR     A
4e87: 00           NOP     
4e88: 3e           STAX    (DE-)
4e89: 00           NOP     
4e8a: 00           NOP     
4e8b: 00           NOP     
4e8c: 7f 00        CALF    $0F00
4e8e: 49 00        MVIX    BC,$00
4e90: 49 00        MVIX    BC,$00
4e92: 49 00        MVIX    BC,$00
4e94: 41           INR     A
4e95: 00           NOP     
4e96: 00           NOP     
4e97: 00           NOP     
4e98: 7f 00        CALF    $0F00
4e9a: 09           MOV     A,EAL
4e9b: 00           NOP     
4e9c: 09           MOV     A,EAL
4e9d: 00           NOP     
4e9e: 09           MOV     A,EAL
4e9f: 00           NOP     
4ea0: 01 00        LDAW    VV:00
4ea2: 00           NOP     
4ea3: 00           NOP     
4ea4: 3e           STAX    (DE-)
4ea5: 41           INR     A
4ea6: 00           NOP     
4ea7: 41           INR     A
4ea8: 08           MOV     A,EAH
4ea9: 41           INR     A
4eaa: 08           MOV     A,EAH
4eab: 41           INR     A
4eac: 3a           STAX    (DE)
4ead: 00           NOP     
4eae: 00           NOP     
4eaf: 00           NOP     
4eb0: 7f 00        CALF    $0F00
4eb2: 08           MOV     A,EAH
4eb3: 00           NOP     
4eb4: 08           MOV     A,EAH
4eb5: 00           NOP     
4eb6: 08           MOV     A,EAH
4eb7: 00           NOP     
4eb8: 7f 00        CALF    $0F00
4eba: 00           NOP     
4ebb: 00           NOP     
4ebc: 00           NOP     
4ebd: 00           NOP     
4ebe: 41           INR     A
4ebf: 00           NOP     
4ec0: 7f 00        CALF    $0F00
4ec2: 41           INR     A
4ec3: 00           NOP     
4ec4: 00           NOP     
4ec5: 00           NOP     
4ec6: 00           NOP     
4ec7: 00           NOP     
4ec8: 20 00        INRW    VV:00
4eca: 40 00 41     CALL    $4100
4ecd: 00           NOP     
4ece: 41           INR     A
4ecf: 3e           STAX    (DE-)
4ed0: 01 00        LDAW    VV:00
4ed2: 00           NOP     
4ed3: 00           NOP     
4ed4: 7f 00        CALF    $0F00
4ed6: 08           MOV     A,EAH
4ed7: 00           NOP     
4ed8: 14 00 22     LXI     BC,$2200
4edb: 00           NOP     
4edc: 41           INR     A
4edd: 00           NOP     
4ede: 00           NOP     
4edf: 00           NOP     
4ee0: 7f 00        CALF    $0F00
4ee2: 40 00 40     CALL    $4000
4ee5: 00           NOP     
4ee6: 40 00 40     CALL    $4000
4ee9: 00           NOP     
4eea: 00           NOP     
4eeb: 00           NOP     
4eec: 7f 00        CALF    $0F00
4eee: 02           INX     SP
4eef: 04 08 04     LXI     SP,$0408
4ef2: 02           INX     SP
4ef3: 00           NOP     
4ef4: 7f 00        CALF    $0F00
4ef6: 00           NOP     
4ef7: 00           NOP     
4ef8: 7f 00        CALF    $0F00
4efa: 02           INX     SP
4efb: 04 08 10     LXI     SP,$1008
4efe: 20 00        INRW    VV:00
4f00: 7f 00        CALF    $0F00
4f02: 00           NOP     
4f03: 00           NOP     
4f04: 3e           STAX    (DE-)
4f05: 41           INR     A
4f06: 00           NOP     
4f07: 41           INR     A
4f08: 00           NOP     
4f09: 41           INR     A
4f0a: 00           NOP     
4f0b: 41           INR     A
4f0c: 3e           STAX    (DE-)
4f0d: 00           NOP     
4f0e: 00           NOP     
4f0f: 00           NOP     
4f10: 7f 00        CALF    $0F00
4f12: 09           MOV     A,EAL
4f13: 00           NOP     
4f14: 09           MOV     A,EAL
4f15: 00           NOP     
4f16: 09           MOV     A,EAL
4f17: 00           NOP     
4f18: 06           illegal 
4f19: 00           NOP     
4f1a: 00           NOP     
4f1b: 00           NOP     
4f1c: 3e           STAX    (DE-)
4f1d: 41           INR     A
4f1e: 00           NOP     
4f1f: 41           INR     A
4f20: 10           EXA     
4f21: 41           INR     A
4f22: 20 01        INRW    VV:01
4f24: 5e 00        BIT     6,VV:00
4f26: 00           NOP     
4f27: 00           NOP     
4f28: 7f 00        CALF    $0F00
4f2a: 09           MOV     A,EAL
4f2b: 00           NOP     
4f2c: 09           MOV     A,EAL
4f2d: 00           NOP     
4f2e: 19           MOV     EAL,A
4f2f: 20 46        INRW    VV:46
4f31: 00           NOP     
4f32: 00           NOP     
4f33: 00           NOP     
4f34: 26 49        ADINC   A,$49
4f36: 00           NOP     
4f37: 49 00        MVIX    BC,$00
4f39: 49 00        MVIX    BC,$00
4f3b: 49 32        MVIX    BC,$32
4f3d: 00           NOP     
4f3e: 00           NOP     
4f3f: 00           NOP     
4f40: 01 00        LDAW    VV:00
4f42: 01 00        LDAW    VV:00
4f44: 7f 00        CALF    $0F00
4f46: 01 00        LDAW    VV:00
4f48: 01 00        LDAW    VV:00
4f4a: 00           NOP     
4f4b: 00           NOP     
4f4c: 3f           STAX    (HL-)
4f4d: 40 00 40     CALL    $4000
4f50: 00           NOP     
4f51: 40 00 40     CALL    $4000
4f54: 3f           STAX    (HL-)
4f55: 00           NOP     
4f56: 00           NOP     
4f57: 00           NOP     
4f58: 07 08        ANI     A,$08
4f5a: 10           EXA     
4f5b: 20 40        INRW    VV:40
4f5d: 20 10        INRW    VV:10
4f5f: 08           MOV     A,EAH
4f60: 07 00        ANI     A,$00
4f62: 00           NOP     
4f63: 00           NOP     
4f64: 3f           STAX    (HL-)
4f65: 40 20 10     CALL    $1020
4f68: 0c           MOV     A,D
4f69: 10           EXA     
4f6a: 20 40        INRW    VV:40
4f6c: 3f           STAX    (HL-)
4f6d: 00           NOP     
4f6e: 00           NOP     
4f6f: 00           NOP     
4f70: 00           NOP     
4f71: 41           INR     A
4f72: 22           INX     DE
4f73: 14 08 14     LXI     BC,$1408
4f76: 22           INX     DE
4f77: 41           INR     A
4f78: 00           NOP     
4f79: 00           NOP     
4f7a: 00           NOP     
4f7b: 00           NOP     
4f7c: 00           NOP     
4f7d: 01 02        LDAW    VV:02
4f7f: 04 78 04     LXI     SP,$0478
4f82: 02           INX     SP
4f83: 01 00        LDAW    VV:00
4f85: 00           NOP     
4f86: 00           NOP     
4f87: 00           NOP     
4f88: 00           NOP     
4f89: 41           INR     A
4f8a: 20 51        INRW    VV:51
4f8c: 08           MOV     A,EAH
4f8d: 45 02 41     ONIW    VV:02,$41
4f90: 00           NOP     
4f91: 00           NOP     
4f92: 00           NOP     
4f93: 00           NOP     
4f94: 00           NOP     
4f95: 00           NOP     
4f96: 7f 00        CALF    $0F00
4f98: 41           INR     A
4f99: 00           NOP     
4f9a: 41           INR     A
4f9b: 00           NOP     
4f9c: 00           NOP     
4f9d: 00           NOP     
4f9e: 00           NOP     
4f9f: 00           NOP     
4fa0: 00           NOP     
4fa1: 01 02        LDAW    VV:02
4fa3: 04 08 10     LXI     SP,$1008
4fa6: 20 40        INRW    VV:40
4fa8: 00           NOP     
4fa9: 00           NOP     
4faa: 00           NOP     
4fab: 00           NOP     
4fac: 00           NOP     
4fad: 00           NOP     
4fae: 41           INR     A
4faf: 00           NOP     
4fb0: 41           INR     A
4fb1: 00           NOP     
4fb2: 7f 00        CALF    $0F00
4fb4: 00           NOP     
4fb5: 00           NOP     
4fb6: 00           NOP     
4fb7: 00           NOP     
4fb8: 00           NOP     
4fb9: 00           NOP     
4fba: 02           INX     SP
4fbb: 00           NOP     
4fbc: 01 00        LDAW    VV:00
4fbe: 02           INX     SP
4fbf: 00           NOP     
4fc0: 00           NOP     
4fc1: 00           NOP     
4fc2: 00           NOP     
4fc3: 00           NOP     
4fc4: c0           JR      $4FC5
4fc5: 00           NOP     
4fc6: c0           JR      $4FC7
4fc7: 00           NOP     
4fc8: c0           JR      $4FC9
4fc9: 00           NOP     
4fca: c0           JR      $4FCB
4fcb: 00           NOP     
4fcc: c0           JR      $4FCD
4fcd: 00           NOP     
4fce: c0           JR      $4FCF
4fcf: 00           NOP     
4fd0: 00           NOP     
4fd1: 00           NOP     
4fd2: 00           NOP     
4fd3: 01 02        LDAW    VV:02
4fd5: 04 00 00     LXI     SP,$0000
4fd8: 00           NOP     
4fd9: 00           NOP     
4fda: 00           NOP     
4fdb: 00           NOP     
4fdc: 20 50        INRW    VV:50
4fde: 04 50 04     LXI     SP,$0450
4fe1: 50           EXH     
4fe2: 04 38 40     LXI     SP,$4038
4fe5: 00           NOP     
4fe6: 00           NOP     
4fe7: 00           NOP     
4fe8: 7f 00        CALF    $0F00
4fea: 44 00 44     LXI     EA,$4400
4fed: 00           NOP     
4fee: 44 38 00     LXI     EA,$0038
4ff1: 00           NOP     
4ff2: 00           NOP     
4ff3: 00           NOP     
4ff4: 38           illegal 
4ff5: 44 00 44     LXI     EA,$4400
4ff8: 00           NOP     
4ff9: 44 00 44     LXI     EA,$4400
4ffc: 00           NOP     
4ffd: 00           NOP     
4ffe: 00           NOP     
4fff: 00           NOP     
5000: 38           illegal 
5001: 44 00 44     LXI     EA,$4400
5004: 00           NOP     
5005: 44 00 7f     LXI     EA,$7F00
5008: 00           NOP     
5009: 00           NOP     
500a: 00           NOP     
500b: 00           NOP     
500c: 38           illegal 
500d: 44 10 44     LXI     EA,$4410
5010: 10           EXA     
5011: 44 10 44     LXI     EA,$4410
5014: 18           MOV     EAH,A
5015: 00           NOP     
5016: 00           NOP     
5017: 00           NOP     
5018: 08           MOV     A,EAH
5019: 00           NOP     
501a: 08           MOV     A,EAH
501b: 76 09        SBI     A,$09
501d: 00           NOP     
501e: 09           MOV     A,EAL
501f: 00           NOP     
5020: 00           NOP     
5021: 00           NOP     
5022: 00           NOP     
5023: 00           NOP     
5024: 18           MOV     EAH,A
5025: 24 a0 24     LXI     DE,$24A0
5028: a0           POP     VA
5029: 24 a0 7c     LXI     DE,$7CA0
502c: 00           NOP     
502d: 00           NOP     
502e: 00           NOP     
502f: 00           NOP     
5030: 7f 00        CALF    $0F00
5032: 04 00 04     LXI     SP,$0400
5035: 00           NOP     
5036: 04 78 00     LXI     SP,$0078
5039: 00           NOP     
503a: 00           NOP     
503b: 00           NOP     
503c: 00           NOP     
503d: 00           NOP     
503e: 44 00 7d     LXI     EA,$7D00
5041: 00           NOP     
5042: 40 00 00     CALL    $0000
5045: 00           NOP     
5046: 00           NOP     
5047: 00           NOP     
5048: 40 a0 00     CALL    $00A0
504b: a0           POP     VA
504c: 04 a0 7d     LXI     SP,$7DA0
504f: 00           NOP     
5050: 00           NOP     
5051: 00           NOP     
5052: 00           NOP     
5053: 00           NOP     
5054: 7f 00        CALF    $0F00
5056: 10           EXA     
5057: 00           NOP     
5058: 28           illegal 
5059: 00           NOP     
505a: 44 00 00     LXI     EA,$0000
505d: 00           NOP     
505e: 00           NOP     
505f: 00           NOP     
5060: 00           NOP     
5061: 01 00        LDAW    VV:00
5063: 7f 00        CALF    $0F00
5065: 00           NOP     
5066: 00           NOP     
5067: 00           NOP     
5068: 00           NOP     
5069: 00           NOP     
506a: 00           NOP     
506b: 00           NOP     
506c: 78 04        CALF    $0804
506e: 00           NOP     
506f: 04 78 04     LXI     SP,$0478
5072: 00           NOP     
5073: 04 78 00     LXI     SP,$0078
5076: 00           NOP     
5077: 00           NOP     
5078: 7c 00        CALF    $0C00
507a: 04 00 04     LXI     SP,$0400
507d: 00           NOP     
507e: 04 78 00     LXI     SP,$0078
5081: 00           NOP     
5082: 00           NOP     
5083: 00           NOP     
5084: 38           illegal 
5085: 44 00 44     LXI     EA,$4400
5088: 00           NOP     
5089: 44 00 44     LXI     EA,$4400
508c: 38           illegal 
508d: 00           NOP     
508e: 00           NOP     
508f: 00           NOP     
5090: ff           JR      $5090
5091: 00           NOP     
5092: 44 00 44     LXI     EA,$4400
5095: 00           NOP     
5096: 44 38 00     LXI     EA,$0038
5099: 00           NOP     
509a: 00           NOP     
509b: 00           NOP     
509c: 38           illegal 
509d: 44 00 44     LXI     EA,$4400
50a0: 00           NOP     
50a1: 44 00 ff     LXI     EA,$FF00
50a4: 00           NOP     
50a5: 00           NOP     
50a6: 00           NOP     
50a7: 00           NOP     
50a8: 7c 00        CALF    $0C00
50aa: 08           MOV     A,EAH
50ab: 04 00 04     LXI     SP,$0400
50ae: 00           NOP     
50af: 04 08 00     LXI     SP,$0008
50b2: 00           NOP     
50b3: 00           NOP     
50b4: 08           MOV     A,EAH
50b5: 54 00 54     JMP     $5400
50b8: 00           NOP     
50b9: 54 00 54     JMP     $5400
50bc: 20 00        INRW    VV:00
50be: 00           NOP     
50bf: 00           NOP     
50c0: 04 00 3f     LXI     SP,$3F00
50c3: 40 04 40     CALL    $4004
50c6: 04 40 00     LXI     SP,$0040
50c9: 00           NOP     
50ca: 00           NOP     
50cb: 00           NOP     
50cc: 3c           STAX    (DE+)
50cd: 40 00 40     CALL    $4000
50d0: 00           NOP     
50d1: 40 00 3c     CALL    $3C00
50d4: 40 00 00     CALL    $0000
50d7: 00           NOP     
50d8: 04 08 10     LXI     SP,$1008
50db: 20 40        INRW    VV:40
50dd: 20 10        INRW    VV:10
50df: 08           MOV     A,EAH
50e0: 04 00 00     LXI     SP,$0000
50e3: 00           NOP     
50e4: 3c           STAX    (DE+)
50e5: 40 20 10     CALL    $1020
50e8: 08           MOV     A,EAH
50e9: 10           EXA     
50ea: 20 40        INRW    VV:40
50ec: 3c           STAX    (DE+)
50ed: 00           NOP     
50ee: 00           NOP     
50ef: 00           NOP     
50f0: 44 28 00     LXI     EA,$0028
50f3: 10           EXA     
50f4: 00           NOP     
50f5: 28           illegal 
50f6: 44 00 00     LXI     EA,$0000
50f9: 00           NOP     
50fa: 00           NOP     
50fb: 00           NOP     
50fc: 04 08 c4     LXI     SP,$C408
50ff: a8           INX     EA
5100: 40 20 10     CALL    $1020
5103: 08           MOV     A,EAH
5104: 04 00 00     LXI     SP,$0000
5107: 00           NOP     
5108: 44 20 44     LXI     EA,$4420
510b: 10           EXA     
510c: 44 08 44     LXI     EA,$4408
510f: 00           NOP     
5110: 00           NOP     
5111: 00           NOP     
5112: 00           NOP     
5113: 00           NOP     
5114: 00           NOP     
5115: 00           NOP     
5116: 08           MOV     A,EAH
5117: 36 41        SUINB   A,$41
5119: 00           NOP     
511a: 41           INR     A
511b: 00           NOP     
511c: 00           NOP     
511d: 00           NOP     
511e: 00           NOP     
511f: 00           NOP     
5120: 00           NOP     
5121: 00           NOP     
5122: 00           NOP     
5123: 00           NOP     
5124: 7f 00        CALF    $0F00
5126: 00           NOP     
5127: 00           NOP     
5128: 00           NOP     
5129: 00           NOP     
512a: 00           NOP     
512b: 00           NOP     
512c: 00           NOP     
512d: 00           NOP     
512e: 41           INR     A
512f: 00           NOP     
5130: 41           INR     A
5131: 36 08        SUINB   A,$08
5133: 00           NOP     
5134: 00           NOP     
5135: 00           NOP     
5136: 00           NOP     
5137: 00           NOP     
5138: 02           INX     SP
5139: 01 00        LDAW    VV:00
513b: 01 00        LDAW    VV:00
513d: 02           INX     SP
513e: 00           NOP     
513f: 02           INX     SP
5140: 01 00        LDAW    VV:00
5142: 00           NOP     
5143: 00           NOP     
5144: 00           NOP     
5145: 00           NOP     
5146: 00           NOP     
5147: 00           NOP     
5148: 00           NOP     
5149: 00           NOP     
514a: 00           NOP     
514b: 00           NOP     
514c: 00           NOP     
514d: 00           NOP     
514e: 00           NOP     
514f: 00           NOP     
5150: 38           illegal 
5151: 84           CALT    ($0088)
5152: 78 84        CALF    $0884
5154: 78 02        CALF    $0802
5156: 79 84        CALF    $0984
5158: 78 84        CALF    $0884
515a: 48 00        illegal 
515c: 38           illegal 
515d: 84           CALT    ($0088)
515e: 00           NOP     
515f: c4           JR      $5164
5160: 00           NOP     
5161: 42           INR     B
5162: 01 c4        LDAW    VV:C4
5164: 00           NOP     
5165: b4           PUSH    EA
5166: 48 00        illegal 
5168: 00           NOP     
5169: 00           NOP     
516a: 00           NOP     
516b: f4           JR      $5160
516c: 08           MOV     A,EAH
516d: 50           EXH     
516e: 20 40        INRW    VV:40
5170: 80           CALT    ($0080)
5171: 00           NOP     
5172: 00           NOP     
5173: 00           NOP     
5174: 00           NOP     
5175: 00           NOP     
5176: 81           CALT    ($0082)
5177: 42           INR     B
5178: a5           DMOV    EA,BC
5179: 58 a5        BIT     0,VV:A5
517b: 42           INR     B
517c: 81           CALT    ($0082)
517d: 00           NOP     
517e: 00           NOP     
517f: 00           NOP     
5180: 00           NOP     
5181: 00           NOP     
5182: 08           MOV     A,EAH
5183: 10           EXA     
5184: 60 10        XRA     V,A
5186: 08           MOV     A,EAH
5187: 04 02 00     LXI     SP,$0002
518a: 00           NOP     
518b: 00           NOP     
518c: 00           NOP     
518d: 00           NOP     
518e: 08           MOV     A,EAH
518f: 10           EXA     
5190: 60 10        XRA     V,A
5192: 08           MOV     A,EAH
5193: 04 02 00     LXI     SP,$0002
5196: 00           NOP     
5197: 00           NOP     
5198: 00           NOP     
5199: 20 50        INRW    VV:50
519b: a8           INX     EA
519c: 00           NOP     
519d: 20 00        INRW    VV:00
519f: 20 00        INRW    VV:00
51a1: 3f           STAX    (HL-)
51a2: 00           NOP     
51a3: 00           NOP     
51a4: 95           CALT    ($00AA)
51a5: 00           NOP     
51a6: 95           CALT    ($00AA)
51a7: 00           NOP     
51a8: 95           CALT    ($00AA)
51a9: 00           NOP     
51aa: 95           CALT    ($00AA)
51ab: 00           NOP     
51ac: 95           CALT    ($00AA)
51ad: 00           NOP     
51ae: 95           CALT    ($00AA)
51af: 00           NOP     
51b0: 08           MOV     A,EAH
51b1: 14 2a 41     LXI     BC,$412A
51b4: 08           MOV     A,EAH
51b5: 00           NOP     
51b6: 08           MOV     A,EAH
51b7: 00           NOP     
51b8: 08           MOV     A,EAH
51b9: 00           NOP     
51ba: 08           MOV     A,EAH
51bb: 00           NOP     
51bc: 00           NOP     
51bd: 80           CALT    ($0080)
51be: 00           NOP     
51bf: 00           NOP     
51c0: 00           NOP     
51c1: 80           CALT    ($0080)
51c2: 00           NOP     
51c3: 00           NOP     
51c4: 00           NOP     
51c5: 80           CALT    ($0080)
51c6: 00           NOP     
51c7: 00           NOP     
51c8: 00           NOP     
51c9: 00           NOP     
51ca: 10           EXA     
51cb: 20 40        INRW    VV:40
51cd: bf 40        STAX    (HL+$40)
51cf: 20 10        INRW    VV:10
51d1: 00           NOP     
51d2: 00           NOP     
51d3: 00           NOP     
51d4: 00           NOP     
51d5: 00           NOP     
51d6: 08           MOV     A,EAH
51d7: 04 02 fd     LXI     SP,$FD02
51da: 02           INX     SP
51db: 04 08 00     LXI     SP,$0008
51de: 00           NOP     
51df: 00           NOP     
51e0: 01 00        LDAW    VV:00
51e2: 01 00        LDAW    VV:00
51e4: 01 00        LDAW    VV:00
51e6: 01 00        LDAW    VV:00
51e8: 01 00        LDAW    VV:00
51ea: 01 00        LDAW    VV:00
51ec: 00           NOP     
51ed: 20 50        INRW    VV:50
51ef: a8           INX     EA
51f0: 00           NOP     
51f1: 20 00        INRW    VV:00
51f3: 20 00        INRW    VV:00
51f5: 3f           STAX    (HL-)
51f6: 00           NOP     
51f7: 00           NOP     
51f8: ff           JR      $51F8
51f9: 00           NOP     
51fa: ff           JR      $51FA
51fb: 00           NOP     
51fc: ff           JR      $51FC
51fd: 00           NOP     
51fe: ff           JR      $51FE
51ff: 00           NOP     
5200: ff           JR      $5200
5201: 00           NOP     
5202: 00           NOP     
5203: 00           NOP     
5204: 81           CALT    ($0082)
5205: 00           NOP     
5206: 89           CALT    ($0092)
5207: 14 2a 55     LXI     BC,$552A
520a: 08           MOV     A,EAH
520b: 00           NOP     
520c: 89           CALT    ($0092)
520d: 00           NOP     
520e: 89           CALT    ($0092)
520f: 00           NOP     
5210: 89           CALT    ($0092)
5211: 00           NOP     
5212: 89           CALT    ($0092)
5213: 00           NOP     
5214: 08           MOV     A,EAH
5215: 55 2a 14     OFFIW   VV:2A,$14
5218: 89           CALT    ($0092)
5219: 00           NOP     
521a: 81           CALT    ($0082)
521b: 00           NOP     
521c: c3           JR      $5220
521d: 00           NOP     
521e: 08           MOV     A,EAH
521f: 10           EXA     
5220: 28           illegal 
5221: 56 28        ACI     A,$28
5223: 10           EXA     
5224: 08           MOV     A,EAH
5225: 00           NOP     
5226: c3           JR      $522A
5227: 00           NOP     
5228: c3           JR      $522C
5229: 00           NOP     
522a: 10           EXA     
522b: 08           MOV     A,EAH
522c: 14 6a 14     LXI     BC,$146A
522f: 08           MOV     A,EAH
5230: 10           EXA     
5231: 00           NOP     
5232: c3           JR      $5236
5233: 00           NOP     
5234: 08           MOV     A,EAH
5235: 00           NOP     
5236: 08           MOV     A,EAH
5237: 00           NOP     
5238: 08           MOV     A,EAH
5239: 00           NOP     
523a: 08           MOV     A,EAH
523b: 00           NOP     
523c: 08           MOV     A,EAH
523d: 00           NOP     
523e: 08           MOV     A,EAH
523f: 00           NOP     
5240: ff           JR      $5240
5241: 00           NOP     
5242: 80           CALT    ($0080)
5243: 00           NOP     
5244: 80           CALT    ($0080)
5245: 00           NOP     
5246: 80           CALT    ($0080)
5247: 00           NOP     
5248: 80           CALT    ($0080)
5249: 00           NOP     
524a: 80           CALT    ($0080)
524b: 00           NOP     
524c: 08           MOV     A,EAH
524d: 00           NOP     
524e: 08           MOV     A,EAH
524f: 00           NOP     
5250: 08           MOV     A,EAH
5251: 00           NOP     
5252: 08           MOV     A,EAH
5253: 41           INR     A
5254: 2a           LDAX    (DE)
5255: 14 08 00     LXI     BC,$0008
5258: 55 aa 00     OFFIW   VV:AA,$00
525b: 55 aa 00     OFFIW   VV:AA,$00
525e: 55 aa 00     OFFIW   VV:AA,$00
5261: 55 aa 00     OFFIW   VV:AA,$00
5264: 55 aa 00     OFFIW   VV:AA,$00
5267: 55 aa 00     OFFIW   VV:AA,$00
526a: 55 aa 00     OFFIW   VV:AA,$00
526d: 55 aa 00     OFFIW   VV:AA,$00
5270: 00           NOP     
5271: 3c           STAX    (DE+)
5272: 42           INR     B
5273: 00           NOP     
5274: 42           INR     B
5275: 00           NOP     
5276: 42           INR     B
5277: 00           NOP     
5278: 46 00        ADI     A,$00
527a: 44 00 44     LXI     EA,$4400
527d: 00           NOP     
527e: 44 00 44     LXI     EA,$4400
5281: 00           NOP     
5282: 7c 00        CALF    $0C00
5284: 00           NOP     
5285: 00           NOP     
5286: 00           NOP     
5287: 00           NOP     
5288: 00           NOP     
5289: 00           NOP     
528a: 00           NOP     
528b: 00           NOP     
528c: 00           NOP     
528d: 00           NOP     
528e: 00           NOP     
528f: 00           NOP     
5290: 00           NOP     
5291: 00           NOP     
5292: ff           JR      $5292
5293: 00           NOP     
5294: 00           NOP     
5295: 00           NOP     
5296: 08           MOV     A,EAH
5297: 14 2a 55     LXI     BC,$552A
529a: 2a           LDAX    (DE)
529b: 14 08 00     LXI     BC,$0008
529e: 00           NOP     
529f: 00           NOP     
52a0: 81           CALT    ($0082)
52a1: 00           NOP     
52a2: 81           CALT    ($0082)
52a3: 00           NOP     
52a4: 81           CALT    ($0082)
52a5: 00           NOP     
52a6: 81           CALT    ($0082)
52a7: 00           NOP     
52a8: 81           CALT    ($0082)
52a9: 00           NOP     
52aa: 81           CALT    ($0082)
52ab: 00           NOP     
52ac: 00           NOP     
52ad: 00           NOP     
52ae: 14 00 77     LXI     BC,$7700
52b1: 00           NOP     
52b2: 77 00        EQI     A,$00
52b4: 14 00 00     LXI     BC,$0000
52b7: 00           NOP     
52b8: 81           CALT    ($0082)
52b9: 00           NOP     
52ba: 81           CALT    ($0082)
52bb: 08           MOV     A,EAH
52bc: 91           CALT    ($00A2)
52bd: 00           NOP     
52be: 81           CALT    ($0082)
52bf: 00           NOP     
52c0: ff           JR      $52C0
52c1: 00           NOP     
52c2: 00           NOP     
52c3: 00           NOP     
52c4: ff           JR      $52C4
52c5: 00           NOP     
52c6: 00           NOP     
52c7: 00           NOP     
52c8: 00           NOP     
52c9: 00           NOP     
52ca: 00           NOP     
52cb: 00           NOP     
52cc: 00           NOP     
52cd: 00           NOP     
52ce: 00           NOP     
52cf: 00           NOP     
52d0: 7e 09        CALF    $0E09
52d2: 09           MOV     A,EAL
52d3: 7f 49        CALF    $0F49
52d5: 49 41        MVIX    BC,$41
52d7: 00           NOP     
52d8: 24 54 54     LXI     DE,$5454
52db: 38           illegal 
52dc: 54 54 58     JMP     $5854
52df: 00           NOP     
52e0: ae           LDAX    (HL+EA)
52e1: 64 54        illegal 
52e3: 4c 3a        illegal 
52e5: 00           NOP     
52e6: 00           NOP     
52e7: 00           NOP     
52e8: 00           NOP     
52e9: 3e           STAX    (DE-)
52ea: 51           DCR     A
52eb: 49 45        MVIX    BC,$45
52ed: 3e           STAX    (DE-)
52ee: 00           NOP     
52ef: 00           NOP     
52f0: 00           NOP     
52f1: 48 3e        DIV     B
52f3: 49 49        MVIX    BC,$49
52f5: 42           INR     B
52f6: 00           NOP     
52f7: 00           NOP     
52f8: 00           NOP     
52f9: 4a 55        MVIX    DE,$55
52fb: 55 55 28     OFFIW   VV:55,$28
52fe: 00           NOP     
52ff: 00           NOP     
5300: 70 29        illegal 
5302: 24 22 24     LXI     DE,$2422
5305: 29           LDAX    (BC)
5306: 70 00        illegal 
5308: 00           NOP     
5309: 38           illegal 
530a: 45 44 45     ONIW    VV:44,$45
530d: 38           illegal 
530e: 00           NOP     
530f: 00           NOP     
5310: 70 28        illegal 
5312: 27 25        GTI     A,$25
5314: 27 28        GTI     A,$28
5316: 70 00        illegal 
5318: 00           NOP     
5319: 38           illegal 
531a: 54 56 55     JMP     $5556
531d: 18           MOV     EAH,A
531e: 00           NOP     
531f: 00           NOP     
5320: 00           NOP     
5321: 20 55        INRW    VV:55
5323: 54 55 38     JMP     $3855
5326: 40 00 00     CALL    $0000
5329: 20 57        INRW    VV:57
532b: 55 57 38     OFFIW   VV:57,$38
532e: 40 00 00     CALL    $0000
5331: 3c           STAX    (DE+)
5332: 41           INR     A
5333: 40 41 3c     CALL    $3C41
5336: 40 00 00     CALL    $0000
5339: 40 3e 25     CALL    $253E
533c: 25 25 1a     GTIW    VV:25,$1A
533f: 00           NOP     
5340: 00           NOP     
5341: 20 55        INRW    VV:55
5343: 56 54        ACI     A,$54
5345: 38           illegal 
5346: 40 00 00     CALL    $0000
5349: 00           NOP     
534a: 01 00        LDAW    VV:00
534c: 01 00        LDAW    VV:00
534e: 00           NOP     
534f: 00           NOP     
5350: 00           NOP     
5351: 38           illegal 
5352: d1           JR      $5364
5353: d1           JR      $5365
5354: f1           JR      $5346
5355: 44 00 00     LXI     EA,$0000
5358: 00           NOP     
5359: 38           illegal 
535a: 55 56 54     OFFIW   VV:56,$54
535d: 18           MOV     EAH,A
535e: 00           NOP     
535f: 00           NOP     
5360: 00           NOP     
5361: 00           NOP     
5362: 00           NOP     
5363: f9           JR      $535D
5364: 00           NOP     
5365: 00           NOP     
5366: 00           NOP     
5367: 00           NOP     
5368: 00           NOP     
5369: b0           PUSH    VA
536a: c8           JR      $5373
536b: c8           JR      $5374
536c: c5           JR      $5372
536d: c0           JR      $536E
536e: a0           POP     VA
536f: 00           NOP     
5370: 02           INX     SP
5371: 7d 05        CALF    $0D05
5373: 06           illegal 
5374: 06           illegal 
5375: 79 00        CALF    $0900
5377: 00           NOP     
5378: 02           INX     SP
5379: 7d 09        CALF    $0D09
537b: 12           INX     BC
537c: 22           INX     DE
537d: 7d 00        CALF    $0D00
537f: 00           NOP     
5380: 00           NOP     
5381: 00           NOP     
5382: 07 05        ANI     A,$05
5384: 07 00        ANI     A,$00
5386: 00           NOP     
5387: 00           NOP     
5388: 18           MOV     EAH,A
5389: 25 42 42     GTIW    VV:42,$42
538c: 42           INR     B
538d: 25 18 00     GTIW    VV:18,$00
5390: 00           NOP     
5391: 3c           STAX    (DE+)
5392: 41           INR     A
5393: 40 41 3c     CALL    $3C41
5396: 00           NOP     
5397: 00           NOP     
5398: 00           NOP     
5399: 3c           STAX    (DE+)
539a: 41           INR     A
539b: 42           INR     B
539c: 40 3c 40     CALL    $403C
539f: 00           NOP     
53a0: 00           NOP     
53a1: 38           illegal 
53a2: 45 46 44     ONIW    VV:46,$44
53a5: 38           illegal 
53a6: 00           NOP     
53a7: 00           NOP     
53a8: 00           NOP     
53a9: 00           NOP     
53aa: 49 7a        MVIX    BC,$7A
53ac: 40 00 00     CALL    $0000
53af: 00           NOP     
53b0: 00           NOP     
53b1: 00           NOP     
53b2: 00           NOP     
53b3: 00           NOP     
53b4: 00           NOP     
53b5: 00           NOP     
53b6: 00           NOP     
53b7: 00           NOP     
53b8: 00           NOP     
53b9: 00           NOP     
53ba: 00           NOP     
53bb: 4f 00        JRE     $52BD
53bd: 00           NOP     
53be: 00           NOP     
53bf: 00           NOP     
53c0: 00           NOP     
53c1: 00           NOP     
53c2: 07 00        ANI     A,$00
53c4: 07 00        ANI     A,$00
53c6: 00           NOP     
53c7: 00           NOP     
53c8: 00           NOP     
53c9: 14 7f 14     LXI     BC,$147F
53cc: 14 7f 14     LXI     BC,$147F
53cf: 00           NOP     
53d0: 04 2a 2a     LXI     SP,$2A2A
53d3: 7f 2a        CALF    $0F2A
53d5: 2a           LDAX    (DE)
53d6: 10           EXA     
53d7: 00           NOP     
53d8: 43           INR     C
53d9: 23           DCX     DE
53da: 10           EXA     
53db: 08           MOV     A,EAH
53dc: 04 62 61     LXI     SP,$6162
53df: 00           NOP     
53e0: 30 4e        DCRW    VV:4E
53e2: 49 56        MVIX    BC,$56
53e4: 20 50        INRW    VV:50
53e6: 48 00        illegal 
53e8: 00           NOP     
53e9: 00           NOP     
53ea: 04 02 01     LXI     SP,$0102
53ed: 00           NOP     
53ee: 00           NOP     
53ef: 00           NOP     
53f0: 00           NOP     
53f1: 00           NOP     
53f2: 1c           MOV     D,A
53f3: 22           INX     DE
53f4: 41           INR     A
53f5: 00           NOP     
53f6: 00           NOP     
53f7: 00           NOP     
53f8: 00           NOP     
53f9: 00           NOP     
53fa: 41           INR     A
53fb: 22           INX     DE
53fc: 1c           MOV     D,A
53fd: 00           NOP     
53fe: 00           NOP     
53ff: 00           NOP     
5400: 00           NOP     
5401: 08           MOV     A,EAH
5402: 2a           LDAX    (DE)
5403: 1c           MOV     D,A
5404: 1c           MOV     D,A
5405: 2a           LDAX    (DE)
5406: 08           MOV     A,EAH
5407: 00           NOP     
5408: 00           NOP     
5409: 08           MOV     A,EAH
540a: 08           MOV     A,EAH
540b: 3e           STAX    (DE-)
540c: 08           MOV     A,EAH
540d: 08           MOV     A,EAH
540e: 00           NOP     
540f: 00           NOP     
5410: 00           NOP     
5411: 00           NOP     
5412: 00           NOP     
5413: d8           JR      $542C
5414: b8           RET     
5415: 00           NOP     
5416: 00           NOP     
5417: 00           NOP     
5418: 00           NOP     
5419: 08           MOV     A,EAH
541a: 08           MOV     A,EAH
541b: 08           MOV     A,EAH
541c: 08           MOV     A,EAH
541d: 08           MOV     A,EAH
541e: 08           MOV     A,EAH
541f: 00           NOP     
5420: 00           NOP     
5421: 00           NOP     
5422: 00           NOP     
5423: 60 60        SUB     V,A
5425: 00           NOP     
5426: 00           NOP     
5427: 00           NOP     
5428: 40 20 10     CALL    $1020
542b: 08           MOV     A,EAH
542c: 04 02 01     LXI     SP,$0102
542f: 00           NOP     
5430: 00           NOP     
5431: 3e           STAX    (DE-)
5432: 41           INR     A
5433: 41           INR     A
5434: 41           INR     A
5435: 3e           STAX    (DE-)
5436: 00           NOP     
5437: 00           NOP     
5438: 00           NOP     
5439: 00           NOP     
543a: 42           INR     B
543b: 7f 40        CALF    $0F40
543d: 00           NOP     
543e: 00           NOP     
543f: 00           NOP     
5440: 00           NOP     
5441: 42           INR     B
5442: 61           DAA     
5443: 51           DCR     A
5444: 49 49        MVIX    BC,$49
5446: 46 00        ADI     A,$00
5448: 00           NOP     
5449: 22           INX     DE
544a: 41           INR     A
544b: 49 49        MVIX    BC,$49
544d: 49 36        MVIX    BC,$36
544f: 00           NOP     
5450: 00           NOP     
5451: 18           MOV     EAH,A
5452: 14 12 11     LXI     BC,$1112
5455: 7f 10        CALF    $0F10
5457: 00           NOP     
5458: 00           NOP     
5459: 27 45        GTI     A,$45
545b: 45 45 45     ONIW    VV:45,$45
545e: 39           STAX    (BC)
545f: 00           NOP     
5460: 00           NOP     
5461: 30 48        DCRW    VV:48
5463: 4c 4a        illegal 
5465: 49 30        MVIX    BC,$30
5467: 00           NOP     
5468: 00           NOP     
5469: 01 61        LDAW    VV:61
546b: 11           EXX     
546c: 09           MOV     A,EAL
546d: 05 03 00     ANIW    VV:03,$00
5470: 00           NOP     
5471: 36 49        SUINB   A,$49
5473: 49 49        MVIX    BC,$49
5475: 49 36        MVIX    BC,$36
5477: 00           NOP     
5478: 00           NOP     
5479: 06           illegal 
547a: 49 29        MVIX    BC,$29
547c: 19           MOV     EAL,A
547d: 09           MOV     A,EAL
547e: 06           illegal 
547f: 00           NOP     
5480: 00           NOP     
5481: 00           NOP     
5482: 00           NOP     
5483: 6c 6c        MVI     D,$6C
5485: 00           NOP     
5486: 00           NOP     
5487: 00           NOP     
5488: 00           NOP     
5489: 00           NOP     
548a: 00           NOP     
548b: db           JR      $54A7
548c: bb 00        STAX    (DE+$00)
548e: 00           NOP     
548f: 00           NOP     
5490: 00           NOP     
5491: 00           NOP     
5492: 08           MOV     A,EAH
5493: 14 22 41     LXI     BC,$4122
5496: 00           NOP     
5497: 00           NOP     
5498: 14 14 14     LXI     BC,$1414
549b: 14 14 14     LXI     BC,$1414
549e: 14 00 00     LXI     BC,$0000
54a1: 00           NOP     
54a2: 41           INR     A
54a3: 22           INX     DE
54a4: 14 08 00     LXI     BC,$0008
54a7: 00           NOP     
54a8: 00           NOP     
54a9: 02           INX     SP
54aa: 01 51        LDAW    VV:51
54ac: 09           MOV     A,EAL
54ad: 09           MOV     A,EAL
54ae: 06           illegal 
54af: 00           NOP     
54b0: 00           NOP     
54b1: 02           INX     SP
54b2: 71 49 79     MVIW    VV:49,$79
54b5: 41           INR     A
54b6: 3e           STAX    (DE-)
54b7: 00           NOP     
54b8: 78 14        CALF    $0814
54ba: 12           INX     BC
54bb: 11           EXX     
54bc: 12           INX     BC
54bd: 14 78 00     LXI     BC,$0078
54c0: 00           NOP     
54c1: 7f 49        CALF    $0F49
54c3: 49 49        MVIX    BC,$49
54c5: 49 36        MVIX    BC,$36
54c7: 00           NOP     
54c8: 00           NOP     
54c9: 3e           STAX    (DE-)
54ca: 41           INR     A
54cb: 41           INR     A
54cc: 41           INR     A
54cd: 41           INR     A
54ce: 22           INX     DE
54cf: 00           NOP     
54d0: 00           NOP     
54d1: 7f 41        CALF    $0F41
54d3: 41           INR     A
54d4: 41           INR     A
54d5: 22           INX     DE
54d6: 1c           MOV     D,A
54d7: 00           NOP     
54d8: 00           NOP     
54d9: 7f 49        CALF    $0F49
54db: 49 49        MVIX    BC,$49
54dd: 49 41        MVIX    BC,$41
54df: 00           NOP     
54e0: 00           NOP     
54e1: 7f 09        CALF    $0F09
54e3: 09           MOV     A,EAL
54e4: 09           MOV     A,EAL
54e5: 09           MOV     A,EAL
54e6: 01 00        LDAW    VV:00
54e8: 00           NOP     
54e9: 3e           STAX    (DE-)
54ea: 41           INR     A
54eb: 41           INR     A
54ec: 49 49        MVIX    BC,$49
54ee: 3a           STAX    (DE)
54ef: 00           NOP     
54f0: 00           NOP     
54f1: 7f 08        CALF    $0F08
54f3: 08           MOV     A,EAH
54f4: 08           MOV     A,EAH
54f5: 08           MOV     A,EAH
54f6: 7f 00        CALF    $0F00
54f8: 00           NOP     
54f9: 00           NOP     
54fa: 41           INR     A
54fb: 7f 41        CALF    $0F41
54fd: 00           NOP     
54fe: 00           NOP     
54ff: 00           NOP     
5500: 00           NOP     
5501: 30 40        DCRW    VV:40
5503: 40 41 3f     CALL    $3F41
5506: 01 00        LDAW    VV:00
5508: 00           NOP     
5509: 7f 08        CALF    $0F08
550b: 08           MOV     A,EAH
550c: 14 22 41     LXI     BC,$4122
550f: 00           NOP     
5510: 00           NOP     
5511: 7f 40        CALF    $0F40
5513: 40 40 40     CALL    $4040
5516: 40 00 7f     CALL    $7F00
5519: 02           INX     SP
551a: 04 08 04     LXI     SP,$0408
551d: 02           INX     SP
551e: 7f 00        CALF    $0F00
5520: 7f 02        CALF    $0F02
5522: 04 08 10     LXI     SP,$1008
5525: 20 7f        INRW    VV:7F
5527: 00           NOP     
5528: 00           NOP     
5529: 3e           STAX    (DE-)
552a: 41           INR     A
552b: 41           INR     A
552c: 41           INR     A
552d: 41           INR     A
552e: 3e           STAX    (DE-)
552f: 00           NOP     
5530: 00           NOP     
5531: 7f 09        CALF    $0F09
5533: 09           MOV     A,EAL
5534: 09           MOV     A,EAL
5535: 09           MOV     A,EAL
5536: 06           illegal 
5537: 00           NOP     
5538: 00           NOP     
5539: 3e           STAX    (DE-)
553a: 41           INR     A
553b: 41           INR     A
553c: 51           DCR     A
553d: 21           JB      
553e: 5e 00        BIT     6,VV:00
5540: 00           NOP     
5541: 7f 09        CALF    $0F09
5543: 09           MOV     A,EAL
5544: 19           MOV     EAL,A
5545: 29           LDAX    (BC)
5546: 46 00        ADI     A,$00
5548: 00           NOP     
5549: 26 49        ADINC   A,$49
554b: 49 49        MVIX    BC,$49
554d: 49 32        MVIX    BC,$32
554f: 00           NOP     
5550: 01 01        LDAW    VV:01
5552: 01 7f        LDAW    VV:7F
5554: 01 01        LDAW    VV:01
5556: 01 00        LDAW    VV:00
5558: 00           NOP     
5559: 3f           STAX    (HL-)
555a: 40 40 40     CALL    $4040
555d: 40 3f 00     CALL    $003F
5560: 0f           MOV     A,L
5561: 10           EXA     
5562: 20 40        INRW    VV:40
5564: 20 10        INRW    VV:10
5566: 0f           MOV     A,L
5567: 00           NOP     
5568: 3f           STAX    (HL-)
5569: 40 20 18     CALL    $1820
556c: 20 40        INRW    VV:40
556e: 3f           STAX    (HL-)
556f: 00           NOP     
5570: 41           INR     A
5571: 22           INX     DE
5572: 14 08 14     LXI     BC,$1408
5575: 22           INX     DE
5576: 41           INR     A
5577: 00           NOP     
5578: 01 02        LDAW    VV:02
557a: 04 78 04     LXI     SP,$0478
557d: 02           INX     SP
557e: 01 00        LDAW    VV:00
5580: 00           NOP     
5581: 61           DAA     
5582: 51           DCR     A
5583: 49 45        MVIX    BC,$45
5585: 43           INR     C
5586: 00           NOP     
5587: 00           NOP     
5588: 00           NOP     
5589: 00           NOP     
558a: 7f 41        CALF    $0F41
558c: 41           INR     A
558d: 00           NOP     
558e: 00           NOP     
558f: 00           NOP     
5590: 00           NOP     
5591: 01 02        LDAW    VV:02
5593: 04 08 10     LXI     SP,$1008
5596: 20 40        INRW    VV:40
5598: 00           NOP     
5599: 00           NOP     
559a: 41           INR     A
559b: 41           INR     A
559c: 7f 00        CALF    $0F00
559e: 00           NOP     
559f: 00           NOP     
55a0: 00           NOP     
55a1: 00           NOP     
55a2: 02           INX     SP
55a3: 01 02        LDAW    VV:02
55a5: 00           NOP     
55a6: 00           NOP     
55a7: 00           NOP     
55a8: c0           JR      $55A9
55a9: c0           JR      $55AA
55aa: c0           JR      $55AB
55ab: c0           JR      $55AC
55ac: c0           JR      $55AD
55ad: c0           JR      $55AE
55ae: c0           JR      $55AF
55af: c0           JR      $55B0
55b0: 00           NOP     
55b1: 00           NOP     
55b2: 01 02        LDAW    VV:02
55b4: 04 00 00     LXI     SP,$0000
55b7: 00           NOP     
55b8: 00           NOP     
55b9: 20 54        INRW    VV:54
55bb: 54 54 38     JMP     $3854
55be: 40 00 00     CALL    $0000
55c1: 7f 44        CALF    $0F44
55c3: 44 44 44     LXI     EA,$4444
55c6: 38           illegal 
55c7: 00           NOP     
55c8: 00           NOP     
55c9: 38           illegal 
55ca: 44 44 44     LXI     EA,$4444
55cd: 44 00 00     LXI     EA,$0000
55d0: 00           NOP     
55d1: 38           illegal 
55d2: 44 44 44     LXI     EA,$4444
55d5: 44 7f 00     LXI     EA,$007F
55d8: 00           NOP     
55d9: 38           illegal 
55da: 54 54 54     JMP     $5454
55dd: 18           MOV     EAH,A
55de: 00           NOP     
55df: 00           NOP     
55e0: 00           NOP     
55e1: 08           MOV     A,EAH
55e2: 08           MOV     A,EAH
55e3: 7e 09        CALF    $0E09
55e5: 09           MOV     A,EAL
55e6: 00           NOP     
55e7: 00           NOP     
55e8: 00           NOP     
55e9: 38           illegal 
55ea: d1           JR      $55FC
55eb: d1           JR      $55FD
55ec: d1           JR      $55FE
55ed: d1           JR      $55FF
55ee: be           STAX    (HL+EA)
55ef: 00           NOP     
55f0: 00           NOP     
55f1: 7f 04        CALF    $0F04
55f3: 04 04 78     LXI     SP,$7804
55f6: 00           NOP     
55f7: 00           NOP     
55f8: 00           NOP     
55f9: 00           NOP     
55fa: 00           NOP     
55fb: 7d 00        CALF    $0D00
55fd: 00           NOP     
55fe: 00           NOP     
55ff: 00           NOP     
5600: 00           NOP     
5601: 40 a0 a0     CALL    $A0A0
5604: 7d 00        CALF    $0D00
5606: 00           NOP     
5607: 00           NOP     
5608: 00           NOP     
5609: 7f 10        CALF    $0F10
560b: 18           MOV     EAH,A
560c: 24 42 00     LXI     DE,$0042
560f: 00           NOP     
5610: 00           NOP     
5611: 00           NOP     
5612: 01 7f        LDAW    VV:7F
5614: 00           NOP     
5615: 00           NOP     
5616: 00           NOP     
5617: 00           NOP     
5618: 7c 04        CALF    $0C04
561a: 04 7c 04     LXI     SP,$047C
561d: 04 78 00     LXI     SP,$0078
5620: 00           NOP     
5621: 7c 04        CALF    $0C04
5623: 04 04 78     LXI     SP,$7804
5626: 00           NOP     
5627: 00           NOP     
5628: 00           NOP     
5629: 38           illegal 
562a: 44 44 44     LXI     EA,$4444
562d: 44 38 00     LXI     EA,$0038
5630: 00           NOP     
5631: ff           JR      $5631
5632: 44 44 44     LXI     EA,$4444
5635: 38           illegal 
5636: 00           NOP     
5637: 00           NOP     
5638: 00           NOP     
5639: 38           illegal 
563a: 44 44 44     LXI     EA,$4444
563d: ff           JR      $563D
563e: 00           NOP     
563f: 00           NOP     
5640: 00           NOP     
5641: 7c 04        CALF    $0C04
5643: 04 04 08     LXI     SP,$0804
5646: 00           NOP     
5647: 00           NOP     
5648: 00           NOP     
5649: 08           MOV     A,EAH
564a: 54 54 54     JMP     $5454
564d: 54 20 00     JMP     $0020
5650: 00           NOP     
5651: 00           NOP     
5652: 04 3f 44     LXI     SP,$443F
5655: 44 00 00     LXI     EA,$0000
5658: 00           NOP     
5659: 3c           STAX    (DE+)
565a: 40 40 40     CALL    $4040
565d: 7c 00        CALF    $0C00
565f: 00           NOP     
5660: 00           NOP     
5661: 1c           MOV     D,A
5662: 20 40        INRW    VV:40
5664: 20 1c        INRW    VV:1C
5666: 00           NOP     
5667: 00           NOP     
5668: 3c           STAX    (DE+)
5669: 40 20 18     CALL    $1820
566c: 20 40        INRW    VV:40
566e: 3c           STAX    (DE+)
566f: 00           NOP     
5670: 00           NOP     
5671: 44 28 10     LXI     EA,$1028
5674: 28           illegal 
5675: 44 00 00     LXI     EA,$0000
5678: 00           NOP     
5679: a1           POP     BC
567a: 48 30        illegal 
567c: 10           EXA     
567d: 08           MOV     A,EAH
567e: 04 00 00     LXI     SP,$0000
5681: 44 64 54     LXI     EA,$5464
5684: 4c 44        illegal 
5686: 00           NOP     
5687: 00           NOP     
5688: 00           NOP     
5689: 00           NOP     
568a: 08           MOV     A,EAH
568b: 36 41        SUINB   A,$41
568d: 41           INR     A
568e: 00           NOP     
568f: 00           NOP     
5690: 00           NOP     
5691: 00           NOP     
5692: 00           NOP     
5693: 7f 00        CALF    $0F00
5695: 00           NOP     
5696: 00           NOP     
5697: 00           NOP     
5698: 00           NOP     
5699: 00           NOP     
569a: 41           INR     A
569b: 41           INR     A
569c: 36 08        SUINB   A,$08
569e: 00           NOP     
569f: 00           NOP     
56a0: 02           INX     SP
56a1: 01 01        LDAW    VV:01
56a3: 02           INX     SP
56a4: 02           INX     SP
56a5: 01 00        LDAW    VV:00
56a7: 00           NOP     
56a8: 00           NOP     
56a9: 00           NOP     
56aa: 00           NOP     
56ab: 00           NOP     
56ac: 00           NOP     
56ad: 00           NOP     
56ae: 00           NOP     
56af: 00           NOP     
56b0: 38           illegal 
56b1: fc           JR      $56AE
56b2: fc           JR      $56AF
56b3: 7a fd        CALF    $0AFD
56b5: fc           JR      $56B2
56b6: 48 00        illegal 
56b8: 38           illegal 
56b9: c4           JR      $56BE
56ba: 84           CALT    ($0088)
56bb: 42           INR     B
56bc: 85           CALT    ($008A)
56bd: b4           PUSH    EA
56be: 48 00        illegal 
56c0: 00           NOP     
56c1: fc           JR      $56BE
56c2: 78 30        CALF    $0830
56c4: 60 40        ADD     V,A
56c6: 80           CALT    ($0080)
56c7: 00           NOP     
56c8: 81           CALT    ($0082)
56c9: c3           JR      $56CD
56ca: a5           DMOV    EA,BC
56cb: d9           JR      $56E5
56cc: a5           DMOV    EA,BC
56cd: c3           JR      $56D1
56ce: 81           CALT    ($0082)
56cf: 00           NOP     
56d0: 08           MOV     A,EAH
56d1: 10           EXA     
56d2: 60 10        XRA     V,A
56d4: 08           MOV     A,EAH
56d5: 04 02 00     LXI     SP,$0002
56d8: 08           MOV     A,EAH
56d9: 10           EXA     
56da: 60 10        XRA     V,A
56dc: 08           MOV     A,EAH
56dd: 04 02 00     LXI     SP,$0002
56e0: 20 70        INRW    VV:70
56e2: f8           JR      $56DB
56e3: 20 20        INRW    VV:20
56e5: 20 3f        INRW    VV:3F
56e7: 00           NOP     
56e8: 95           CALT    ($00AA)
56e9: 95           CALT    ($00AA)
56ea: 95           CALT    ($00AA)
56eb: 95           CALT    ($00AA)
56ec: 95           CALT    ($00AA)
56ed: 95           CALT    ($00AA)
56ee: 95           CALT    ($00AA)
56ef: 95           CALT    ($00AA)
56f0: 08           MOV     A,EAH
56f1: 1c           MOV     D,A
56f2: 2a           LDAX    (DE)
56f3: 49 08        MVIX    BC,$08
56f5: 08           MOV     A,EAH
56f6: 08           MOV     A,EAH
56f7: 08           MOV     A,EAH
56f8: 00           NOP     
56f9: 80           CALT    ($0080)
56fa: 00           NOP     
56fb: 80           CALT    ($0080)
56fc: 00           NOP     
56fd: 80           CALT    ($0080)
56fe: 00           NOP     
56ff: 00           NOP     
5700: 10           EXA     
5701: 20 40        INRW    VV:40
5703: ff           JR      $5703
5704: 40 20 10     CALL    $1020
5707: 00           NOP     
5708: 08           MOV     A,EAH
5709: 04 02 ff     LXI     SP,$FF02
570c: 02           INX     SP
570d: 04 08 00     LXI     SP,$0008
5710: 01 01        LDAW    VV:01
5712: 01 01        LDAW    VV:01
5714: 01 01        LDAW    VV:01
5716: 01 01        LDAW    VV:01
5718: 20 70        INRW    VV:70
571a: f8           JR      $5713
571b: 20 20        INRW    VV:20
571d: 20 3f        INRW    VV:3F
571f: 00           NOP     
5720: ff           JR      $5720
5721: ff           JR      $5721
5722: ff           JR      $5722
5723: ff           JR      $5723
5724: ff           JR      $5724
5725: ff           JR      $5725
5726: ff           JR      $5726
5727: 00           NOP     
5728: 81           CALT    ($0082)
5729: 89           CALT    ($0092)
572a: 9c           CALT    ($00B8)
572b: be           STAX    (HL+EA)
572c: 7f 88        CALF    $0F88
572e: 88           CALT    ($0090)
572f: 81           CALT    ($0082)
5730: 81           CALT    ($0082)
5731: 88           CALT    ($0090)
5732: 88           CALT    ($0090)
5733: 7f be        CALF    $0FBE
5735: 9c           CALT    ($00B8)
5736: 89           CALT    ($0092)
5737: 81           CALT    ($0082)
5738: c3           JR      $573C
5739: 08           MOV     A,EAH
573a: 18           MOV     EAH,A
573b: 38           illegal 
573c: 7e 38        CALF    $0E38
573e: 18           MOV     EAH,A
573f: cb           JR      $574B
5740: c3           JR      $5744
5741: 10           EXA     
5742: 18           MOV     EAH,A
5743: 1c           MOV     D,A
5744: 7e 1c        CALF    $0E1C
5746: 18           MOV     EAH,A
5747: d3           JR      $575B
5748: 08           MOV     A,EAH
5749: 08           MOV     A,EAH
574a: 08           MOV     A,EAH
574b: 08           MOV     A,EAH
574c: 08           MOV     A,EAH
574d: 08           MOV     A,EAH
574e: 08           MOV     A,EAH
574f: 08           MOV     A,EAH
5750: ff           JR      $5750
5751: 80           CALT    ($0080)
5752: 80           CALT    ($0080)
5753: 80           CALT    ($0080)
5754: 80           CALT    ($0080)
5755: 80           CALT    ($0080)
5756: 80           CALT    ($0080)
5757: 80           CALT    ($0080)
5758: 08           MOV     A,EAH
5759: 08           MOV     A,EAH
575a: 08           MOV     A,EAH
575b: 49 2a        MVIX    BC,$2A
575d: 1c           MOV     D,A
575e: 08           MOV     A,EAH
575f: 00           NOP     
5760: aa           EI      
5761: 55 aa 55     OFFIW   VV:AA,$55
5764: aa           EI      
5765: 55 aa 55     OFFIW   VV:AA,$55
5768: aa           EI      
5769: 55 aa 55     OFFIW   VV:AA,$55
576c: aa           EI      
576d: 55 aa 55     OFFIW   VV:AA,$55
5770: 00           NOP     
5771: 00           NOP     
5772: 7c 42        CALF    $0C42
5774: 42           INR     B
5775: 42           INR     B
5776: 42           INR     B
5777: 46 44        ADI     A,$44
5779: 44 44 44     LXI     EA,$4444
577c: 44 78 00     LXI     EA,$0078
577f: 00           NOP     
5780: 00           NOP     
5781: 00           NOP     
5782: 00           NOP     
5783: 00           NOP     
5784: 00           NOP     
5785: 00           NOP     
5786: 00           NOP     
5787: ff           JR      $5787
5788: 08           MOV     A,EAH
5789: 1c           MOV     D,A
578a: 3e           STAX    (DE-)
578b: 7f 3e        CALF    $0F3E
578d: 1c           MOV     D,A
578e: 08           MOV     A,EAH
578f: 00           NOP     
5790: 81           CALT    ($0082)
5791: 81           CALT    ($0082)
5792: 81           CALT    ($0082)
5793: 81           CALT    ($0082)
5794: 81           CALT    ($0082)
5795: 81           CALT    ($0082)
5796: 81           CALT    ($0082)
5797: 81           CALT    ($0082)
5798: 14 14 77     LXI     BC,$7714
579b: 00           NOP     
579c: 77 14        EQI     A,$14
579e: 14 00 81     LXI     BC,$8100
57a1: 81           CALT    ($0082)
57a2: 99           CALT    ($00B2)
57a3: 99           CALT    ($00B2)
57a4: 81           CALT    ($0082)
57a5: 81           CALT    ($0082)
57a6: ff           JR      $57A6
57a7: 00           NOP     
57a8: ff           JR      $57A8
57a9: 00           NOP     
57aa: 00           NOP     
57ab: 00           NOP     
57ac: 00           NOP     
57ad: 00           NOP     
57ae: 00           NOP     
57af: 00           NOP     
57b0: 12           INX     BC
57b1: 24 59 10     LXI     DE,$1059
57b4: 38           illegal 
57b5: 59 0b        BIT     1,VV:0B
57b7: 4c 59        illegal 
57b9: 0c           MOV     A,D
57ba: 5b 59        BIT     3,VV:59
57bc: 0d           MOV     A,E
57bd: 67 59        NEI     A,$59
57bf: 0c           MOV     A,D
57c0: 74 59 10     OFFI    A,$10
57c3: 80           CALT    ($0080)
57c4: 59 0c        BIT     1,VV:0C
57c6: 90           CALT    ($00A0)
57c7: 59 10        BIT     1,VV:10
57c9: 9c           CALT    ($00B8)
57ca: 59 0c        BIT     1,VV:0C
57cc: ac           LDAX    (HL+A)
57cd: 59 0c        BIT     1,VV:0C
57cf: b8           RET     
57d0: 59 0c        BIT     1,VV:0C
57d2: c4           JR      $57D7
57d3: 59 0c        BIT     1,VV:0C
57d5: d0           JR      $57E6
57d6: 59 0e        BIT     1,VV:0E
57d8: dc           JR      $57F5
57d9: 59 0c        BIT     1,VV:0C
57db: ea           JR      $57C6
57dc: 59 0d        BIT     1,VV:0D
57de: f6           JR      $57D5
57df: 59 0a        BIT     1,VV:0A
57e1: 03           DCX     SP
57e2: 5a 0c        BIT     2,VV:0C
57e4: 0d           MOV     A,E
57e5: 5a 07        BIT     2,VV:07
57e7: 19           MOV     EAL,A
57e8: 5a 0c        BIT     2,VV:0C
57ea: 20 5a        INRW    VV:5A
57ec: 0c           MOV     A,D
57ed: 2c           LDAX    (DE+)
57ee: 5a 10        BIT     2,VV:10
57f0: 38           illegal 
57f1: 5a 0d        BIT     2,VV:0D
57f3: 48 5a        illegal 
57f5: 0f           MOV     A,L
57f6: 55 5a 0f     OFFIW   VV:5A,$0F
57f9: 64 5a 0c     OFFI    PC,$0C
57fc: 73           illegal 
57fd: 5a 0c        BIT     2,VV:0C
57ff: 7f 5a        CALF    $0F5A
5801: 08           MOV     A,EAH
5802: 8b           CALT    ($0096)
5803: 5a 07        BIT     2,VV:07
5805: 93           CALT    ($00A6)
5806: 5a 07        BIT     2,VV:07
5808: 9a           CALT    ($00B4)
5809: 5a 0a        BIT     2,VV:0A
580b: a1           POP     BC
580c: 5a 0e        BIT     2,VV:0E
580e: ab 5a        LDAX    (DE+$5A)
5810: 0c           MOV     A,D
5811: b9           RETS    
5812: 5a 10        BIT     2,VV:10
5814: c5           JR      $581A
5815: 5a 0d        BIT     2,VV:0D
5817: d5           JR      $582D
5818: 5a 07        BIT     2,VV:07
581a: e2           JR      $57FD
581b: 5a 07        BIT     2,VV:07
581d: e9           JR      $5807
581e: 5a 07        BIT     2,VV:07
5820: f0           JR      $5811
5821: 5a 0c        BIT     2,VV:0C
5823: f7           JR      $581B
5824: 5a 0c        BIT     2,VV:0C
5826: 03           DCX     SP
5827: 5b 07        BIT     3,VV:07
5829: 0f           MOV     A,L
582a: 5b 0c        BIT     3,VV:0C
582c: 16 5b        XRI     A,$5B
582e: 07 22        ANI     A,$22
5830: 5b 0c        BIT     3,VV:0C
5832: 29           LDAX    (BC)
5833: 5b 0c        BIT     3,VV:0C
5835: 35 5b 0c     LTIW    VV:5B,$0C
5838: 41           INR     A
5839: 5b 0c        BIT     3,VV:0C
583b: 4d 5b        illegal 
583d: 0c           MOV     A,D
583e: 59 5b        BIT     1,VV:5B
5840: 0c           MOV     A,D
5841: 65 5b 0c     NEIW    VV:5B,$0C
5844: 71 5b 0c     MVIW    VV:5B,$0C
5847: 7d 5b        CALF    $0D5B
5849: 0c           MOV     A,D
584a: 89           CALT    ($0092)
584b: 5b 0c        BIT     3,VV:0C
584d: 95           CALT    ($00AA)
584e: 5b 0c        BIT     3,VV:0C
5850: a1           POP     BC
5851: 5b 07        BIT     3,VV:07
5853: ad           LDAX    (HL+B)
5854: 5b 07        BIT     3,VV:07
5856: b4           PUSH    EA
5857: 5b 0c        BIT     3,VV:0C
5859: bb 5b        STAX    (DE+$5B)
585b: 0c           MOV     A,D
585c: c7           JR      $5864
585d: 5b 0c        BIT     3,VV:0C
585f: d3           JR      $5873
5860: 5b 0c        BIT     3,VV:0C
5862: df           JR      $5882
5863: 5b 0e        BIT     3,VV:0E
5865: eb           JR      $5851
5866: 5b 10        BIT     3,VV:10
5868: f9           JR      $5862
5869: 5b 0f        BIT     3,VV:0F
586b: 09           MOV     A,EAL
586c: 5c 0e        BIT     4,VV:0E
586e: 18           MOV     EAH,A
586f: 5c 0f        BIT     4,VV:0F
5871: 26 5c        ADINC   A,$5C
5873: 0f           MOV     A,L
5874: 35 5c 0f     LTIW    VV:5C,$0F
5877: 44 5c 0e     LXI     EA,$0E5C
587a: 53           DCR     C
587b: 5c 0f        BIT     4,VV:0F
587d: 61           DAA     
587e: 5c 09        BIT     4,VV:09
5880: 70 5c        illegal 
5882: 0d           MOV     A,E
5883: 79 5c        CALF    $095C
5885: 0c           MOV     A,D
5886: 86           CALT    ($008C)
5887: 5c 0d        BIT     4,VV:0D
5889: 92           CALT    ($00A4)
588a: 5c 11        BIT     4,VV:11
588c: 9f           CALT    ($00BE)
588d: 5c 10        BIT     4,VV:10
588f: b0           PUSH    VA
5890: 5c 0f        BIT     4,VV:0F
5892: c0           JR      $5893
5893: 5c 0d        BIT     4,VV:0D
5895: cf           JR      $58A5
5896: 5c 10        BIT     4,VV:10
5898: dc           JR      $58B5
5899: 5c 0f        BIT     4,VV:0F
589b: ec           JR      $5888
589c: 5c 0c        BIT     4,VV:0C
589e: fb           JR      $589A
589f: 5c 0e        BIT     4,VV:0E
58a1: 07 5d        ANI     A,$5D
58a3: 0f           MOV     A,L
58a4: 15 5d 10     ORIW    VV:5D,$10
58a7: 24 5d 11     LXI     DE,$115D
58aa: 34 5d 0b     LXI     HL,$0B5D
58ad: 45 5d 0e     ONIW    VV:5D,$0E
58b0: 50           EXH     
58b1: 5d 0b        BIT     5,VV:0B
58b3: 5e 5d        BIT     6,VV:5D
58b5: 0c           MOV     A,D
58b6: 69 5d        MVI     A,$5D
58b8: 0c           MOV     A,D
58b9: 75 5d 0c     EQIW    VV:5D,$0C
58bc: 81           CALT    ($0082)
58bd: 5d 0c        BIT     5,VV:0C
58bf: 8d           CALT    ($009A)
58c0: 5d 11        BIT     5,VV:11
58c2: 99           CALT    ($00B2)
58c3: 5d 07        BIT     5,VV:07
58c5: aa           EI      
58c6: 5d 0c        BIT     5,VV:0C
58c8: b1           PUSH    BC
58c9: 5d 0c        BIT     5,VV:0C
58cb: bd           STAX    (HL+B)
58cc: 5d 0a        BIT     5,VV:0A
58ce: c9           JR      $58D8
58cf: 5d 0c        BIT     5,VV:0C
58d1: d3           JR      $58E5
58d2: 5d 0c        BIT     5,VV:0C
58d4: df           JR      $58F4
58d5: 5d 0a        BIT     5,VV:0A
58d7: eb           JR      $58C3
58d8: 5d 0c        BIT     5,VV:0C
58da: f5           JR      $58D0
58db: 5d 0c        BIT     5,VV:0C
58dd: 01 5e        LDAW    VV:5E
58df: 08           MOV     A,EAH
58e0: 0d           MOV     A,E
58e1: 5e 07        BIT     6,VV:07
58e3: 15 5e 0a     ORIW    VV:5E,$0A
58e6: 1c           MOV     D,A
58e7: 5e 08        BIT     6,VV:08
58e9: 26 5e        ADINC   A,$5E
58eb: 10           EXA     
58ec: 2e           LDAX    (DE-)
58ed: 5e 0c        BIT     6,VV:0C
58ef: 3e           STAX    (DE-)
58f0: 5e 0c        BIT     6,VV:0C
58f2: 4a 5e        MVIX    DE,$5E
58f4: 0c           MOV     A,D
58f5: 56 5e        ACI     A,$5E
58f7: 0c           MOV     A,D
58f8: 62           RETI    
58f9: 5e 0a        BIT     6,VV:0A
58fb: 6e 5e        MVI     H,$5E
58fd: 0c           MOV     A,D
58fe: 78 5e        CALF    $085E
5900: 0a           MOV     A,B
5901: 84           CALT    ($0088)
5902: 5e 0c        BIT     6,VV:0C
5904: 8e           CALT    ($009C)
5905: 5e 0c        BIT     6,VV:0C
5907: 9a           CALT    ($00B4)
5908: 5e 10        BIT     6,VV:10
590a: a6           DMOV    EA,DE
590b: 5e 0c        BIT     6,VV:0C
590d: b6           DMOV    DE,EA
590e: 5e 0c        BIT     6,VV:0C
5910: c2           JR      $5913
5911: 5e 0a        BIT     6,VV:0A
5913: ce           JR      $5922
5914: 5e 0a        BIT     6,VV:0A
5916: d8           JR      $592F
5917: 5e 07        BIT     6,VV:07
5919: e2           JR      $58FC
591a: 5e 0a        BIT     6,VV:0A
591c: e9           JR      $5906
591d: 5e 0d        BIT     6,VV:0D
591f: f3           JR      $5913
5920: 5e 07        BIT     6,VV:07
5922: 00           NOP     
5923: 5f 00        BIT     7,VV:00
5925: 78 0c        CALF    $080C
5927: 0a           MOV     A,B
5928: 09           MOV     A,EAL
5929: 09           MOV     A,EAL
592a: 09           MOV     A,EAL
592b: 09           MOV     A,EAL
592c: 7f 49        CALF    $0F49
592e: 49 49        MVIX    BC,$49
5930: 49 49        MVIX    BC,$49
5932: 41           INR     A
5933: 41           INR     A
5934: 00           NOP     
5935: 00           NOP     
5936: 00           NOP     
5937: 00           NOP     
5938: 00           NOP     
5939: 20 54        INRW    VV:54
593b: 54 54 54     JMP     $5454
593e: 54 38 54     JMP     $5438
5941: 54 54 54     JMP     $5454
5944: 54 18 00     JMP     $0018
5947: 00           NOP     
5948: 00           NOP     
5949: 00           NOP     
594a: 00           NOP     
594b: 00           NOP     
594c: 00           NOP     
594d: ae           LDAX    (HL+EA)
594e: 44 64 54     LXI     EA,$5464
5951: 54 4c 44     JMP     $444C
5954: 3a           STAX    (DE)
5955: 00           NOP     
5956: 00           NOP     
5957: 00           NOP     
5958: 00           NOP     
5959: 00           NOP     
595a: 00           NOP     
595b: 00           NOP     
595c: 1c           MOV     D,A
595d: 22           INX     DE
595e: 51           DCR     A
595f: 49 49        MVIX    BC,$49
5961: 45 22 1c     ONIW    VV:22,$1C
5964: 00           NOP     
5965: 00           NOP     
5966: 00           NOP     
5967: 00           NOP     
5968: 48 48        SKIT    FAD
596a: 3c           STAX    (DE+)
596b: 6a 49        MVI     B,$49
596d: 49 49        MVIX    BC,$49
596f: 42           INR     B
5970: 40 00 00     CALL    $0000
5973: 00           NOP     
5974: 00           NOP     
5975: 00           NOP     
5976: 0a           MOV     A,B
5977: 55 55 55     OFFIW   VV:55,$55
597a: 55 55 28     OFFIW   VV:55,$28
597d: 00           NOP     
597e: 00           NOP     
597f: 00           NOP     
5980: 00           NOP     
5981: 40 60 10     CALL    $1060
5984: 19           MOV     EAL,A
5985: 14 12 12     LXI     BC,$1212
5988: 12           INX     BC
5989: 14 19 10     LXI     BC,$1019
598c: 60 40        ADD     V,A
598e: 00           NOP     
598f: 00           NOP     
5990: 00           NOP     
5991: 00           NOP     
5992: 38           illegal 
5993: 45 44 44     ONIW    VV:44,$44
5996: 44 45 38     LXI     EA,$3845
5999: 00           NOP     
599a: 00           NOP     
599b: 00           NOP     
599c: 00           NOP     
599d: 40 60 10     CALL    $1060
59a0: 18           MOV     EAH,A
59a1: 16 15        XRI     A,$15
59a3: 15 15 16     ORIW    VV:15,$16
59a6: 18           MOV     EAH,A
59a7: 10           EXA     
59a8: 60 40        ADD     V,A
59aa: 00           NOP     
59ab: 00           NOP     
59ac: 00           NOP     
59ad: 00           NOP     
59ae: 38           illegal 
59af: 54 54 56     JMP     $5654
59b2: 54 55 18     JMP     $1855
59b5: 00           NOP     
59b6: 00           NOP     
59b7: 00           NOP     
59b8: 00           NOP     
59b9: 20 50        INRW    VV:50
59bb: 55 54 54     OFFIW   VV:54,$54
59be: 54 39 40     JMP     $4039
59c1: 40 00 00     CALL    $0000
59c4: 00           NOP     
59c5: 20 50        INRW    VV:50
59c7: 57 55        OFFI    A,$55
59c9: 55 57 38     OFFIW   VV:57,$38
59cc: 40 40 00     CALL    $0040
59cf: 00           NOP     
59d0: 00           NOP     
59d1: 3c           STAX    (DE+)
59d2: 40 41 40     CALL    $4041
59d5: 40 40 41     CALL    $4140
59d8: 40 3c 40     CALL    $403C
59db: 00           NOP     
59dc: 00           NOP     
59dd: 40 3e 25     CALL    $253E
59e0: 25 25 25     GTIW    VV:25,$25
59e3: 25 25 02     GTIW    VV:25,$02
59e6: 18           MOV     EAH,A
59e7: 00           NOP     
59e8: 00           NOP     
59e9: 00           NOP     
59ea: 00           NOP     
59eb: 20 50        INRW    VV:50
59ed: 55 54 56     OFFIW   VV:54,$56
59f0: 54 38 40     JMP     $4038
59f3: 40 00 00     CALL    $0000
59f6: 00           NOP     
59f7: 00           NOP     
59f8: 00           NOP     
59f9: 01 00        LDAW    VV:00
59fb: 00           NOP     
59fc: 00           NOP     
59fd: 01 00        LDAW    VV:00
59ff: 00           NOP     
5a00: 00           NOP     
5a01: 00           NOP     
5a02: 00           NOP     
5a03: 00           NOP     
5a04: 38           illegal 
5a05: d1           JR      $5A17
5a06: d1           JR      $5A18
5a07: d1           JR      $5A19
5a08: f1           JR      $59FA
5a09: 44 44 00     LXI     EA,$0044
5a0c: 00           NOP     
5a0d: 00           NOP     
5a0e: 38           illegal 
5a0f: 54 55 54     JMP     $5455
5a12: 56 54        ACI     A,$54
5a14: 54 18 00     JMP     $0018
5a17: 00           NOP     
5a18: 00           NOP     
5a19: 00           NOP     
5a1a: 00           NOP     
5a1b: 00           NOP     
5a1c: f9           JR      $5A16
5a1d: 00           NOP     
5a1e: 00           NOP     
5a1f: 00           NOP     
5a20: 00           NOP     
5a21: b0           PUSH    VA
5a22: 00           NOP     
5a23: c8           JR      $5A2C
5a24: c5           JR      $5A2A
5a25: c0           JR      $5A26
5a26: c0           JR      $5A27
5a27: 00           NOP     
5a28: a0           POP     VA
5a29: 00           NOP     
5a2a: 00           NOP     
5a2b: 00           NOP     
5a2c: 02           INX     SP
5a2d: 7c 05        CALF    $0C05
5a2f: 05 05 04     ANIW    VV:05,$04
5a32: 06           illegal 
5a33: 06           illegal 
5a34: 06           illegal 
5a35: 78 01        CALF    $0801
5a37: 00           NOP     
5a38: 00           NOP     
5a39: 00           NOP     
5a3a: 46 7c        ADI     A,$7C
5a3c: 45 05 09     ONIW    VV:05,$09
5a3f: 10           EXA     
5a40: 22           INX     DE
5a41: 42           INR     B
5a42: 46 7c        ADI     A,$7C
5a44: 45 00 00     ONIW    VV:00,$00
5a47: 00           NOP     
5a48: 00           NOP     
5a49: 00           NOP     
5a4a: 00           NOP     
5a4b: 02           INX     SP
5a4c: 05 05 05     ANIW    VV:05,$05
5a4f: 02           INX     SP
5a50: 00           NOP     
5a51: 00           NOP     
5a52: 00           NOP     
5a53: 00           NOP     
5a54: 00           NOP     
5a55: 00           NOP     
5a56: 18           MOV     EAH,A
5a57: 25 42 42     GTIW    VV:42,$42
5a5a: 42           INR     B
5a5b: 42           INR     B
5a5c: 42           INR     B
5a5d: 42           INR     B
5a5e: 42           INR     B
5a5f: 42           INR     B
5a60: 25 18 00     GTIW    VV:18,$00
5a63: 00           NOP     
5a64: 00           NOP     
5a65: 04 3d 44     LXI     SP,$443D
5a68: 40 40 40     CALL    $4040
5a6b: 40 40 40     CALL    $4040
5a6e: 44 3d 04     LXI     EA,$043D
5a71: 00           NOP     
5a72: 00           NOP     
5a73: 00           NOP     
5a74: 3c           STAX    (DE+)
5a75: 40 41 40     CALL    $4041
5a78: 42           INR     B
5a79: 40 40 40     CALL    $4040
5a7c: 3c           STAX    (DE+)
5a7d: 40 00 00     CALL    $0000
5a80: 38           illegal 
5a81: 44 45 44     LXI     EA,$4445
5a84: 46 44        ADI     A,$44
5a86: 44 44 38     LXI     EA,$3844
5a89: 00           NOP     
5a8a: 00           NOP     
5a8b: 00           NOP     
5a8c: 49 48        MVIX    BC,$48
5a8e: 7a 40        CALF    $0A40
5a90: 40 00 00     CALL    $0000
5a93: 00           NOP     
5a94: 00           NOP     
5a95: 00           NOP     
5a96: 00           NOP     
5a97: 00           NOP     
5a98: 00           NOP     
5a99: 00           NOP     
5a9a: 00           NOP     
5a9b: 00           NOP     
5a9c: 00           NOP     
5a9d: 4f 00        JRE     $599F
5a9f: 00           NOP     
5aa0: 00           NOP     
5aa1: 00           NOP     
5aa2: 07 00        ANI     A,$00
5aa4: 00           NOP     
5aa5: 00           NOP     
5aa6: 07 00        ANI     A,$00
5aa8: 00           NOP     
5aa9: 00           NOP     
5aaa: 00           NOP     
5aab: 00           NOP     
5aac: 14 14 7f     LXI     BC,$7F14
5aaf: 14 14 14     LXI     BC,$1414
5ab2: 14 7f 14     LXI     BC,$147F
5ab5: 14 00 00     LXI     BC,$0000
5ab8: 00           NOP     
5ab9: 00           NOP     
5aba: 24 2a 2a     LXI     DE,$2A2A
5abd: 7f 2a        CALF    $0F2A
5abf: 2a           LDAX    (DE)
5ac0: 2a           LDAX    (DE)
5ac1: 10           EXA     
5ac2: 00           NOP     
5ac3: 00           NOP     
5ac4: 00           NOP     
5ac5: 00           NOP     
5ac6: 02           INX     SP
5ac7: 05 45 25     ANIW    VV:45,$25
5aca: 12           INX     BC
5acb: 08           MOV     A,EAH
5acc: 04 22 51     LXI     SP,$5122
5acf: 50           EXH     
5ad0: 50           EXH     
5ad1: 20 00        INRW    VV:00
5ad3: 00           NOP     
5ad4: 00           NOP     
5ad5: 00           NOP     
5ad6: 30 4e        DCRW    VV:4E
5ad8: 49 49        MVIX    BC,$49
5ada: 49 56        MVIX    BC,$56
5adc: 40 20 10     CALL    $1020
5adf: 40 00 00     CALL    $0000
5ae2: 00           NOP     
5ae3: 00           NOP     
5ae4: 04 02 01     LXI     SP,$0102
5ae7: 00           NOP     
5ae8: 00           NOP     
5ae9: 00           NOP     
5aea: 00           NOP     
5aeb: 1c           MOV     D,A
5aec: 22           INX     DE
5aed: 41           INR     A
5aee: 00           NOP     
5aef: 00           NOP     
5af0: 00           NOP     
5af1: 41           INR     A
5af2: 22           INX     DE
5af3: 1c           MOV     D,A
5af4: 00           NOP     
5af5: 00           NOP     
5af6: 00           NOP     
5af7: 00           NOP     
5af8: 08           MOV     A,EAH
5af9: 08           MOV     A,EAH
5afa: 2a           LDAX    (DE)
5afb: 14 14 14     LXI     BC,$1414
5afe: 2a           LDAX    (DE)
5aff: 08           MOV     A,EAH
5b00: 08           MOV     A,EAH
5b01: 00           NOP     
5b02: 00           NOP     
5b03: 00           NOP     
5b04: 08           MOV     A,EAH
5b05: 08           MOV     A,EAH
5b06: 08           MOV     A,EAH
5b07: 08           MOV     A,EAH
5b08: 3e           STAX    (DE-)
5b09: 08           MOV     A,EAH
5b0a: 08           MOV     A,EAH
5b0b: 08           MOV     A,EAH
5b0c: 08           MOV     A,EAH
5b0d: 00           NOP     
5b0e: 00           NOP     
5b0f: 00           NOP     
5b10: 00           NOP     
5b11: a8           INX     EA
5b12: 70 20        illegal 
5b14: 00           NOP     
5b15: 00           NOP     
5b16: 00           NOP     
5b17: 08           MOV     A,EAH
5b18: 08           MOV     A,EAH
5b19: 08           MOV     A,EAH
5b1a: 08           MOV     A,EAH
5b1b: 08           MOV     A,EAH
5b1c: 08           MOV     A,EAH
5b1d: 08           MOV     A,EAH
5b1e: 08           MOV     A,EAH
5b1f: 08           MOV     A,EAH
5b20: 00           NOP     
5b21: 00           NOP     
5b22: 00           NOP     
5b23: 00           NOP     
5b24: 60 60        SUB     V,A
5b26: 60 00        illegal 
5b28: 00           NOP     
5b29: 00           NOP     
5b2a: 00           NOP     
5b2b: 40 20 10     CALL    $1020
5b2e: 08           MOV     A,EAH
5b2f: 04 02 01     LXI     SP,$0102
5b32: 00           NOP     
5b33: 00           NOP     
5b34: 00           NOP     
5b35: 00           NOP     
5b36: 1c           MOV     D,A
5b37: 22           INX     DE
5b38: 41           INR     A
5b39: 41           INR     A
5b3a: 41           INR     A
5b3b: 41           INR     A
5b3c: 22           INX     DE
5b3d: 1c           MOV     D,A
5b3e: 00           NOP     
5b3f: 00           NOP     
5b40: 00           NOP     
5b41: 00           NOP     
5b42: 00           NOP     
5b43: 00           NOP     
5b44: 44 42 7f     LXI     EA,$7F42
5b47: 40 40 00     CALL    $0040
5b4a: 00           NOP     
5b4b: 00           NOP     
5b4c: 00           NOP     
5b4d: 00           NOP     
5b4e: 42           INR     B
5b4f: 61           DAA     
5b50: 41           INR     A
5b51: 51           DCR     A
5b52: 41           INR     A
5b53: 49 41        MVIX    BC,$41
5b55: 46 00        ADI     A,$00
5b57: 00           NOP     
5b58: 00           NOP     
5b59: 00           NOP     
5b5a: 22           INX     DE
5b5b: 41           INR     A
5b5c: 49 49        MVIX    BC,$49
5b5e: 49 49        MVIX    BC,$49
5b60: 49 36        MVIX    BC,$36
5b62: 00           NOP     
5b63: 00           NOP     
5b64: 00           NOP     
5b65: 00           NOP     
5b66: 10           EXA     
5b67: 18           MOV     EAH,A
5b68: 14 12 11     LXI     BC,$1112
5b6b: 11           EXX     
5b6c: 7f 10        CALF    $0F10
5b6e: 10           EXA     
5b6f: 00           NOP     
5b70: 00           NOP     
5b71: 00           NOP     
5b72: 27 45        GTI     A,$45
5b74: 45 45 45     ONIW    VV:45,$45
5b77: 45 29 11     ONIW    VV:29,$11
5b7a: 00           NOP     
5b7b: 00           NOP     
5b7c: 00           NOP     
5b7d: 00           NOP     
5b7e: 30 48        DCRW    VV:48
5b80: 4c 48        illegal 
5b82: 4a 49        MVIX    DE,$49
5b84: 49 30        MVIX    BC,$30
5b86: 00           NOP     
5b87: 00           NOP     
5b88: 00           NOP     
5b89: 00           NOP     
5b8a: 01 01        LDAW    VV:01
5b8c: 01 61        LDAW    VV:61
5b8e: 11           EXX     
5b8f: 09           MOV     A,EAL
5b90: 05 03 00     ANIW    VV:03,$00
5b93: 00           NOP     
5b94: 00           NOP     
5b95: 00           NOP     
5b96: 36 00        SUINB   A,$00
5b98: 49 49        MVIX    BC,$49
5b9a: 49 49        MVIX    BC,$49
5b9c: 00           NOP     
5b9d: 36 00        SUINB   A,$00
5b9f: 00           NOP     
5ba0: 00           NOP     
5ba1: 00           NOP     
5ba2: 06           illegal 
5ba3: 09           MOV     A,EAL
5ba4: 09           MOV     A,EAL
5ba5: 49 29        MVIX    BC,$29
5ba7: 19           MOV     EAL,A
5ba8: 09           MOV     A,EAL
5ba9: 06           illegal 
5baa: 00           NOP     
5bab: 00           NOP     
5bac: 00           NOP     
5bad: 00           NOP     
5bae: 00           NOP     
5baf: 24 24 00     LXI     DE,$0024
5bb2: 00           NOP     
5bb3: 00           NOP     
5bb4: 00           NOP     
5bb5: 00           NOP     
5bb6: a9           DCX     EA
5bb7: 64 00 00     MVI     PA,$00
5bba: 00           NOP     
5bbb: 00           NOP     
5bbc: 08           MOV     A,EAH
5bbd: 00           NOP     
5bbe: 14 00 22     LXI     BC,$2200
5bc1: 00           NOP     
5bc2: 41           INR     A
5bc3: 00           NOP     
5bc4: 00           NOP     
5bc5: 00           NOP     
5bc6: 00           NOP     
5bc7: 00           NOP     
5bc8: 14 14 14     LXI     BC,$1414
5bcb: 14 14 14     LXI     BC,$1414
5bce: 14 14 00     LXI     BC,$0014
5bd1: 00           NOP     
5bd2: 00           NOP     
5bd3: 00           NOP     
5bd4: 00           NOP     
5bd5: 41           INR     A
5bd6: 00           NOP     
5bd7: 22           INX     DE
5bd8: 00           NOP     
5bd9: 14 00 08     LXI     BC,$0800
5bdc: 00           NOP     
5bdd: 00           NOP     
5bde: 00           NOP     
5bdf: 00           NOP     
5be0: 02           INX     SP
5be1: 00           NOP     
5be2: 01 01        LDAW    VV:01
5be4: 51           DCR     A
5be5: 09           MOV     A,EAL
5be6: 00           NOP     
5be7: 06           illegal 
5be8: 00           NOP     
5be9: 00           NOP     
5bea: 00           NOP     
5beb: 00           NOP     
5bec: 00           NOP     
5bed: 04 02 31     LXI     SP,$3102
5bf0: 41           INR     A
5bf1: 49 49        MVIX    BC,$49
5bf3: 79 41        CALF    $0941
5bf5: 41           INR     A
5bf6: 42           INR     B
5bf7: 3c           STAX    (DE+)
5bf8: 00           NOP     
5bf9: 00           NOP     
5bfa: 40 60 10     CALL    $1060
5bfd: 18           MOV     EAH,A
5bfe: 14 12 11     LXI     BC,$1112
5c01: 12           INX     BC
5c02: 14 18 10     LXI     BC,$1018
5c05: 60 40        ADD     V,A
5c07: 00           NOP     
5c08: 00           NOP     
5c09: 00           NOP     
5c0a: 41           INR     A
5c0b: 41           INR     A
5c0c: 7f 49        CALF    $0F49
5c0e: 49 49        MVIX    BC,$49
5c10: 49 49        MVIX    BC,$49
5c12: 49 49        MVIX    BC,$49
5c14: 49 36        MVIX    BC,$36
5c16: 00           NOP     
5c17: 00           NOP     
5c18: 00           NOP     
5c19: 1c           MOV     D,A
5c1a: 22           INX     DE
5c1b: 41           INR     A
5c1c: 41           INR     A
5c1d: 41           INR     A
5c1e: 41           INR     A
5c1f: 41           INR     A
5c20: 41           INR     A
5c21: 41           INR     A
5c22: 41           INR     A
5c23: 22           INX     DE
5c24: 00           NOP     
5c25: 00           NOP     
5c26: 00           NOP     
5c27: 41           INR     A
5c28: 41           INR     A
5c29: 7f 41        CALF    $0F41
5c2b: 41           INR     A
5c2c: 41           INR     A
5c2d: 41           INR     A
5c2e: 41           INR     A
5c2f: 41           INR     A
5c30: 41           INR     A
5c31: 22           INX     DE
5c32: 1c           MOV     D,A
5c33: 00           NOP     
5c34: 00           NOP     
5c35: 00           NOP     
5c36: 7f 49        CALF    $0F49
5c38: 49 49        MVIX    BC,$49
5c3a: 49 49        MVIX    BC,$49
5c3c: 5d 41        BIT     5,VV:41
5c3e: 41           INR     A
5c3f: 63 00        STAW    VV:00
5c41: 00           NOP     
5c42: 00           NOP     
5c43: 00           NOP     
5c44: 00           NOP     
5c45: 00           NOP     
5c46: 41           INR     A
5c47: 7f 49        CALF    $0F49
5c49: 09           MOV     A,EAL
5c4a: 09           MOV     A,EAL
5c4b: 09           MOV     A,EAL
5c4c: 1d           MOV     E,A
5c4d: 01 01        LDAW    VV:01
5c4f: 03           DCX     SP
5c50: 00           NOP     
5c51: 00           NOP     
5c52: 00           NOP     
5c53: 00           NOP     
5c54: 1c           MOV     D,A
5c55: 22           INX     DE
5c56: 41           INR     A
5c57: 41           INR     A
5c58: 41           INR     A
5c59: 41           INR     A
5c5a: 41           INR     A
5c5b: 49 49        MVIX    BC,$49
5c5d: 7a 08        CALF    $0A08
5c5f: 08           MOV     A,EAH
5c60: 00           NOP     
5c61: 00           NOP     
5c62: 41           INR     A
5c63: 7f 49        CALF    $0F49
5c65: 08           MOV     A,EAH
5c66: 08           MOV     A,EAH
5c67: 08           MOV     A,EAH
5c68: 08           MOV     A,EAH
5c69: 08           MOV     A,EAH
5c6a: 08           MOV     A,EAH
5c6b: 49 7f        MVIX    BC,$7F
5c6d: 41           INR     A
5c6e: 00           NOP     
5c6f: 00           NOP     
5c70: 00           NOP     
5c71: 41           INR     A
5c72: 41           INR     A
5c73: 7f 41        CALF    $0F41
5c75: 41           INR     A
5c76: 00           NOP     
5c77: 00           NOP     
5c78: 00           NOP     
5c79: 00           NOP     
5c7a: 00           NOP     
5c7b: 30 40        DCRW    VV:40
5c7d: 40 40 41     CALL    $4140
5c80: 41           INR     A
5c81: 3f           STAX    (HL-)
5c82: 01 01        LDAW    VV:01
5c84: 00           NOP     
5c85: 00           NOP     
5c86: 00           NOP     
5c87: 41           INR     A
5c88: 7f 49        CALF    $0F49
5c8a: 08           MOV     A,EAH
5c8b: 08           MOV     A,EAH
5c8c: 10           EXA     
5c8d: 24 43 41     LXI     DE,$4143
5c90: 01 00        LDAW    VV:00
5c92: 00           NOP     
5c93: 01 7f        LDAW    VV:7F
5c95: 41           INR     A
5c96: 40 40 40     CALL    $4040
5c99: 40 40 40     CALL    $4040
5c9c: 40 00 00     CALL    $0000
5c9f: 00           NOP     
5ca0: 00           NOP     
5ca1: 41           INR     A
5ca2: 7f 42        CALF    $0F42
5ca4: 04 08 10     LXI     SP,$1008
5ca7: 08           MOV     A,EAH
5ca8: 04 42 7f     LXI     SP,$7F42
5cab: 41           INR     A
5cac: 00           NOP     
5cad: 00           NOP     
5cae: 00           NOP     
5caf: 00           NOP     
5cb0: 00           NOP     
5cb1: 00           NOP     
5cb2: 41           INR     A
5cb3: 7f 41        CALF    $0F41
5cb5: 02           INX     SP
5cb6: 04 08 10     LXI     SP,$1008
5cb9: 20 41        INRW    VV:41
5cbb: 7f 41        CALF    $0F41
5cbd: 00           NOP     
5cbe: 00           NOP     
5cbf: 00           NOP     
5cc0: 00           NOP     
5cc1: 1c           MOV     D,A
5cc2: 22           INX     DE
5cc3: 41           INR     A
5cc4: 41           INR     A
5cc5: 41           INR     A
5cc6: 41           INR     A
5cc7: 41           INR     A
5cc8: 41           INR     A
5cc9: 41           INR     A
5cca: 41           INR     A
5ccb: 22           INX     DE
5ccc: 1c           MOV     D,A
5ccd: 00           NOP     
5cce: 00           NOP     
5ccf: 00           NOP     
5cd0: 41           INR     A
5cd1: 7f 49        CALF    $0F49
5cd3: 09           MOV     A,EAL
5cd4: 09           MOV     A,EAL
5cd5: 09           MOV     A,EAL
5cd6: 09           MOV     A,EAL
5cd7: 09           MOV     A,EAL
5cd8: 09           MOV     A,EAL
5cd9: 06           illegal 
5cda: 00           NOP     
5cdb: 00           NOP     
5cdc: 00           NOP     
5cdd: 1c           MOV     D,A
5cde: 22           INX     DE
5cdf: 41           INR     A
5ce0: 41           INR     A
5ce1: 41           INR     A
5ce2: 41           INR     A
5ce3: 51           DCR     A
5ce4: 51           DCR     A
5ce5: 51           DCR     A
5ce6: 51           DCR     A
5ce7: 22           INX     DE
5ce8: 1c           MOV     D,A
5ce9: 40 40 00     CALL    $0040
5cec: 00           NOP     
5ced: 41           INR     A
5cee: 7f 49        CALF    $0F49
5cf0: 09           MOV     A,EAL
5cf1: 09           MOV     A,EAL
5cf2: 09           MOV     A,EAL
5cf3: 09           MOV     A,EAL
5cf4: 09           MOV     A,EAL
5cf5: 19           MOV     EAL,A
5cf6: 29           LDAX    (BC)
5cf7: 4e 00        JRE     $5CF9
5cf9: 00           NOP     
5cfa: 00           NOP     
5cfb: 00           NOP     
5cfc: 26 49        ADINC   A,$49
5cfe: 49 49        MVIX    BC,$49
5d00: 49 49        MVIX    BC,$49
5d02: 49 49        MVIX    BC,$49
5d04: 32           INX     HL
5d05: 00           NOP     
5d06: 00           NOP     
5d07: 00           NOP     
5d08: 03           DCX     SP
5d09: 01 01        LDAW    VV:01
5d0b: 01 41        LDAW    VV:41
5d0d: 7f 41        CALF    $0F41
5d0f: 01 01        LDAW    VV:01
5d11: 01 03        LDAW    VV:03
5d13: 00           NOP     
5d14: 00           NOP     
5d15: 00           NOP     
5d16: 01 3f        LDAW    VV:3F
5d18: 41           INR     A
5d19: 40 40 40     CALL    $4040
5d1c: 40 40 40     CALL    $4040
5d1f: 41           INR     A
5d20: 3f           STAX    (HL-)
5d21: 01 00        LDAW    VV:00
5d23: 00           NOP     
5d24: 00           NOP     
5d25: 00           NOP     
5d26: 01 03        LDAW    VV:03
5d28: 04 08 10     LXI     SP,$1008
5d2b: 20 40        INRW    VV:40
5d2d: 20 10        INRW    VV:10
5d2f: 08           MOV     A,EAH
5d30: 04 03 01     LXI     SP,$0103
5d33: 00           NOP     
5d34: 00           NOP     
5d35: 01 0f        LDAW    VV:0F
5d37: 11           EXX     
5d38: 20 40        INRW    VV:40
5d3a: 20 10        INRW    VV:10
5d3c: 08           MOV     A,EAH
5d3d: 10           EXA     
5d3e: 20 40        INRW    VV:40
5d40: 20 11        INRW    VV:11
5d42: 0f           MOV     A,L
5d43: 01 00        LDAW    VV:00
5d45: 00           NOP     
5d46: 41           INR     A
5d47: 41           INR     A
5d48: 22           INX     DE
5d49: 14 08 14     LXI     BC,$1408
5d4c: 22           INX     DE
5d4d: 41           INR     A
5d4e: 41           INR     A
5d4f: 00           NOP     
5d50: 00           NOP     
5d51: 01 01        LDAW    VV:01
5d53: 03           DCX     SP
5d54: 04 48 70     LXI     SP,$7048
5d57: 48 04        illegal 
5d59: 03           DCX     SP
5d5a: 01 01        LDAW    VV:01
5d5c: 00           NOP     
5d5d: 00           NOP     
5d5e: 00           NOP     
5d5f: 00           NOP     
5d60: 43           INR     C
5d61: 61           DAA     
5d62: 51           DCR     A
5d63: 49 45        MVIX    BC,$45
5d65: 43           INR     C
5d66: 61           DAA     
5d67: 00           NOP     
5d68: 00           NOP     
5d69: 00           NOP     
5d6a: 00           NOP     
5d6b: 00           NOP     
5d6c: 7f 41        CALF    $0F41
5d6e: 41           INR     A
5d6f: 41           INR     A
5d70: 41           INR     A
5d71: 41           INR     A
5d72: 00           NOP     
5d73: 00           NOP     
5d74: 00           NOP     
5d75: 00           NOP     
5d76: 00           NOP     
5d77: 01 02        LDAW    VV:02
5d79: 04 08 10     LXI     SP,$1008
5d7c: 20 40        INRW    VV:40
5d7e: 00           NOP     
5d7f: 00           NOP     
5d80: 00           NOP     
5d81: 00           NOP     
5d82: 00           NOP     
5d83: 00           NOP     
5d84: 41           INR     A
5d85: 41           INR     A
5d86: 41           INR     A
5d87: 41           INR     A
5d88: 41           INR     A
5d89: 7f 00        CALF    $0F00
5d8b: 00           NOP     
5d8c: 00           NOP     
5d8d: 00           NOP     
5d8e: 00           NOP     
5d8f: 00           NOP     
5d90: 02           INX     SP
5d91: 00           NOP     
5d92: 01 00        LDAW    VV:00
5d94: 02           INX     SP
5d95: 00           NOP     
5d96: 00           NOP     
5d97: 00           NOP     
5d98: 00           NOP     
5d99: c0           JR      $5D9A
5d9a: c0           JR      $5D9B
5d9b: c0           JR      $5D9C
5d9c: c0           JR      $5D9D
5d9d: c0           JR      $5D9E
5d9e: c0           JR      $5D9F
5d9f: c0           JR      $5DA0
5da0: c0           JR      $5DA1
5da1: c0           JR      $5DA2
5da2: c0           JR      $5DA3
5da3: c0           JR      $5DA4
5da4: c0           JR      $5DA5
5da5: c0           JR      $5DA6
5da6: c0           JR      $5DA7
5da7: c0           JR      $5DA8
5da8: c0           JR      $5DA9
5da9: c0           JR      $5DAA
5daa: 00           NOP     
5dab: 00           NOP     
5dac: 01 02        LDAW    VV:02
5dae: 04 00 00     LXI     SP,$0000
5db1: 00           NOP     
5db2: 20 50        INRW    VV:50
5db4: 54 54 54     JMP     $5454
5db7: 54 38 40     JMP     $4038
5dba: 40 00 00     CALL    $0000
5dbd: 00           NOP     
5dbe: 7f 44        CALF    $0F44
5dc0: 44 44 44     LXI     EA,$4444
5dc3: 44 44 38     LXI     EA,$3844
5dc6: 00           NOP     
5dc7: 00           NOP     
5dc8: 00           NOP     
5dc9: 00           NOP     
5dca: 38           illegal 
5dcb: 44 44 44     LXI     EA,$4444
5dce: 44 44 44     LXI     EA,$4444
5dd1: 00           NOP     
5dd2: 00           NOP     
5dd3: 00           NOP     
5dd4: 38           illegal 
5dd5: 44 44 44     LXI     EA,$4444
5dd8: 44 44 44     LXI     EA,$4444
5ddb: 7f 00        CALF    $0F00
5ddd: 00           NOP     
5dde: 00           NOP     
5ddf: 00           NOP     
5de0: 38           illegal 
5de1: 54 54 54     JMP     $5454
5de4: 54 54 54     JMP     $5454
5de7: 18           MOV     EAH,A
5de8: 00           NOP     
5de9: 00           NOP     
5dea: 00           NOP     
5deb: 00           NOP     
5dec: 08           MOV     A,EAH
5ded: 08           MOV     A,EAH
5dee: 08           MOV     A,EAH
5def: 7e 09        CALF    $0E09
5df1: 09           MOV     A,EAL
5df2: 09           MOV     A,EAL
5df3: 00           NOP     
5df4: 00           NOP     
5df5: 00           NOP     
5df6: 38           illegal 
5df7: d1           JR      $5E09
5df8: d1           JR      $5E0A
5df9: d1           JR      $5E0B
5dfa: d1           JR      $5E0C
5dfb: d1           JR      $5E0D
5dfc: d1           JR      $5E0E
5dfd: bf 00        STAX    (HL+$00)
5dff: 00           NOP     
5e00: 00           NOP     
5e01: 00           NOP     
5e02: 7f 04        CALF    $0F04
5e04: 04 04 04     LXI     SP,$0404
5e07: 04 04 78     LXI     SP,$7804
5e0a: 00           NOP     
5e0b: 00           NOP     
5e0c: 00           NOP     
5e0d: 00           NOP     
5e0e: 44 44 7d     LXI     EA,$7D44
5e11: 40 40 00     CALL    $0040
5e14: 00           NOP     
5e15: 00           NOP     
5e16: 40 a0 a0     CALL    $A0A0
5e19: a0           POP     VA
5e1a: 7d 00        CALF    $0D00
5e1c: 00           NOP     
5e1d: 7f 10        CALF    $0F10
5e1f: 10           EXA     
5e20: 10           EXA     
5e21: 08           MOV     A,EAH
5e22: 14 20 40     LXI     BC,$4020
5e25: 00           NOP     
5e26: 00           NOP     
5e27: 41           INR     A
5e28: 41           INR     A
5e29: 7f 40        CALF    $0F40
5e2b: 40 00 00     CALL    $0000
5e2e: 00           NOP     
5e2f: 00           NOP     
5e30: 7c 04        CALF    $0C04
5e32: 04 04 04     LXI     SP,$0404
5e35: 7c 04        CALF    $0C04
5e37: 04 04 04     LXI     SP,$0404
5e3a: 78 00        CALF    $0800
5e3c: 00           NOP     
5e3d: 00           NOP     
5e3e: 00           NOP     
5e3f: 7c 04        CALF    $0C04
5e41: 04 04 04     LXI     SP,$0404
5e44: 04 04 04     LXI     SP,$0404
5e47: 78 00        CALF    $0800
5e49: 00           NOP     
5e4a: 00           NOP     
5e4b: 38           illegal 
5e4c: 44 44 44     LXI     EA,$4444
5e4f: 44 44 44     LXI     EA,$4444
5e52: 44 38 00     LXI     EA,$0038
5e55: 00           NOP     
5e56: 00           NOP     
5e57: ff           JR      $5E57
5e58: 44 44 44     LXI     EA,$4444
5e5b: 44 44 44     LXI     EA,$4444
5e5e: 44 38 00     LXI     EA,$0038
5e61: 00           NOP     
5e62: 00           NOP     
5e63: 38           illegal 
5e64: 44 44 44     LXI     EA,$4444
5e67: 44 44 44     LXI     EA,$4444
5e6a: 44 ff 00     LXI     EA,$00FF
5e6d: 00           NOP     
5e6e: 00           NOP     
5e6f: 7c 04        CALF    $0C04
5e71: 04 04 04     LXI     SP,$0404
5e74: 04 08 00     LXI     SP,$0008
5e77: 00           NOP     
5e78: 00           NOP     
5e79: 08           MOV     A,EAH
5e7a: 54 54 54     JMP     $5454
5e7d: 54 54 54     JMP     $5454
5e80: 54 20 00     JMP     $0020
5e83: 00           NOP     
5e84: 00           NOP     
5e85: 04 04 04     LXI     SP,$0404
5e88: 3f           STAX    (HL-)
5e89: 44 44 44     LXI     EA,$4444
5e8c: 00           NOP     
5e8d: 00           NOP     
5e8e: 00           NOP     
5e8f: 3c           STAX    (DE+)
5e90: 40 40 40     CALL    $4040
5e93: 40 40 40     CALL    $4040
5e96: 40 7c 00     CALL    $007C
5e99: 00           NOP     
5e9a: 00           NOP     
5e9b: 04 08 10     LXI     SP,$1008
5e9e: 20 40        INRW    VV:40
5ea0: 20 10        INRW    VV:10
5ea2: 08           MOV     A,EAH
5ea3: 04 00 00     LXI     SP,$0000
5ea6: 00           NOP     
5ea7: 0c           MOV     A,D
5ea8: 10           EXA     
5ea9: 20 40        INRW    VV:40
5eab: 20 10        INRW    VV:10
5ead: 08           MOV     A,EAH
5eae: 10           EXA     
5eaf: 20 40        INRW    VV:40
5eb1: 20 10        INRW    VV:10
5eb3: 0c           MOV     A,D
5eb4: 00           NOP     
5eb5: 00           NOP     
5eb6: 00           NOP     
5eb7: 44 28 00     LXI     EA,$0028
5eba: 10           EXA     
5ebb: 00           NOP     
5ebc: 28           illegal 
5ebd: 44 00 00     LXI     EA,$0000
5ec0: 00           NOP     
5ec1: 00           NOP     
5ec2: 00           NOP     
5ec3: 04 c2 a4     LXI     SP,$A4C2
5ec6: 40 20 10     CALL    $1020
5ec9: 08           MOV     A,EAH
5eca: 04 00 00     LXI     SP,$0000
5ecd: 00           NOP     
5ece: 00           NOP     
5ecf: 44 64 44     LXI     EA,$4464
5ed2: 54 44 4c     JMP     $4C44
5ed5: 44 00 00     LXI     EA,$0000
5ed8: 00           NOP     
5ed9: 08           MOV     A,EAH
5eda: 00           NOP     
5edb: 36 41        SUINB   A,$41
5edd: 41           INR     A
5ede: 41           INR     A
5edf: 00           NOP     
5ee0: 00           NOP     
5ee1: 00           NOP     
5ee2: 00           NOP     
5ee3: 00           NOP     
5ee4: 7f 00        CALF    $0F00
5ee6: 00           NOP     
5ee7: 00           NOP     
5ee8: 00           NOP     
5ee9: 00           NOP     
5eea: 41           INR     A
5eeb: 41           INR     A
5eec: 41           INR     A
5eed: 36 00        SUINB   A,$00
5eef: 08           MOV     A,EAH
5ef0: 00           NOP     
5ef1: 00           NOP     
5ef2: 00           NOP     
5ef3: 02           INX     SP
5ef4: 00           NOP     
5ef5: 01 01        LDAW    VV:01
5ef7: 01 00        LDAW    VV:00
5ef9: 02           INX     SP
5efa: 02           INX     SP
5efb: 02           INX     SP
5efc: 00           NOP     
5efd: 01 00        LDAW    VV:00
5eff: 00           NOP     
5f00: 00           NOP     
5f01: 00           NOP     
5f02: 00           NOP     
5f03: 00           NOP     
5f04: 00           NOP     
5f05: 00           NOP     
5f06: 00           NOP     
5f07: 00           NOP     
5f08: 00           NOP     
5f09: 78 0c        CALF    $080C
5f0b: 08           MOV     A,EAH
5f0c: 0a           MOV     A,B
5f0d: 08           MOV     A,EAH
5f0e: 09           MOV     A,EAL
5f0f: 7f 09        CALF    $0F09
5f11: 09           MOV     A,EAL
5f12: 09           MOV     A,EAL
5f13: 1d           MOV     E,A
5f14: 41           INR     A
5f15: 00           NOP     
5f16: 00           NOP     
5f17: 00           NOP     
5f18: 20 44        INRW    VV:44
5f1a: 14 14 14     LXI     BC,$1414
5f1d: 50           EXH     
5f1e: 78 50        CALF    $0850
5f20: 14 14 14     LXI     BC,$1414
5f23: 10           EXA     
5f24: 58 00        BIT     0,VV:00
5f26: 00           NOP     
5f27: 00           NOP     
5f28: 00           NOP     
5f29: 38           illegal 
5f2a: b2           PUSH    DE
5f2b: 40 04 24     CALL    $2404
5f2e: 14 04 0c     LXI     BC,$0C04
5f31: 44 48 3a     LXI     EA,$3A48
5f34: 00           NOP     
5f35: 00           NOP     
5f36: 00           NOP     
5f37: 00           NOP     
5f38: 00           NOP     
5f39: 3e           STAX    (DE-)
5f3a: 42           INR     B
5f3b: 60 01        illegal 
5f3d: 11           EXX     
5f3e: 09           MOV     A,EAL
5f3f: 05 40 42     ANIW    VV:40,$42
5f42: 3e           STAX    (DE-)
5f43: 00           NOP     
5f44: 00           NOP     
5f45: 00           NOP     
5f46: 00           NOP     
5f47: 00           NOP     
5f48: 00           NOP     
5f49: 40 00 08     CALL    $0800
5f4c: 48 3e        DIV     B
5f4e: 48 49        SKIT    FSR
5f50: 09           MOV     A,EAL
5f51: 08           MOV     A,EAH
5f52: 0a           MOV     A,B
5f53: 00           NOP     
5f54: 00           NOP     
5f55: 00           NOP     
5f56: 00           NOP     
5f57: 00           NOP     
5f58: 00           NOP     
5f59: 4a 40        MVIX    DE,$40
5f5b: 15 15 15     ORIW    VV:15,$15
5f5e: 15 15 15     ORIW    VV:15,$15
5f61: 40 6a 00     CALL    $006A
5f64: 00           NOP     
5f65: 00           NOP     
5f66: 00           NOP     
5f67: 00           NOP     
5f68: 00           NOP     
5f69: 61           DAA     
5f6a: 11           EXX     
5f6b: 08           MOV     A,EAH
5f6c: 04 02 00     LXI     SP,$0002
5f6f: 02           INX     SP
5f70: 04 08 11     LXI     SP,$1108
5f73: 61           DAA     
5f74: 00           NOP     
5f75: 00           NOP     
5f76: 00           NOP     
5f77: 00           NOP     
5f78: 00           NOP     
5f79: 38           illegal 
5f7a: 48 41        SKIT    FT0
5f7c: 05 04 04     ANIW    VV:04,$04
5f7f: 04 05 41     LXI     SP,$4105
5f82: 48 38        RLD     
5f84: 00           NOP     
5f85: 00           NOP     
5f86: 00           NOP     
5f87: 00           NOP     
5f88: 00           NOP     
5f89: 60 30        SUBNB   V,A
5f8b: 20 2a        INRW    VV:2A
5f8d: 25 25 25     GTIW    VV:25,$25
5f90: 2a           LDAX    (DE)
5f91: 20 30        INRW    VV:30
5f93: 60 00        illegal 
5f95: 00           NOP     
5f96: 00           NOP     
5f97: 00           NOP     
5f98: 00           NOP     
5f99: 38           illegal 
5f9a: 58 50        BIT     0,VV:50
5f9c: 14 14 16     LXI     BC,$1614
5f9f: 14 15 50     LXI     BC,$5015
5fa2: 58 18        BIT     0,VV:18
5fa4: 00           NOP     
5fa5: 00           NOP     
5fa6: 00           NOP     
5fa7: 00           NOP     
5fa8: 00           NOP     
5fa9: 60 41        ADD     A,A
5fab: 15 14 14     ORIW    VV:14,$14
5fae: 14 14 50     LXI     BC,$5014
5fb1: 59 79        BIT     1,VV:79
5fb3: 00           NOP     
5fb4: 00           NOP     
5fb5: 00           NOP     
5fb6: 00           NOP     
5fb7: 00           NOP     
5fb8: 00           NOP     
5fb9: 60 40        ADD     V,A
5fbb: 10           EXA     
5fbc: 12           INX     BC
5fbd: 15 15 15     ORIW    VV:15,$15
5fc0: 52           DCR     B
5fc1: 58 78        BIT     0,VV:78
5fc3: 00           NOP     
5fc4: 00           NOP     
5fc5: 00           NOP     
5fc6: 00           NOP     
5fc7: 00           NOP     
5fc8: 04 3c 41     LXI     SP,$413C
5fcb: 41           INR     A
5fcc: 00           NOP     
5fcd: 00           NOP     
5fce: 00           NOP     
5fcf: 00           NOP     
5fd0: 41           INR     A
5fd1: 41           INR     A
5fd2: 7c 00        CALF    $0C00
5fd4: 00           NOP     
5fd5: 00           NOP     
5fd6: 00           NOP     
5fd7: 00           NOP     
5fd8: 00           NOP     
5fd9: 00           NOP     
5fda: 40 3e 04     CALL    $043E
5fdd: 05 05 05     ANIW    VV:05,$05
5fe0: 05 05 28     ANIW    VV:05,$28
5fe3: 2a           LDAX    (DE)
5fe4: 10           EXA     
5fe5: 00           NOP     
5fe6: 00           NOP     
5fe7: 00           NOP     
5fe8: 00           NOP     
5fe9: 60 40        ADD     V,A
5feb: 14 15 14     LXI     BC,$1415
5fee: 16 14        XRI     A,$14
5ff0: 50           EXH     
5ff1: 58 78        BIT     0,VV:78
5ff3: 00           NOP     
5ff4: 00           NOP     
5ff5: 00           NOP     
5ff6: 00           NOP     
5ff7: 00           NOP     
5ff8: 00           NOP     
5ff9: 00           NOP     
5ffa: 01 01        LDAW    VV:01
5ffc: 00           NOP     
5ffd: 00           NOP     
5ffe: 00           NOP     
5fff: 00           NOP     
6000: 00           NOP     
6001: 01 01        LDAW    VV:01
6003: 00           NOP     
6004: 00           NOP     
6005: 00           NOP     
6006: 00           NOP     
6007: 00           NOP     
6008: 00           NOP     
6009: 38           illegal 
600a: ca           JR      $6015
600b: c0           JR      $600C
600c: d1           JR      $601E
600d: d1           JR      $601F
600e: d1           JR      $6020
600f: b1           PUSH    BC
6010: 44 44 00     LXI     EA,$0044
6013: 28           illegal 
6014: 00           NOP     
6015: 00           NOP     
6016: 00           NOP     
6017: 00           NOP     
6018: 00           NOP     
6019: 38           illegal 
601a: 58 50        BIT     0,VV:50
601c: 14 15 14     LXI     BC,$1415
601f: 16 14        XRI     A,$14
6021: 50           EXH     
6022: 58 18        BIT     0,VV:18
6024: 00           NOP     
6025: 00           NOP     
6026: 00           NOP     
6027: 00           NOP     
6028: 00           NOP     
6029: 00           NOP     
602a: 00           NOP     
602b: 00           NOP     
602c: 00           NOP     
602d: 00           NOP     
602e: fb           JR      $602A
602f: 00           NOP     
6030: 00           NOP     
6031: 00           NOP     
6032: 00           NOP     
6033: 00           NOP     
6034: 00           NOP     
6035: 00           NOP     
6036: 00           NOP     
6037: 00           NOP     
6038: 00           NOP     
6039: b0           PUSH    VA
603a: b0           PUSH    VA
603b: 00           NOP     
603c: c8           JR      $6045
603d: c9           JR      $6047
603e: c5           JR      $6044
603f: c1           JR      $6041
6040: c0           JR      $6041
6041: 00           NOP     
6042: a0           POP     VA
6043: a0           POP     VA
6044: 00           NOP     
6045: 00           NOP     
6046: 00           NOP     
6047: 02           INX     SP
6048: 00           NOP     
6049: 05 7d 01     ANIW    VV:7D,$01
604c: 04 04 04     LXI     SP,$0404
604f: 06           illegal 
6050: 06           illegal 
6051: 06           illegal 
6052: 00           NOP     
6053: 79 00        CALF    $0900
6055: 00           NOP     
6056: 00           NOP     
6057: 02           INX     SP
6058: 04 7d 05     LXI     SP,$057D
605b: 0d           MOV     A,E
605c: 00           NOP     
605d: 10           EXA     
605e: 00           NOP     
605f: 22           INX     DE
6060: 06           illegal 
6061: 46 7c        ADI     A,$7C
6063: 05 00 00     ANIW    VV:00,$00
6066: 00           NOP     
6067: 00           NOP     
6068: 00           NOP     
6069: 00           NOP     
606a: 00           NOP     
606b: 00           NOP     
606c: 02           INX     SP
606d: 05 05 05     ANIW    VV:05,$05
6070: 02           INX     SP
6071: 00           NOP     
6072: 00           NOP     
6073: 00           NOP     
6074: 00           NOP     
6075: 00           NOP     
6076: 00           NOP     
6077: 00           NOP     
6078: 38           illegal 
6079: 45 45 00     ONIW    VV:45,$00
607c: 00           NOP     
607d: 00           NOP     
607e: 00           NOP     
607f: 00           NOP     
6080: 00           NOP     
6081: 00           NOP     
6082: 45 45 38     ONIW    VV:45,$38
6085: 00           NOP     
6086: 00           NOP     
6087: 00           NOP     
6088: 04 3d 45     LXI     SP,$453D
608b: 40 00 00     CALL    $0000
608e: 00           NOP     
608f: 00           NOP     
6090: 40 45 3d     CALL    $3D45
6093: 04 00 00     LXI     SP,$0000
6096: 00           NOP     
6097: 00           NOP     
6098: 04 3c 40     LXI     SP,$403C
609b: 40 01 00     CALL    $0001
609e: 02           INX     SP
609f: 00           NOP     
60a0: 40 40 7c     CALL    $7C40
60a3: 00           NOP     
60a4: 00           NOP     
60a5: 00           NOP     
60a6: 00           NOP     
60a7: 00           NOP     
60a8: 00           NOP     
60a9: 38           illegal 
60aa: 48 40        SKIT    NMI
60ac: 04 05 04     LXI     SP,$0405
60af: 06           illegal 
60b0: 04 40 48     LXI     SP,$4840
60b3: 38           illegal 
60b4: 00           NOP     
60b5: 00           NOP     
60b6: 00           NOP     
60b7: 00           NOP     
60b8: 00           NOP     
60b9: 00           NOP     
60ba: 00           NOP     
60bb: 00           NOP     
60bc: 01 00        LDAW    VV:00
60be: 7a 00        CALF    $0A00
60c0: 00           NOP     
60c1: 00           NOP     
60c2: 00           NOP     
60c3: 00           NOP     
60c4: 00           NOP     
60c5: 00           NOP     
60c6: 00           NOP     
60c7: 00           NOP     
60c8: 00           NOP     
60c9: 00           NOP     
60ca: 00           NOP     
60cb: 00           NOP     
60cc: 00           NOP     
60cd: 00           NOP     
60ce: 00           NOP     
60cf: 00           NOP     
60d0: 00           NOP     
60d1: 00           NOP     
60d2: 00           NOP     
60d3: 00           NOP     
60d4: 00           NOP     
60d5: 00           NOP     
60d6: 00           NOP     
60d7: 00           NOP     
60d8: 00           NOP     
60d9: 00           NOP     
60da: 00           NOP     
60db: 00           NOP     
60dc: 00           NOP     
60dd: 5f 5f        BIT     7,VV:5F
60df: 00           NOP     
60e0: 00           NOP     
60e1: 00           NOP     
60e2: 00           NOP     
60e3: 00           NOP     
60e4: 00           NOP     
60e5: 00           NOP     
60e6: 00           NOP     
60e7: 00           NOP     
60e8: 00           NOP     
60e9: 00           NOP     
60ea: 00           NOP     
60eb: 07 00        ANI     A,$00
60ed: 00           NOP     
60ee: 00           NOP     
60ef: 07 00        ANI     A,$00
60f1: 00           NOP     
60f2: 00           NOP     
60f3: 00           NOP     
60f4: 00           NOP     
60f5: 00           NOP     
60f6: 00           NOP     
60f7: 00           NOP     
60f8: 00           NOP     
60f9: 04 04 04     LXI     SP,$0404
60fc: 7f 04        CALF    $0F04
60fe: 04 04 04     LXI     SP,$0404
6101: 7f 04        CALF    $0F04
6103: 04 04 00     LXI     SP,$0004
6106: 00           NOP     
6107: 00           NOP     
6108: 04 20 2a     LXI     SP,$2A20
610b: 0a           MOV     A,B
610c: 0a           MOV     A,B
610d: 0a           MOV     A,B
610e: 7f 0a        CALF    $0F0A
6110: 0a           MOV     A,B
6111: 0a           MOV     A,B
6112: 2a           LDAX    (DE)
6113: 20 14        INRW    VV:14
6115: 00           NOP     
6116: 00           NOP     
6117: 00           NOP     
6118: 00           NOP     
6119: 02           INX     SP
611a: 05 15 15     ANIW    VV:15,$15
611d: 05 02 68     ANIW    VV:02,$68
6120: 08           MOV     A,EAH
6121: 00           NOP     
6122: 00           NOP     
6123: 04 64 00     LXI     SP,$0064
6126: 00           NOP     
6127: 00           NOP     
6128: 30 42        DCRW    VV:42
612a: 04 09 09     LXI     SP,$0909
612d: 09           MOV     A,EAL
612e: 04 52 40     LXI     SP,$4052
6131: 20 00        INRW    VV:00
6133: 60 00        illegal 
6135: 00           NOP     
6136: 00           NOP     
6137: 00           NOP     
6138: 00           NOP     
6139: 00           NOP     
613a: 00           NOP     
613b: 00           NOP     
613c: 04 00 02     LXI     SP,$0200
613f: 00           NOP     
6140: 01 00        LDAW    VV:00
6142: 00           NOP     
6143: 00           NOP     
6144: 00           NOP     
6145: 00           NOP     
6146: 00           NOP     
6147: 00           NOP     
6148: 00           NOP     
6149: 00           NOP     
614a: 00           NOP     
614b: 1c           MOV     D,A
614c: 24 22 42     LXI     DE,$4222
614f: 40 01 00     CALL    $0001
6152: 00           NOP     
6153: 00           NOP     
6154: 00           NOP     
6155: 00           NOP     
6156: 00           NOP     
6157: 00           NOP     
6158: 00           NOP     
6159: 00           NOP     
615a: 00           NOP     
615b: 00           NOP     
615c: 01 40        LDAW    VV:40
615e: 42           INR     B
615f: 22           INX     DE
6160: 24 1c 00     LXI     DE,$001C
6163: 00           NOP     
6164: 00           NOP     
6165: 00           NOP     
6166: 00           NOP     
6167: 00           NOP     
6168: 00           NOP     
6169: 00           NOP     
616a: 00           NOP     
616b: 42           INR     B
616c: 24 18 18     LXI     DE,$1818
616f: 18           MOV     EAH,A
6170: 18           MOV     EAH,A
6171: 24 42 00     LXI     DE,$0042
6174: 00           NOP     
6175: 00           NOP     
6176: 00           NOP     
6177: 00           NOP     
6178: 00           NOP     
6179: 00           NOP     
617a: 00           NOP     
617b: 00           NOP     
617c: 00           NOP     
617d: 00           NOP     
617e: 7e 00        CALF    $0E00
6180: 00           NOP     
6181: 00           NOP     
6182: 00           NOP     
6183: 00           NOP     
6184: 00           NOP     
6185: 00           NOP     
6186: 00           NOP     
6187: 00           NOP     
6188: 00           NOP     
6189: 00           NOP     
618a: 00           NOP     
618b: 00           NOP     
618c: 00           NOP     
618d: d0           JR      $619E
618e: 40 b0 40     CALL    $40B0
6191: 00           NOP     
6192: 00           NOP     
6193: 00           NOP     
6194: 00           NOP     
6195: 00           NOP     
6196: 00           NOP     
6197: 00           NOP     
6198: 00           NOP     
6199: 00           NOP     
619a: 00           NOP     
619b: 00           NOP     
619c: 00           NOP     
619d: 00           NOP     
619e: 00           NOP     
619f: 00           NOP     
61a0: 00           NOP     
61a1: 00           NOP     
61a2: 00           NOP     
61a3: 00           NOP     
61a4: 00           NOP     
61a5: 00           NOP     
61a6: 00           NOP     
61a7: 00           NOP     
61a8: 00           NOP     
61a9: 00           NOP     
61aa: 00           NOP     
61ab: 00           NOP     
61ac: 00           NOP     
61ad: 40 40 40     CALL    $4040
61b0: 40 00 00     CALL    $0000
61b3: 00           NOP     
61b4: 00           NOP     
61b5: 00           NOP     
61b6: 00           NOP     
61b7: 00           NOP     
61b8: 40 00 20     CALL    $2000
61bb: 00           NOP     
61bc: 10           EXA     
61bd: 00           NOP     
61be: 08           MOV     A,EAH
61bf: 00           NOP     
61c0: 04 00 02     LXI     SP,$0200
61c3: 00           NOP     
61c4: 01 00        LDAW    VV:00
61c6: 00           NOP     
61c7: 00           NOP     
61c8: 00           NOP     
61c9: 3e           STAX    (DE-)
61ca: 42           INR     B
61cb: 40 01 01     CALL    $0101
61ce: 01 01        LDAW    VV:01
61d0: 40 42 3e     CALL    $3E42
61d3: 00           NOP     
61d4: 00           NOP     
61d5: 00           NOP     
61d6: 00           NOP     
61d7: 00           NOP     
61d8: 00           NOP     
61d9: 00           NOP     
61da: 00           NOP     
61db: 00           NOP     
61dc: 02           INX     SP
61dd: 00           NOP     
61de: 7f 00        CALF    $0F00
61e0: 00           NOP     
61e1: 00           NOP     
61e2: 00           NOP     
61e3: 00           NOP     
61e4: 00           NOP     
61e5: 00           NOP     
61e6: 00           NOP     
61e7: 00           NOP     
61e8: 00           NOP     
61e9: 42           INR     B
61ea: 42           INR     B
61eb: 20 21        INRW    VV:21
61ed: 01 11        LDAW    VV:11
61ef: 11           EXX     
61f0: 01 09        LDAW    VV:09
61f2: 08           MOV     A,EAH
61f3: 02           INX     SP
61f4: 46 00        ADI     A,$00
61f6: 00           NOP     
61f7: 00           NOP     
61f8: 00           NOP     
61f9: 22           INX     DE
61fa: 02           INX     SP
61fb: 40 40 09     CALL    $0940
61fe: 09           MOV     A,EAL
61ff: 09           MOV     A,EAL
6200: 09           MOV     A,EAL
6201: 48 40        SKIT    NMI
6203: 02           INX     SP
6204: 36 00        SUINB   A,$00
6206: 00           NOP     
6207: 00           NOP     
6208: 00           NOP     
6209: 00           NOP     
620a: 10           EXA     
620b: 00           NOP     
620c: 08           MOV     A,EAH
620d: 00           NOP     
620e: 04 00 02     LXI     SP,$0200
6211: 00           NOP     
6212: 7f 00        CALF    $0F00
6214: 00           NOP     
6215: 00           NOP     
6216: 00           NOP     
6217: 00           NOP     
6218: 00           NOP     
6219: 2f           LDAX    (HL-)
621a: 49 49        MVIX    BC,$49
621c: 01 01        LDAW    VV:01
621e: 01 01        LDAW    VV:01
6220: 01 01        LDAW    VV:01
6222: 49 49        MVIX    BC,$49
6224: 31           BLOCK   
6225: 00           NOP     
6226: 00           NOP     
6227: 00           NOP     
6228: 00           NOP     
6229: 3c           STAX    (DE+)
622a: 54 42 0a     JMP     $0A42
622d: 08           MOV     A,EAH
622e: 08           MOV     A,EAH
622f: 08           MOV     A,EAH
6230: 09           MOV     A,EAL
6231: 09           MOV     A,EAL
6232: 41           INR     A
6233: 51           DCR     A
6234: 31           BLOCK   
6235: 00           NOP     
6236: 00           NOP     
6237: 00           NOP     
6238: 00           NOP     
6239: 01 01        LDAW    VV:01
623b: 01 01        LDAW    VV:01
623d: 01 61        LDAW    VV:61
623f: 11           EXX     
6240: 09           MOV     A,EAL
6241: 01 05        LDAW    VV:05
6243: 01 03        LDAW    VV:03
6245: 00           NOP     
6246: 00           NOP     
6247: 00           NOP     
6248: 00           NOP     
6249: 36 56        SUINB   A,$56
624b: 40 09 09     CALL    $0909
624e: 09           MOV     A,EAL
624f: 09           MOV     A,EAL
6250: 09           MOV     A,EAL
6251: 09           MOV     A,EAL
6252: 40 56 36     CALL    $3656
6255: 00           NOP     
6256: 00           NOP     
6257: 00           NOP     
6258: 00           NOP     
6259: 06           illegal 
625a: 0a           MOV     A,B
625b: 08           MOV     A,EAH
625c: 01 01        LDAW    VV:01
625e: 41           INR     A
625f: 01 21        LDAW    VV:21
6261: 01 18        LDAW    VV:18
6263: 0a           MOV     A,B
6264: 0e           MOV     A,H
6265: 00           NOP     
6266: 00           NOP     
6267: 00           NOP     
6268: 00           NOP     
6269: 00           NOP     
626a: 00           NOP     
626b: 00           NOP     
626c: 00           NOP     
626d: 00           NOP     
626e: 6c 6c        MVI     D,$6C
6270: 00           NOP     
6271: 00           NOP     
6272: 00           NOP     
6273: 00           NOP     
6274: 00           NOP     
6275: 00           NOP     
6276: 00           NOP     
6277: 00           NOP     
6278: 00           NOP     
6279: 00           NOP     
627a: 00           NOP     
627b: 00           NOP     
627c: 00           NOP     
627d: 00           NOP     
627e: bb 6c        STAX    (DE+$6C)
6280: 40 00 00     CALL    $0000
6283: 00           NOP     
6284: 00           NOP     
6285: 00           NOP     
6286: 00           NOP     
6287: 00           NOP     
6288: 00           NOP     
6289: 00           NOP     
628a: 00           NOP     
628b: 18           MOV     EAH,A
628c: 18           MOV     EAH,A
628d: 00           NOP     
628e: 24 24 00     LXI     DE,$0024
6291: 42           INR     B
6292: 42           INR     B
6293: 00           NOP     
6294: 00           NOP     
6295: 00           NOP     
6296: 00           NOP     
6297: 00           NOP     
6298: 00           NOP     
6299: 00           NOP     
629a: 00           NOP     
629b: 00           NOP     
629c: 00           NOP     
629d: 00           NOP     
629e: 00           NOP     
629f: 00           NOP     
62a0: 00           NOP     
62a1: 00           NOP     
62a2: 00           NOP     
62a3: 00           NOP     
62a4: 00           NOP     
62a5: 00           NOP     
62a6: 00           NOP     
62a7: 00           NOP     
62a8: 00           NOP     
62a9: 00           NOP     
62aa: 00           NOP     
62ab: 42           INR     B
62ac: 42           INR     B
62ad: 00           NOP     
62ae: 24 24 00     LXI     DE,$0024
62b1: 18           MOV     EAH,A
62b2: 18           MOV     EAH,A
62b3: 00           NOP     
62b4: 00           NOP     
62b5: 00           NOP     
62b6: 00           NOP     
62b7: 00           NOP     
62b8: 00           NOP     
62b9: 02           INX     SP
62ba: 02           INX     SP
62bb: 00           NOP     
62bc: 01 41        LDAW    VV:41
62be: 51           DCR     A
62bf: 49 09        MVIX    BC,$09
62c1: 00           NOP     
62c2: 06           illegal 
62c3: 06           illegal 
62c4: 00           NOP     
62c5: 00           NOP     
62c6: 00           NOP     
62c7: 00           NOP     
62c8: 00           NOP     
62c9: 06           illegal 
62ca: 02           INX     SP
62cb: 70 11        illegal 
62cd: 01 01        LDAW    VV:01
62cf: 01 71        LDAW    VV:71
62d1: 01 00        LDAW    VV:00
62d3: 42           INR     B
62d4: 3e           STAX    (DE-)
62d5: 00           NOP     
62d6: 00           NOP     
62d7: 00           NOP     
62d8: 00           NOP     
62d9: 60 11        XRA     A,A
62db: 19           MOV     EAL,A
62dc: 15 13 11     ORIW    VV:13,$11
62df: 13           DCX     BC
62e0: 14 18 10     LXI     BC,$1018
62e3: 60 00        illegal 
62e5: 00           NOP     
62e6: 00           NOP     
62e7: 00           NOP     
62e8: 00           NOP     
62e9: 01 01        LDAW    VV:01
62eb: 7f 09        CALF    $0F09
62ed: 09           MOV     A,EAL
62ee: 09           MOV     A,EAL
62ef: 09           MOV     A,EAL
62f0: 09           MOV     A,EAL
62f1: 08           MOV     A,EAH
62f2: 46 56        ADI     A,$56
62f4: 30 00        DCRW    VV:00
62f6: 00           NOP     
62f7: 00           NOP     
62f8: 00           NOP     
62f9: 3c           STAX    (DE+)
62fa: 22           INX     DE
62fb: 42           INR     B
62fc: 40 01 01     CALL    $0101
62ff: 01 01        LDAW    VV:01
6301: 01 40        LDAW    VV:40
6303: 42           INR     B
6304: 23           DCX     DE
6305: 00           NOP     
6306: 00           NOP     
6307: 00           NOP     
6308: 00           NOP     
6309: 01 01        LDAW    VV:01
630b: 7f 01        CALF    $0F01
630d: 01 01        LDAW    VV:01
630f: 01 01        LDAW    VV:01
6311: 01 40        LDAW    VV:40
6313: 42           INR     B
6314: 3e           STAX    (DE-)
6315: 00           NOP     
6316: 00           NOP     
6317: 00           NOP     
6318: 00           NOP     
6319: 01 01        LDAW    VV:01
631b: 7f 09        CALF    $0F09
631d: 09           MOV     A,EAL
631e: 09           MOV     A,EAL
631f: 09           MOV     A,EAL
6320: 1d           MOV     E,A
6321: 01 01        LDAW    VV:01
6323: 01 63        LDAW    VV:63
6325: 00           NOP     
6326: 00           NOP     
6327: 00           NOP     
6328: 00           NOP     
6329: 01 01        LDAW    VV:01
632b: 7f 09        CALF    $0F09
632d: 09           MOV     A,EAL
632e: 09           MOV     A,EAL
632f: 09           MOV     A,EAL
6330: 1d           MOV     E,A
6331: 01 01        LDAW    VV:01
6333: 01 03        LDAW    VV:03
6335: 00           NOP     
6336: 00           NOP     
6337: 00           NOP     
6338: 00           NOP     
6339: 3c           STAX    (DE+)
633a: 22           INX     DE
633b: 42           INR     B
633c: 40 01 01     CALL    $0101
633f: 01 01        LDAW    VV:01
6341: 01 40        LDAW    VV:40
6343: 42           INR     B
6344: 33           DCX     HL
6345: 00           NOP     
6346: 00           NOP     
6347: 00           NOP     
6348: 00           NOP     
6349: 01 7f        LDAW    VV:7F
634b: 09           MOV     A,EAL
634c: 09           MOV     A,EAL
634d: 08           MOV     A,EAH
634e: 08           MOV     A,EAH
634f: 08           MOV     A,EAH
6350: 08           MOV     A,EAH
6351: 09           MOV     A,EAL
6352: 09           MOV     A,EAL
6353: 7f 01        CALF    $0F01
6355: 00           NOP     
6356: 00           NOP     
6357: 00           NOP     
6358: 00           NOP     
6359: 00           NOP     
635a: 00           NOP     
635b: 01 01        LDAW    VV:01
635d: 01 7f        LDAW    VV:7F
635f: 01 01        LDAW    VV:01
6361: 01 00        LDAW    VV:00
6363: 00           NOP     
6364: 00           NOP     
6365: 00           NOP     
6366: 00           NOP     
6367: 00           NOP     
6368: 00           NOP     
6369: 20 40        INRW    VV:40
636b: 40 00 00     CALL    $0000
636e: 01 01        LDAW    VV:01
6370: 41           INR     A
6371: 41           INR     A
6372: 3f           STAX    (HL-)
6373: 01 01        LDAW    VV:01
6375: 00           NOP     
6376: 00           NOP     
6377: 00           NOP     
6378: 00           NOP     
6379: 01 01        LDAW    VV:01
637b: 7f 01        CALF    $0F01
637d: 09           MOV     A,EAL
637e: 10           EXA     
637f: 04 20 03     LXI     SP,$0320
6382: 41           INR     A
6383: 01 01        LDAW    VV:01
6385: 00           NOP     
6386: 00           NOP     
6387: 00           NOP     
6388: 00           NOP     
6389: 01 01        LDAW    VV:01
638b: 7f 01        CALF    $0F01
638d: 01 01        LDAW    VV:01
638f: 01 00        LDAW    VV:00
6391: 00           NOP     
6392: 00           NOP     
6393: 00           NOP     
6394: 60 00        illegal 
6396: 00           NOP     
6397: 00           NOP     
6398: 01 7f        LDAW    VV:7F
639a: 01 02        LDAW    VV:02
639c: 04 08 10     LXI     SP,$1008
639f: 08           MOV     A,EAH
63a0: 04 02 01     LXI     SP,$0102
63a3: 7f 01        CALF    $0F01
63a5: 00           NOP     
63a6: 00           NOP     
63a7: 00           NOP     
63a8: 01 7f        LDAW    VV:7F
63aa: 01 03        LDAW    VV:03
63ac: 04 00 08     LXI     SP,$0800
63af: 10           EXA     
63b0: 00           NOP     
63b1: 21           JB      
63b2: 41           INR     A
63b3: 7f 01        CALF    $0F01
63b5: 00           NOP     
63b6: 00           NOP     
63b7: 00           NOP     
63b8: 00           NOP     
63b9: 3e           STAX    (DE-)
63ba: 42           INR     B
63bb: 40 01 01     CALL    $0101
63be: 01 01        LDAW    VV:01
63c0: 01 01        LDAW    VV:01
63c2: 40 42 3e     CALL    $3E42
63c5: 00           NOP     
63c6: 00           NOP     
63c7: 00           NOP     
63c8: 01 01        LDAW    VV:01
63ca: 7f 01        CALF    $0F01
63cc: 01 01        LDAW    VV:01
63ce: 01 01        LDAW    VV:01
63d0: 01 01        LDAW    VV:01
63d2: 08           MOV     A,EAH
63d3: 0a           MOV     A,B
63d4: 06           illegal 
63d5: 00           NOP     
63d6: 00           NOP     
63d7: 00           NOP     
63d8: 00           NOP     
63d9: 3e           STAX    (DE-)
63da: 42           INR     B
63db: 40 01 01     CALL    $0101
63de: 01 01        LDAW    VV:01
63e0: 01 21        LDAW    VV:21
63e2: 40 42 3e     CALL    $3E42
63e5: 00           NOP     
63e6: 00           NOP     
63e7: 00           NOP     
63e8: 01 01        LDAW    VV:01
63ea: 7f 01        CALF    $0F01
63ec: 01 01        LDAW    VV:01
63ee: 11           EXX     
63ef: 01 21        LDAW    VV:21
63f1: 01 48        LDAW    VV:48
63f3: 0a           MOV     A,B
63f4: 06           illegal 
63f5: 00           NOP     
63f6: 00           NOP     
63f7: 00           NOP     
63f8: 00           NOP     
63f9: 66 42        SUI     A,$42
63fb: 40 09 09     CALL    $0909
63fe: 09           MOV     A,EAL
63ff: 09           MOV     A,EAL
6400: 09           MOV     A,EAL
6401: 09           MOV     A,EAL
6402: 40 52 33     CALL    $3352
6405: 00           NOP     
6406: 00           NOP     
6407: 00           NOP     
6408: 03           DCX     SP
6409: 01 01        LDAW    VV:01
640b: 01 01        LDAW    VV:01
640d: 01 7f        LDAW    VV:7F
640f: 01 01        LDAW    VV:01
6411: 01 01        LDAW    VV:01
6413: 01 03        LDAW    VV:03
6415: 00           NOP     
6416: 00           NOP     
6417: 00           NOP     
6418: 01 3f        LDAW    VV:3F
641a: 41           INR     A
641b: 41           INR     A
641c: 00           NOP     
641d: 00           NOP     
641e: 00           NOP     
641f: 00           NOP     
6420: 00           NOP     
6421: 41           INR     A
6422: 41           INR     A
6423: 3f           STAX    (HL-)
6424: 01 00        LDAW    VV:00
6426: 00           NOP     
6427: 00           NOP     
6428: 01 03        LDAW    VV:03
642a: 05 09 10     ANIW    VV:09,$10
642d: 20 40        INRW    VV:40
642f: 20 10        INRW    VV:10
6431: 09           MOV     A,EAL
6432: 05 03 01     ANIW    VV:03,$01
6435: 00           NOP     
6436: 00           NOP     
6437: 01 03        LDAW    VV:03
6439: 0d           MOV     A,E
643a: 31           BLOCK   
643b: 40 20 18     CALL    $1820
643e: 04 18 20     LXI     SP,$2018
6441: 40 31 0d     CALL    $0D31
6444: 03           DCX     SP
6445: 01 00        LDAW    VV:00
6447: 01 41        LDAW    VV:41
6449: 03           DCX     SP
644a: 20 04        INRW    VV:04
644c: 10           EXA     
644d: 08           MOV     A,EAH
644e: 08           MOV     A,EAH
644f: 10           EXA     
6450: 04 20 03     LXI     SP,$0320
6453: 41           INR     A
6454: 01 00        LDAW    VV:00
6456: 00           NOP     
6457: 01 01        LDAW    VV:01
6459: 03           DCX     SP
645a: 01 05        LDAW    VV:05
645c: 00           NOP     
645d: 08           MOV     A,EAH
645e: 70 08        illegal 
6460: 00           NOP     
6461: 05 01 03     ANIW    VV:01,$03
6464: 01 01        LDAW    VV:01
6466: 00           NOP     
6467: 00           NOP     
6468: 00           NOP     
6469: 43           INR     C
646a: 21           JB      
646b: 01 11        LDAW    VV:11
646d: 01 09        LDAW    VV:09
646f: 01 05        LDAW    VV:05
6471: 03           DCX     SP
6472: 41           INR     A
6473: 00           NOP     
6474: 00           NOP     
6475: 00           NOP     
6476: 00           NOP     
6477: 00           NOP     
6478: 00           NOP     
6479: 00           NOP     
647a: 00           NOP     
647b: 00           NOP     
647c: 7f 01        CALF    $0F01
647e: 01 01        LDAW    VV:01
6480: 01 00        LDAW    VV:00
6482: 00           NOP     
6483: 00           NOP     
6484: 00           NOP     
6485: 00           NOP     
6486: 00           NOP     
6487: 01 00        LDAW    VV:00
6489: 02           INX     SP
648a: 00           NOP     
648b: 04 00 08     LXI     SP,$0800
648e: 00           NOP     
648f: 10           EXA     
6490: 00           NOP     
6491: 20 00        INRW    VV:00
6493: 40 00 00     CALL    $0000
6496: 00           NOP     
6497: 00           NOP     
6498: 00           NOP     
6499: 00           NOP     
649a: 00           NOP     
649b: 00           NOP     
649c: 01 01        LDAW    VV:01
649e: 01 01        LDAW    VV:01
64a0: 7f 00        CALF    $0F00
64a2: 00           NOP     
64a3: 00           NOP     
64a4: 00           NOP     
64a5: 00           NOP     
64a6: 00           NOP     
64a7: 00           NOP     
64a8: 00           NOP     
64a9: 00           NOP     
64aa: 00           NOP     
64ab: 00           NOP     
64ac: 02           INX     SP
64ad: 00           NOP     
64ae: 01 00        LDAW    VV:00
64b0: 02           INX     SP
64b1: 00           NOP     
64b2: 00           NOP     
64b3: 00           NOP     
64b4: 00           NOP     
64b5: 00           NOP     
64b6: 00           NOP     
64b7: c0           JR      $64B8
64b8: c0           JR      $64B9
64b9: c0           JR      $64BA
64ba: c0           JR      $64BB
64bb: c0           JR      $64BC
64bc: c0           JR      $64BD
64bd: c0           JR      $64BE
64be: c0           JR      $64BF
64bf: c0           JR      $64C0
64c0: c0           JR      $64C1
64c1: c0           JR      $64C2
64c2: c0           JR      $64C3
64c3: c0           JR      $64C4
64c4: c0           JR      $64C5
64c5: c0           JR      $64C6
64c6: c0           JR      $64C7
64c7: 00           NOP     
64c8: 00           NOP     
64c9: 00           NOP     
64ca: 00           NOP     
64cb: 00           NOP     
64cc: 01 00        LDAW    VV:00
64ce: 02           INX     SP
64cf: 00           NOP     
64d0: 04 00 00     LXI     SP,$0000
64d3: 00           NOP     
64d4: 00           NOP     
64d5: 00           NOP     
64d6: 00           NOP     
64d7: 00           NOP     
64d8: 00           NOP     
64d9: 20 40        INRW    VV:40
64db: 14 14 14     LXI     BC,$1414
64de: 14 14 14     LXI     BC,$1414
64e1: 50           EXH     
64e2: 78 00        CALF    $0800
64e4: 00           NOP     
64e5: 00           NOP     
64e6: 00           NOP     
64e7: 00           NOP     
64e8: 00           NOP     
64e9: 7f 48        CALF    $0F48
64eb: 40 04 04     CALL    $0404
64ee: 04 04 04     LXI     SP,$0404
64f1: 04 40 48     LXI     SP,$4840
64f4: 38           illegal 
64f5: 00           NOP     
64f6: 00           NOP     
64f7: 00           NOP     
64f8: 00           NOP     
64f9: 38           illegal 
64fa: 48 40        SKIT    NMI
64fc: 04 04 04     LXI     SP,$0404
64ff: 04 04 40     LXI     SP,$4004
6502: 48 0c        SK      Z
6504: 00           NOP     
6505: 00           NOP     
6506: 00           NOP     
6507: 00           NOP     
6508: 00           NOP     
6509: 38           illegal 
650a: 48 40        SKIT    NMI
650c: 04 04 04     LXI     SP,$0404
650f: 04 04 04     LXI     SP,$0404
6512: 40 48 7f     CALL    $7F48
6515: 00           NOP     
6516: 00           NOP     
6517: 00           NOP     
6518: 00           NOP     
6519: 38           illegal 
651a: 58 50        BIT     0,VV:50
651c: 14 14 14     LXI     BC,$1414
651f: 14 14 50     LXI     BC,$5014
6522: 58 18        BIT     0,VV:18
6524: 00           NOP     
6525: 00           NOP     
6526: 00           NOP     
6527: 00           NOP     
6528: 00           NOP     
6529: 00           NOP     
652a: 00           NOP     
652b: 00           NOP     
652c: 00           NOP     
652d: 7e 02        CALF    $0E02
652f: 00           NOP     
6530: 01 01        LDAW    VV:01
6532: 01 00        LDAW    VV:00
6534: 00           NOP     
6535: 00           NOP     
6536: 00           NOP     
6537: 00           NOP     
6538: 00           NOP     
6539: 38           illegal 
653a: 28           illegal 
653b: 00           NOP     
653c: d1           JR      $654E
653d: d1           JR      $654F
653e: d1           JR      $6550
653f: d1           JR      $6551
6540: d1           JR      $6552
6541: d1           JR      $6553
6542: 00           NOP     
6543: 28           illegal 
6544: be           STAX    (HL+EA)
6545: 04 00 00     LXI     SP,$0000
6548: 01 7f        LDAW    VV:7F
654a: 08           MOV     A,EAH
654b: 04 04 04     LXI     SP,$0404
654e: 04 04 04     LXI     SP,$0404
6551: 08           MOV     A,EAH
6552: 78 00        CALF    $0800
6554: 00           NOP     
6555: 00           NOP     
6556: 00           NOP     
6557: 00           NOP     
6558: 00           NOP     
6559: 00           NOP     
655a: 00           NOP     
655b: 00           NOP     
655c: 00           NOP     
655d: 05 7d 00     ANIW    VV:7D,$00
6560: 00           NOP     
6561: 00           NOP     
6562: 00           NOP     
6563: 00           NOP     
6564: 00           NOP     
6565: 00           NOP     
6566: 00           NOP     
6567: 00           NOP     
6568: 00           NOP     
6569: a0           POP     VA
656a: a0           POP     VA
656b: 00           NOP     
656c: 00           NOP     
656d: 00           NOP     
656e: 00           NOP     
656f: a0           POP     VA
6570: 7d 00        CALF    $0D00
6572: 00           NOP     
6573: 00           NOP     
6574: 00           NOP     
6575: 00           NOP     
6576: 00           NOP     
6577: 00           NOP     
6578: 00           NOP     
6579: 7f 10        CALF    $0F10
657b: 10           EXA     
657c: 00           NOP     
657d: 00           NOP     
657e: 28           illegal 
657f: 08           MOV     A,EAH
6580: 00           NOP     
6581: 40 04 00     CALL    $0004
6584: 00           NOP     
6585: 00           NOP     
6586: 00           NOP     
6587: 00           NOP     
6588: 00           NOP     
6589: 00           NOP     
658a: 00           NOP     
658b: 00           NOP     
658c: 01 01        LDAW    VV:01
658e: 7f 00        CALF    $0F00
6590: 00           NOP     
6591: 00           NOP     
6592: 00           NOP     
6593: 00           NOP     
6594: 00           NOP     
6595: 00           NOP     
6596: 00           NOP     
6597: 04 7c 00     LXI     SP,$007C
659a: 04 04 04     LXI     SP,$0404
659d: 04 78 04     LXI     SP,$0478
65a0: 04 04 04     LXI     SP,$0404
65a3: 04 78 00     LXI     SP,$0078
65a6: 00           NOP     
65a7: 00           NOP     
65a8: 00           NOP     
65a9: 04 7c 00     LXI     SP,$007C
65ac: 04 04 04     LXI     SP,$0404
65af: 04 04 00     LXI     SP,$0004
65b2: 78 00        CALF    $0800
65b4: 00           NOP     
65b5: 00           NOP     
65b6: 00           NOP     
65b7: 00           NOP     
65b8: 00           NOP     
65b9: 38           illegal 
65ba: 48 40        SKIT    NMI
65bc: 04 04 04     LXI     SP,$0404
65bf: 04 04 04     LXI     SP,$0404
65c2: 40 48 38     CALL    $3848
65c5: 00           NOP     
65c6: 00           NOP     
65c7: 00           NOP     
65c8: c1           JR      $65CA
65c9: ff           JR      $65C9
65ca: ca           JR      $65D5
65cb: c0           JR      $65CC
65cc: d1           JR      $65DE
65cd: 44 44 44     LXI     EA,$4444
65d0: 44 00 28     LXI     EA,$2800
65d3: 38           illegal 
65d4: 00           NOP     
65d5: 00           NOP     
65d6: 00           NOP     
65d7: 00           NOP     
65d8: 00           NOP     
65d9: 38           illegal 
65da: 28           illegal 
65db: 00           NOP     
65dc: 44 44 44     LXI     EA,$4444
65df: 44 d1 c0     LXI     EA,$C0D1
65e2: ca           JR      $65ED
65e3: ff           JR      $65E3
65e4: c1           JR      $65E6
65e5: 00           NOP     
65e6: 00           NOP     
65e7: 00           NOP     
65e8: 00           NOP     
65e9: 04 78 08     LXI     SP,$0878
65ec: 00           NOP     
65ed: 04 04 04     LXI     SP,$0404
65f0: 04 04 04     LXI     SP,$0404
65f3: 00           NOP     
65f4: 00           NOP     
65f5: 00           NOP     
65f6: 00           NOP     
65f7: 00           NOP     
65f8: 00           NOP     
65f9: 48 40        SKIT    NMI
65fb: 14 14 14     LXI     BC,$1414
65fe: 14 14 14     LXI     BC,$1414
6601: 14 14 40     LXI     BC,$4014
6604: 6c 00        MVI     D,$00
6606: 00           NOP     
6607: 00           NOP     
6608: 00           NOP     
6609: 00           NOP     
660a: 04 04 3f     LXI     SP,$3F04
660d: 44 44 04     LXI     EA,$0444
6610: 04 04 40     LXI     SP,$4004
6613: 00           NOP     
6614: 00           NOP     
6615: 00           NOP     
6616: 00           NOP     
6617: 00           NOP     
6618: 04 3c 40     LXI     SP,$403C
661b: 40 00 00     CALL    $0000
661e: 00           NOP     
661f: 00           NOP     
6620: 40 40 7c     CALL    $7C40
6623: 00           NOP     
6624: 00           NOP     
6625: 00           NOP     
6626: 00           NOP     
6627: 00           NOP     
6628: 00           NOP     
6629: 04 0c 14     LXI     SP,$140C
662c: 20 40        INRW    VV:40
662e: 00           NOP     
662f: 40 20 14     CALL    $1420
6632: 0c           MOV     A,D
6633: 04 00 00     LXI     SP,$0000
6636: 00           NOP     
6637: 04 0c 14     LXI     SP,$140C
663a: 24 40 00     LXI     DE,$0040
663d: 20 10        INRW    VV:10
663f: 20 00        INRW    VV:00
6641: 40 24 14     CALL    $1424
6644: 0c           MOV     A,D
6645: 04 00 00     LXI     SP,$0000
6648: 04 04 44     LXI     SP,$4404
664b: 08           MOV     A,EAH
664c: 20 10        INRW    VV:10
664e: 10           EXA     
664f: 20 08        INRW    VV:08
6651: 44 04 04     LXI     EA,$0404
6654: 00           NOP     
6655: 00           NOP     
6656: 00           NOP     
6657: 00           NOP     
6658: 00           NOP     
6659: 04 c3 c5     LXI     SP,$C5C3
665c: c0           JR      $665D
665d: e8           JR      $6646
665e: d0           JR      $666F
665f: 20 00        INRW    VV:00
6661: 14 0c 04     LXI     BC,$040C
6664: 00           NOP     
6665: 00           NOP     
6666: 00           NOP     
6667: 00           NOP     
6668: 00           NOP     
6669: 0c           MOV     A,D
666a: 44 04 24     LXI     EA,$2404
666d: 04 14 04     LXI     SP,$0414
6670: 0c           MOV     A,D
6671: 04 44 00     LXI     SP,$0044
6674: 00           NOP     
6675: 00           NOP     
6676: 00           NOP     
6677: 00           NOP     
6678: 00           NOP     
6679: 00           NOP     
667a: 00           NOP     
667b: 08           MOV     A,EAH
667c: 08           MOV     A,EAH
667d: 36 42        SUINB   A,$42
667f: 40 01 01     CALL    $0101
6682: 00           NOP     
6683: 00           NOP     
6684: 00           NOP     
6685: 00           NOP     
6686: 00           NOP     
6687: 00           NOP     
6688: 00           NOP     
6689: 00           NOP     
668a: 00           NOP     
668b: 00           NOP     
668c: 00           NOP     
668d: 00           NOP     
668e: 7f 00        CALF    $0F00
6690: 00           NOP     
6691: 00           NOP     
6692: 00           NOP     
6693: 00           NOP     
6694: 00           NOP     
6695: 00           NOP     
6696: 00           NOP     
6697: 00           NOP     
6698: 00           NOP     
6699: 00           NOP     
669a: 00           NOP     
669b: 01 01        LDAW    VV:01
669d: 40 42 36     CALL    $3642
66a0: 08           MOV     A,EAH
66a1: 08           MOV     A,EAH
66a2: 00           NOP     
66a3: 00           NOP     
66a4: 00           NOP     
66a5: 00           NOP     
66a6: 00           NOP     
66a7: 02           INX     SP
66a8: 00           NOP     
66a9: 01 01        LDAW    VV:01
66ab: 01 00        LDAW    VV:00
66ad: 00           NOP     
66ae: 00           NOP     
66af: 02           INX     SP
66b0: 02           INX     SP
66b1: 02           INX     SP
66b2: 00           NOP     
66b3: 01 00        LDAW    VV:00
66b5: 00           NOP     
66b6: 00           NOP     
66b7: 00           NOP     
66b8: 00           NOP     
66b9: 00           NOP     
66ba: 00           NOP     
66bb: 00           NOP     
66bc: 00           NOP     
66bd: 00           NOP     
66be: 00           NOP     
66bf: 00           NOP     
66c0: 00           NOP     
66c1: 00           NOP     
66c2: 00           NOP     
66c3: 00           NOP     
66c4: 00           NOP     
66c5: 00           NOP     
66c6: 00           NOP     
66c7: 38           illegal 
66c8: 78 fc        CALF    $08FC
66ca: fc           JR      $66C7
66cb: fc           JR      $66C8
66cc: 78 7a        CALF    $087A
66ce: 78 fd        CALF    $08FD
66d0: fc           JR      $66CD
66d1: fc           JR      $66CE
66d2: 48 48        SKIT    FAD
66d4: 00           NOP     
66d5: 00           NOP     
66d6: 00           NOP     
66d7: 38           illegal 
66d8: 40 84 84     CALL    $8484
66db: 84           CALT    ($0088)
66dc: 00           NOP     
66dd: 02           INX     SP
66de: 00           NOP     
66df: 85           CALT    ($008A)
66e0: 84           CALT    ($0088)
66e1: b4           PUSH    EA
66e2: 00           NOP     
66e3: 48 00        illegal 
66e5: 00           NOP     
66e6: 00           NOP     
66e7: 00           NOP     
66e8: 00           NOP     
66e9: fc           JR      $66E6
66ea: 78 38        CALF    $0838
66ec: 30 10        DCRW    VV:10
66ee: 00           NOP     
66ef: 20 00        INRW    VV:00
66f1: 40 00 80     CALL    $8000
66f4: 00           NOP     
66f5: 00           NOP     
66f6: 00           NOP     
66f7: 00           NOP     
66f8: 81           CALT    ($0082)
66f9: 81           CALT    ($0082)
66fa: c3           JR      $66FE
66fb: 81           CALT    ($0082)
66fc: a5           DMOV    EA,BC
66fd: 81           CALT    ($0082)
66fe: d9           JR      $6718
66ff: 81           CALT    ($0082)
6700: a5           DMOV    EA,BC
6701: 81           CALT    ($0082)
6702: c3           JR      $6706
6703: 81           CALT    ($0082)
6704: 81           CALT    ($0082)
6705: 00           NOP     
6706: 00           NOP     
6707: 08           MOV     A,EAH
6708: 00           NOP     
6709: 10           EXA     
670a: 00           NOP     
670b: 20 00        INRW    VV:00
670d: 10           EXA     
670e: 00           NOP     
670f: 08           MOV     A,EAH
6710: 00           NOP     
6711: 04 00 02     LXI     SP,$0200
6714: 00           NOP     
6715: 00           NOP     
6716: 00           NOP     
6717: 08           MOV     A,EAH
6718: 00           NOP     
6719: 10           EXA     
671a: 00           NOP     
671b: 20 00        INRW    VV:00
671d: 10           EXA     
671e: 00           NOP     
671f: 08           MOV     A,EAH
6720: 00           NOP     
6721: 04 00 02     LXI     SP,$0200
6724: 00           NOP     
6725: 00           NOP     
6726: 00           NOP     
6727: 20 20        INRW    VV:20
6729: 70 70        illegal 
672b: f8           JR      $6724
672c: 20 20        INRW    VV:20
672e: 20 20        INRW    VV:20
6730: 20 20        INRW    VV:20
6732: 20 3f        INRW    VV:3F
6734: 00           NOP     
6735: 00           NOP     
6736: 00           NOP     
6737: 95           CALT    ($00AA)
6738: 95           CALT    ($00AA)
6739: 95           CALT    ($00AA)
673a: 95           CALT    ($00AA)
673b: 95           CALT    ($00AA)
673c: 95           CALT    ($00AA)
673d: 95           CALT    ($00AA)
673e: 95           CALT    ($00AA)
673f: 95           CALT    ($00AA)
6740: 95           CALT    ($00AA)
6741: 95           CALT    ($00AA)
6742: 95           CALT    ($00AA)
6743: 95           CALT    ($00AA)
6744: 95           CALT    ($00AA)
6745: 95           CALT    ($00AA)
6746: 95           CALT    ($00AA)
6747: 08           MOV     A,EAH
6748: 08           MOV     A,EAH
6749: 1c           MOV     D,A
674a: 08           MOV     A,EAH
674b: 2a           LDAX    (DE)
674c: 08           MOV     A,EAH
674d: 49 08        MVIX    BC,$08
674f: 08           MOV     A,EAH
6750: 08           MOV     A,EAH
6751: 08           MOV     A,EAH
6752: 08           MOV     A,EAH
6753: 08           MOV     A,EAH
6754: 08           MOV     A,EAH
6755: 08           MOV     A,EAH
6756: 08           MOV     A,EAH
6757: 00           NOP     
6758: 00           NOP     
6759: 00           NOP     
675a: 80           CALT    ($0080)
675b: 00           NOP     
675c: 00           NOP     
675d: 00           NOP     
675e: 80           CALT    ($0080)
675f: 00           NOP     
6760: 00           NOP     
6761: 00           NOP     
6762: 80           CALT    ($0080)
6763: 00           NOP     
6764: 00           NOP     
6765: 00           NOP     
6766: 00           NOP     
6767: 10           EXA     
6768: 00           NOP     
6769: 20 00        INRW    VV:00
676b: 40 00 ff     CALL    $FF00
676e: 00           NOP     
676f: 40 00 20     CALL    $2000
6772: 00           NOP     
6773: 10           EXA     
6774: 00           NOP     
6775: 00           NOP     
6776: 00           NOP     
6777: 08           MOV     A,EAH
6778: 00           NOP     
6779: 04 00 02     LXI     SP,$0200
677c: 00           NOP     
677d: ff           JR      $677D
677e: 00           NOP     
677f: 02           INX     SP
6780: 00           NOP     
6781: 04 00 08     LXI     SP,$0800
6784: 00           NOP     
6785: 00           NOP     
6786: 00           NOP     
6787: 01 01        LDAW    VV:01
6789: 01 01        LDAW    VV:01
678b: 01 01        LDAW    VV:01
678d: 01 01        LDAW    VV:01
678f: 01 01        LDAW    VV:01
6791: 01 01        LDAW    VV:01
6793: 01 01        LDAW    VV:01
6795: 01 01        LDAW    VV:01
6797: 20 20        INRW    VV:20
6799: 70 70        illegal 
679b: f8           JR      $6794
679c: 20 20        INRW    VV:20
679e: 20 20        INRW    VV:20
67a0: 20 20        INRW    VV:20
67a2: 20 3f        INRW    VV:3F
67a4: 00           NOP     
67a5: 00           NOP     
67a6: 00           NOP     
67a7: ff           JR      $67A7
67a8: ff           JR      $67A8
67a9: ff           JR      $67A9
67aa: ff           JR      $67AA
67ab: ff           JR      $67AB
67ac: ff           JR      $67AC
67ad: ff           JR      $67AD
67ae: ff           JR      $67AE
67af: ff           JR      $67AF
67b0: ff           JR      $67B0
67b1: ff           JR      $67B1
67b2: ff           JR      $67B2
67b3: ff           JR      $67B3
67b4: ff           JR      $67B4
67b5: 00           NOP     
67b6: 00           NOP     
67b7: 81           CALT    ($0082)
67b8: 81           CALT    ($0082)
67b9: 89           CALT    ($0092)
67ba: 88           CALT    ($0090)
67bb: 9c           CALT    ($00B8)
67bc: 9c           CALT    ($00B8)
67bd: be           STAX    (HL+EA)
67be: 3e           STAX    (DE-)
67bf: 7f 08        CALF    $0F08
67c1: 88           CALT    ($0090)
67c2: 88           CALT    ($0090)
67c3: 88           CALT    ($0090)
67c4: 80           CALT    ($0080)
67c5: 81           CALT    ($0082)
67c6: 81           CALT    ($0082)
67c7: 81           CALT    ($0082)
67c8: 81           CALT    ($0082)
67c9: 80           CALT    ($0080)
67ca: 88           CALT    ($0090)
67cb: 88           CALT    ($0090)
67cc: 88           CALT    ($0090)
67cd: 08           MOV     A,EAH
67ce: 7f 3e        CALF    $0F3E
67d0: be           STAX    (HL+EA)
67d1: 9c           CALT    ($00B8)
67d2: 9c           CALT    ($00B8)
67d3: 88           CALT    ($0090)
67d4: 89           CALT    ($0092)
67d5: 81           CALT    ($0082)
67d6: 81           CALT    ($0082)
67d7: c3           JR      $67DB
67d8: 00           NOP     
67d9: 08           MOV     A,EAH
67da: 08           MOV     A,EAH
67db: 18           MOV     EAH,A
67dc: 18           MOV     EAH,A
67dd: 38           illegal 
67de: 38           illegal 
67df: 7e 38        CALF    $0E38
67e1: 38           illegal 
67e2: 18           MOV     EAH,A
67e3: 18           MOV     EAH,A
67e4: 08           MOV     A,EAH
67e5: 08           MOV     A,EAH
67e6: c3           JR      $67EA
67e7: c3           JR      $67EB
67e8: 00           NOP     
67e9: 10           EXA     
67ea: 10           EXA     
67eb: 18           MOV     EAH,A
67ec: 18           MOV     EAH,A
67ed: 1c           MOV     D,A
67ee: 1c           MOV     D,A
67ef: 7e 1c        CALF    $0E1C
67f1: 1c           MOV     D,A
67f2: 18           MOV     EAH,A
67f3: 18           MOV     EAH,A
67f4: 10           EXA     
67f5: 10           EXA     
67f6: c3           JR      $67FA
67f7: 08           MOV     A,EAH
67f8: 08           MOV     A,EAH
67f9: 08           MOV     A,EAH
67fa: 08           MOV     A,EAH
67fb: 08           MOV     A,EAH
67fc: 08           MOV     A,EAH
67fd: 08           MOV     A,EAH
67fe: 08           MOV     A,EAH
67ff: 08           MOV     A,EAH
6800: 08           MOV     A,EAH
6801: 08           MOV     A,EAH
6802: 08           MOV     A,EAH
6803: 08           MOV     A,EAH
6804: 08           MOV     A,EAH
6805: 08           MOV     A,EAH
6806: 08           MOV     A,EAH
6807: ff           JR      $6807
6808: 80           CALT    ($0080)
6809: 80           CALT    ($0080)
680a: 80           CALT    ($0080)
680b: 80           CALT    ($0080)
680c: 80           CALT    ($0080)
680d: 80           CALT    ($0080)
680e: 80           CALT    ($0080)
680f: 80           CALT    ($0080)
6810: 80           CALT    ($0080)
6811: 80           CALT    ($0080)
6812: 80           CALT    ($0080)
6813: 80           CALT    ($0080)
6814: 80           CALT    ($0080)
6815: 80           CALT    ($0080)
6816: 80           CALT    ($0080)
6817: 08           MOV     A,EAH
6818: 08           MOV     A,EAH
6819: 08           MOV     A,EAH
681a: 08           MOV     A,EAH
681b: 08           MOV     A,EAH
681c: 08           MOV     A,EAH
681d: 08           MOV     A,EAH
681e: 08           MOV     A,EAH
681f: 49 08        MVIX    BC,$08
6821: 2a           LDAX    (DE)
6822: 08           MOV     A,EAH
6823: 1c           MOV     D,A
6824: 08           MOV     A,EAH
6825: 08           MOV     A,EAH
6826: 00           NOP     
6827: aa           EI      
6828: 00           NOP     
6829: 55 00 aa     OFFIW   VV:00,$AA
682c: 00           NOP     
682d: 55 00 aa     OFFIW   VV:00,$AA
6830: 00           NOP     
6831: 55 00 aa     OFFIW   VV:00,$AA
6834: 00           NOP     
6835: 55 00 aa     OFFIW   VV:00,$AA
6838: 00           NOP     
6839: 55 00 aa     OFFIW   VV:00,$AA
683c: 00           NOP     
683d: 55 00 aa     OFFIW   VV:00,$AA
6840: 00           NOP     
6841: 55 00 aa     OFFIW   VV:00,$AA
6844: 00           NOP     
6845: 55 00 00     OFFIW   VV:00,$00
6848: 00           NOP     
6849: 00           NOP     
684a: 00           NOP     
684b: 78 00        CALF    $0800
684d: 04 00 00     LXI     SP,$0000
6850: 00           NOP     
6851: 00           NOP     
6852: 00           NOP     
6853: 00           NOP     
6854: 00           NOP     
6855: 04 00 00     LXI     SP,$0000
6858: 00           NOP     
6859: 00           NOP     
685a: 00           NOP     
685b: 00           NOP     
685c: 00           NOP     
685d: 00           NOP     
685e: 00           NOP     
685f: 00           NOP     
6860: 08           MOV     A,EAH
6861: 70 00        illegal 
6863: 00           NOP     
6864: 00           NOP     
6865: 00           NOP     
6866: 00           NOP     
6867: 00           NOP     
6868: 00           NOP     
6869: 00           NOP     
686a: 00           NOP     
686b: 00           NOP     
686c: 00           NOP     
686d: 00           NOP     
686e: 00           NOP     
686f: 00           NOP     
6870: 00           NOP     
6871: 00           NOP     
6872: 00           NOP     
6873: 00           NOP     
6874: 00           NOP     
6875: 00           NOP     
6876: ff           JR      $6876
6877: 00           NOP     
6878: 00           NOP     
6879: 18           MOV     EAH,A
687a: 18           MOV     EAH,A
687b: 3c           STAX    (DE+)
687c: 3c           STAX    (DE+)
687d: 7e 7e        CALF    $0E7E
687f: 7e 3c        CALF    $0E3C
6881: 3c           STAX    (DE+)
6882: 18           MOV     EAH,A
6883: 18           MOV     EAH,A
6884: 00           NOP     
6885: 00           NOP     
6886: 00           NOP     
6887: 81           CALT    ($0082)
6888: 81           CALT    ($0082)
6889: 81           CALT    ($0082)
688a: 81           CALT    ($0082)
688b: 81           CALT    ($0082)
688c: 81           CALT    ($0082)
688d: 81           CALT    ($0082)
688e: 81           CALT    ($0082)
688f: 81           CALT    ($0082)
6890: 81           CALT    ($0082)
6891: 81           CALT    ($0082)
6892: 81           CALT    ($0082)
6893: 81           CALT    ($0082)
6894: 81           CALT    ($0082)
6895: 81           CALT    ($0082)
6896: 81           CALT    ($0082)
6897: 00           NOP     
6898: 00           NOP     
6899: 00           NOP     
689a: 00           NOP     
689b: 00           NOP     
689c: 66 00        SUI     A,$00
689e: 00           NOP     
689f: 00           NOP     
68a0: 66 00        SUI     A,$00
68a2: 00           NOP     
68a3: 00           NOP     
68a4: 00           NOP     
68a5: 00           NOP     
68a6: 00           NOP     
68a7: 81           CALT    ($0082)
68a8: 81           CALT    ($0082)
68a9: 81           CALT    ($0082)
68aa: 81           CALT    ($0082)
68ab: 99           CALT    ($00B2)
68ac: 99           CALT    ($00B2)
68ad: 99           CALT    ($00B2)
68ae: 81           CALT    ($0082)
68af: 81           CALT    ($0082)
68b0: 81           CALT    ($0082)
68b1: 81           CALT    ($0082)
68b2: ff           JR      $68B2
68b3: 00           NOP     
68b4: 00           NOP     
68b5: 00           NOP     
68b6: 00           NOP     
68b7: ff           JR      $68B7
68b8: 00           NOP     
68b9: 00           NOP     
68ba: 00           NOP     
68bb: 00           NOP     
68bc: 00           NOP     
68bd: 00           NOP     
68be: 00           NOP     
68bf: 00           NOP     
68c0: 00           NOP     
68c1: 00           NOP     
68c2: 00           NOP     
68c3: 00           NOP     
68c4: 00           NOP     
68c5: 00           NOP     
68c6: 00           NOP     
68c7: 00           NOP     
68c8: 40 7c 40     CALL    $407C
68cb: 02           INX     SP
68cc: 00           NOP     
68cd: 01 00        LDAW    VV:00
68cf: 7f 40        CALF    $0F40
68d1: 40 40 4c     CALL    $4C40
68d4: 41           INR     A
68d5: 00           NOP     
68d6: 00           NOP     
68d7: 00           NOP     
68d8: 20 10        INRW    VV:10
68da: 40 40 40     CALL    $4040
68dd: 04 3c 04     LXI     SP,$043C
68e0: 40 40 40     CALL    $4040
68e3: 44 0c 00     LXI     EA,$000C
68e6: 00           NOP     
68e7: 00           NOP     
68e8: 00           NOP     
68e9: ae           LDAX    (HL+EA)
68ea: 24 44 60     LXI     DE,$6044
68ed: 40 50 48     CALL    $4850
68f0: 40 04 26     CALL    $2604
68f3: 38           illegal 
68f4: 00           NOP     
68f5: 00           NOP     
68f6: 00           NOP     
68f7: 00           NOP     
68f8: 00           NOP     
68f9: 3e           STAX    (DE-)
68fa: 21           JB      
68fb: 01 50        LDAW    VV:50
68fd: 48 44        SKIT    F2
68ff: 40 03 21     CALL    $2103
6902: 3e           STAX    (DE-)
6903: 00           NOP     
6904: 00           NOP     
6905: 00           NOP     
6906: 00           NOP     
6907: 00           NOP     
6908: 00           NOP     
6909: 00           NOP     
690a: 60 60        SUB     V,A
690c: 20 3f        INRW    VV:3F
690e: 01 00        LDAW    VV:00
6910: 40 41 41     CALL    $4141
6913: 40 00 00     CALL    $0000
6916: 00           NOP     
6917: 00           NOP     
6918: 00           NOP     
6919: 2f           LDAX    (HL-)
691a: 0f           MOV     A,L
691b: 40 40 40     CALL    $4040
691e: 40 40 40     CALL    $4040
6921: 1d           MOV     E,A
6922: 3d           STAX    (HL+)
6923: 00           NOP     
6924: 00           NOP     
6925: 00           NOP     
6926: 00           NOP     
6927: 00           NOP     
6928: 40 61 51     CALL    $5161
692b: 18           MOV     EAH,A
692c: 14 12 11     LXI     BC,$1112
692f: 12           INX     BC
6930: 14 18 51     LXI     BC,$5118
6933: 61           DAA     
6934: 40 00 00     CALL    $0000
6937: 00           NOP     
6938: 00           NOP     
6939: 38           illegal 
693a: 24 05 41     LXI     DE,$4105
693d: 40 40 40     CALL    $4040
6940: 41           INR     A
6941: 05 24 38     ANIW    VV:24,$38
6944: 00           NOP     
6945: 00           NOP     
6946: 00           NOP     
6947: 00           NOP     
6948: 40 70 40     CALL    $4070
694b: 08           MOV     A,EAH
694c: 03           DCX     SP
694d: 04 00 04     LXI     SP,$0400
6950: 03           DCX     SP
6951: 08           MOV     A,EAH
6952: 40 70 40     CALL    $4070
6955: 00           NOP     
6956: 00           NOP     
6957: 00           NOP     
6958: 00           NOP     
6959: 38           illegal 
695a: 24 04 40     LXI     DE,$4004
695d: 40 40 41     CALL    $4140
6960: 40 04 04     CALL    $0404
6963: 08           MOV     A,EAH
6964: 00           NOP     
6965: 00           NOP     
6966: 00           NOP     
6967: 00           NOP     
6968: 00           NOP     
6969: 30 11        DCRW    VV:11
696b: 41           INR     A
696c: 40 40 40     CALL    $4040
696f: 40 04 25     CALL    $2504
6972: 39           STAX    (BC)
6973: 40 40 00     CALL    $0040
6976: 00           NOP     
6977: 00           NOP     
6978: 00           NOP     
6979: 30 10        DCRW    VV:10
697b: 44 47 44     LXI     EA,$4447
697e: 44 44 07     LXI     EA,$0744
6981: 24 38 40     LXI     DE,$4038
6984: 40 00 00     CALL    $0000
6987: 00           NOP     
6988: 00           NOP     
6989: 3c           STAX    (DE+)
698a: 21           JB      
698b: 01 40        LDAW    VV:40
698d: 40 40 40     CALL    $4040
6990: 01 21        LDAW    VV:21
6992: 3c           STAX    (DE+)
6993: 40 00 00     CALL    $0000
6996: 00           NOP     
6997: 00           NOP     
6998: 00           NOP     
6999: 40 00 3f     CALL    $3F00
699c: 21           JB      
699d: 20 20        INRW    VV:20
699f: 20 20        INRW    VV:20
69a1: 24 07 03     LXI     DE,$0307
69a4: 18           MOV     EAH,A
69a5: 00           NOP     
69a6: 00           NOP     
69a7: 00           NOP     
69a8: 00           NOP     
69a9: 30 10        DCRW    VV:10
69ab: 40 40 41     CALL    $4140
69ae: 40 40 04     CALL    $0440
69b1: 24 38 40     LXI     DE,$4038
69b4: 40 00 00     CALL    $0000
69b7: 00           NOP     
69b8: 00           NOP     
69b9: 00           NOP     
69ba: 01 01        LDAW    VV:01
69bc: 00           NOP     
69bd: 00           NOP     
69be: 00           NOP     
69bf: 00           NOP     
69c0: 00           NOP     
69c1: 01 01        LDAW    VV:01
69c3: 00           NOP     
69c4: 00           NOP     
69c5: 00           NOP     
69c6: 00           NOP     
69c7: 00           NOP     
69c8: 00           NOP     
69c9: 18           MOV     EAH,A
69ca: 24 24 00     LXI     DE,$0024
69cd: 00           NOP     
69ce: 00           NOP     
69cf: b0           PUSH    VA
69d0: 00           NOP     
69d1: 00           NOP     
69d2: 24 24 00     LXI     DE,$0024
69d5: 00           NOP     
69d6: 00           NOP     
69d7: 00           NOP     
69d8: 00           NOP     
69d9: 38           illegal 
69da: 24 04 40     LXI     DE,$4004
69dd: 40 41 40     CALL    $4041
69e0: 40 04 04     CALL    $0404
69e3: 08           MOV     A,EAH
69e4: 00           NOP     
69e5: 00           NOP     
69e6: 00           NOP     
69e7: 00           NOP     
69e8: 00           NOP     
69e9: 00           NOP     
69ea: 00           NOP     
69eb: 00           NOP     
69ec: 00           NOP     
69ed: 04 bd 04     LXI     SP,$04BD
69f0: 00           NOP     
69f1: 00           NOP     
69f2: 00           NOP     
69f3: 00           NOP     
69f4: 00           NOP     
69f5: 00           NOP     
69f6: 00           NOP     
69f7: 00           NOP     
69f8: 00           NOP     
69f9: 40 a8 a8     CALL    $A8A8
69fc: 00           NOP     
69fd: 00           NOP     
69fe: 16 00        XRI     A,$00
6a00: 00           NOP     
6a01: a0           POP     VA
6a02: a0           POP     VA
6a03: 40 00 00     CALL    $0000
6a06: 00           NOP     
6a07: 00           NOP     
6a08: 01 40        LDAW    VV:40
6a0a: 7c 44        CALF    $0C44
6a0c: 01 01        LDAW    VV:01
6a0e: 01 00        LDAW    VV:00
6a10: 00           NOP     
6a11: 00           NOP     
6a12: 45 7c 40     ONIW    VV:7C,$40
6a15: 00           NOP     
6a16: 00           NOP     
6a17: 00           NOP     
6a18: 41           INR     A
6a19: 7c 44        CALF    $0C44
6a1b: 40 09 01     CALL    $0109
6a1e: 11           EXX     
6a1f: 00           NOP     
6a20: 60 40        ADD     V,A
6a22: 7d 40        CALF    $0D40
6a24: 00           NOP     
6a25: 00           NOP     
6a26: 00           NOP     
6a27: 00           NOP     
6a28: 00           NOP     
6a29: 00           NOP     
6a2a: 00           NOP     
6a2b: 00           NOP     
6a2c: 03           DCX     SP
6a2d: 00           NOP     
6a2e: 00           NOP     
6a2f: 00           NOP     
6a30: 03           DCX     SP
6a31: 00           NOP     
6a32: 00           NOP     
6a33: 00           NOP     
6a34: 00           NOP     
6a35: 00           NOP     
6a36: 00           NOP     
6a37: 00           NOP     
6a38: 3c           STAX    (DE+)
6a39: 25 01 42     GTIW    VV:01,$42
6a3c: 42           INR     B
6a3d: 42           INR     B
6a3e: 42           INR     B
6a3f: 42           INR     B
6a40: 42           INR     B
6a41: 42           INR     B
6a42: 01 25        LDAW    VV:25
6a44: 3c           STAX    (DE+)
6a45: 00           NOP     
6a46: 00           NOP     
6a47: 00           NOP     
6a48: 00           NOP     
6a49: 3d           STAX    (HL+)
6a4a: 21           JB      
6a4b: 00           NOP     
6a4c: 40 40 40     CALL    $4040
6a4f: 40 00 21     CALL    $2100
6a52: 3d           STAX    (HL+)
6a53: 00           NOP     
6a54: 00           NOP     
6a55: 00           NOP     
6a56: 00           NOP     
6a57: 00           NOP     
6a58: 00           NOP     
6a59: 3c           STAX    (DE+)
6a5a: 20 00        INRW    VV:00
6a5c: 40 41 40     CALL    $4041
6a5f: 40 00 20     CALL    $2000
6a62: 3c           STAX    (DE+)
6a63: 40 00 00     CALL    $0000
6a66: 00           NOP     
6a67: 00           NOP     
6a68: 00           NOP     
6a69: 38           illegal 
6a6a: 24 04 40     LXI     DE,$4004
6a6d: 40 41 40     CALL    $4041
6a70: 40 04 24     CALL    $2404
6a73: 38           illegal 
6a74: 00           NOP     
6a75: 00           NOP     
6a76: 00           NOP     
6a77: 00           NOP     
6a78: 00           NOP     
6a79: 00           NOP     
6a7a: 00           NOP     
6a7b: 40 44 45     CALL    $4544
6a7e: 7c 40        CALF    $0C40
6a80: 40 40 00     CALL    $0040
6a83: 00           NOP     
6a84: 00           NOP     
6a85: 00           NOP     
6a86: 00           NOP     
6a87: 00           NOP     
6a88: 00           NOP     
6a89: 00           NOP     
6a8a: 00           NOP     
6a8b: 00           NOP     
6a8c: 00           NOP     
6a8d: 00           NOP     
6a8e: 00           NOP     
6a8f: 00           NOP     
6a90: 00           NOP     
6a91: 00           NOP     
6a92: 00           NOP     
6a93: 00           NOP     
6a94: 00           NOP     
6a95: 00           NOP     
6a96: 00           NOP     
6a97: 00           NOP     
6a98: 00           NOP     
6a99: 00           NOP     
6a9a: 00           NOP     
6a9b: 00           NOP     
6a9c: 00           NOP     
6a9d: 4f 4f        JRE     $69EE
6a9f: 00           NOP     
6aa0: 00           NOP     
6aa1: 00           NOP     
6aa2: 00           NOP     
6aa3: 00           NOP     
6aa4: 00           NOP     
6aa5: 00           NOP     
6aa6: 00           NOP     
6aa7: 00           NOP     
6aa8: 00           NOP     
6aa9: 00           NOP     
6aaa: 00           NOP     
6aab: 07 00        ANI     A,$00
6aad: 00           NOP     
6aae: 00           NOP     
6aaf: 07 00        ANI     A,$00
6ab1: 00           NOP     
6ab2: 00           NOP     
6ab3: 00           NOP     
6ab4: 00           NOP     
6ab5: 00           NOP     
6ab6: 00           NOP     
6ab7: 00           NOP     
6ab8: 00           NOP     
6ab9: 10           EXA     
6aba: 10           EXA     
6abb: 10           EXA     
6abc: 7f 10        CALF    $0F10
6abe: 10           EXA     
6abf: 10           EXA     
6ac0: 10           EXA     
6ac1: 7f 10        CALF    $0F10
6ac3: 10           EXA     
6ac4: 10           EXA     
6ac5: 00           NOP     
6ac6: 00           NOP     
6ac7: 00           NOP     
6ac8: 10           EXA     
6ac9: 06           illegal 
6aca: 26 20        ADINC   A,$20
6acc: 20 20        INRW    VV:20
6ace: 7f 20        CALF    $0F20
6ad0: 20 20        INRW    VV:20
6ad2: 2a           LDAX    (DE)
6ad3: 0a           MOV     A,B
6ad4: 10           EXA     
6ad5: 00           NOP     
6ad6: 00           NOP     
6ad7: 00           NOP     
6ad8: 00           NOP     
6ad9: 13           DCX     BC
6ada: 10           EXA     
6adb: 00           NOP     
6adc: 00           NOP     
6add: 08           MOV     A,EAH
6ade: 0b           MOV     A,C
6adf: 20 50        INRW    VV:50
6ae1: 54 54 50     JMP     $5054
6ae4: 20 00        INRW    VV:00
6ae6: 00           NOP     
6ae7: 00           NOP     
6ae8: 30 0b        DCRW    VV:0B
6aea: 49 44        MVIX    BC,$44
6aec: 40 44 49     CALL    $4944
6aef: 03           DCX     SP
6af0: 10           EXA     
6af1: 20 20        INRW    VV:20
6af3: 00           NOP     
6af4: 50           EXH     
6af5: 00           NOP     
6af6: 00           NOP     
6af7: 00           NOP     
6af8: 00           NOP     
6af9: 00           NOP     
6afa: 00           NOP     
6afb: 04 00 02     LXI     SP,$0200
6afe: 00           NOP     
6aff: 01 00        LDAW    VV:00
6b01: 00           NOP     
6b02: 00           NOP     
6b03: 00           NOP     
6b04: 00           NOP     
6b05: 00           NOP     
6b06: 00           NOP     
6b07: 00           NOP     
6b08: 00           NOP     
6b09: 00           NOP     
6b0a: 00           NOP     
6b0b: 1c           MOV     D,A
6b0c: 12           INX     BC
6b0d: 22           INX     DE
6b0e: 21           JB      
6b0f: 01 40        LDAW    VV:40
6b11: 00           NOP     
6b12: 00           NOP     
6b13: 00           NOP     
6b14: 00           NOP     
6b15: 00           NOP     
6b16: 00           NOP     
6b17: 00           NOP     
6b18: 00           NOP     
6b19: 00           NOP     
6b1a: 00           NOP     
6b1b: 00           NOP     
6b1c: 40 01 21     CALL    $2101
6b1f: 22           INX     DE
6b20: 12           INX     BC
6b21: 1c           MOV     D,A
6b22: 00           NOP     
6b23: 00           NOP     
6b24: 00           NOP     
6b25: 00           NOP     
6b26: 00           NOP     
6b27: 00           NOP     
6b28: 00           NOP     
6b29: 08           MOV     A,EAH
6b2a: 08           MOV     A,EAH
6b2b: 08           MOV     A,EAH
6b2c: 2a           LDAX    (DE)
6b2d: 1c           MOV     D,A
6b2e: 00           NOP     
6b2f: 00           NOP     
6b30: 1c           MOV     D,A
6b31: 2a           LDAX    (DE)
6b32: 08           MOV     A,EAH
6b33: 08           MOV     A,EAH
6b34: 08           MOV     A,EAH
6b35: 00           NOP     
6b36: 00           NOP     
6b37: 00           NOP     
6b38: 00           NOP     
6b39: 08           MOV     A,EAH
6b3a: 08           MOV     A,EAH
6b3b: 08           MOV     A,EAH
6b3c: 08           MOV     A,EAH
6b3d: 08           MOV     A,EAH
6b3e: 3e           STAX    (DE-)
6b3f: 08           MOV     A,EAH
6b40: 08           MOV     A,EAH
6b41: 08           MOV     A,EAH
6b42: 08           MOV     A,EAH
6b43: 08           MOV     A,EAH
6b44: 00           NOP     
6b45: 00           NOP     
6b46: 00           NOP     
6b47: 00           NOP     
6b48: 00           NOP     
6b49: 00           NOP     
6b4a: 00           NOP     
6b4b: 00           NOP     
6b4c: 00           NOP     
6b4d: 00           NOP     
6b4e: b8           RET     
6b4f: 60 40        ADD     V,A
6b51: 00           NOP     
6b52: 00           NOP     
6b53: 00           NOP     
6b54: 00           NOP     
6b55: 00           NOP     
6b56: 00           NOP     
6b57: 00           NOP     
6b58: 00           NOP     
6b59: 08           MOV     A,EAH
6b5a: 08           MOV     A,EAH
6b5b: 08           MOV     A,EAH
6b5c: 08           MOV     A,EAH
6b5d: 08           MOV     A,EAH
6b5e: 08           MOV     A,EAH
6b5f: 08           MOV     A,EAH
6b60: 08           MOV     A,EAH
6b61: 08           MOV     A,EAH
6b62: 08           MOV     A,EAH
6b63: 08           MOV     A,EAH
6b64: 00           NOP     
6b65: 00           NOP     
6b66: 00           NOP     
6b67: 00           NOP     
6b68: 00           NOP     
6b69: 00           NOP     
6b6a: 00           NOP     
6b6b: 00           NOP     
6b6c: 00           NOP     
6b6d: 00           NOP     
6b6e: 60 60        SUB     V,A
6b70: 00           NOP     
6b71: 00           NOP     
6b72: 00           NOP     
6b73: 00           NOP     
6b74: 00           NOP     
6b75: 00           NOP     
6b76: 00           NOP     
6b77: 40 00 20     CALL    $2000
6b7a: 00           NOP     
6b7b: 10           EXA     
6b7c: 00           NOP     
6b7d: 08           MOV     A,EAH
6b7e: 00           NOP     
6b7f: 04 00 02     LXI     SP,$0200
6b82: 00           NOP     
6b83: 01 00        LDAW    VV:00
6b85: 00           NOP     
6b86: 00           NOP     
6b87: 00           NOP     
6b88: 00           NOP     
6b89: 3e           STAX    (DE-)
6b8a: 21           JB      
6b8b: 01 40        LDAW    VV:40
6b8d: 40 40 40     CALL    $4040
6b90: 01 21        LDAW    VV:21
6b92: 3e           STAX    (DE-)
6b93: 00           NOP     
6b94: 00           NOP     
6b95: 00           NOP     
6b96: 00           NOP     
6b97: 00           NOP     
6b98: 00           NOP     
6b99: 00           NOP     
6b9a: 00           NOP     
6b9b: 42           INR     B
6b9c: 40 41 7f     CALL    $7F41
6b9f: 40 40 40     CALL    $4040
6ba2: 00           NOP     
6ba3: 00           NOP     
6ba4: 00           NOP     
6ba5: 00           NOP     
6ba6: 00           NOP     
6ba7: 00           NOP     
6ba8: 00           NOP     
6ba9: 42           INR     B
6baa: 61           DAA     
6bab: 41           INR     A
6bac: 40 50 40     CALL    $4050
6baf: 40 48 40     CALL    $4048
6bb2: 41           INR     A
6bb3: 45 62 00     ONIW    VV:62,$00
6bb6: 00           NOP     
6bb7: 00           NOP     
6bb8: 00           NOP     
6bb9: 22           INX     DE
6bba: 20 01        INRW    VV:01
6bbc: 01 40        LDAW    VV:40
6bbe: 40 40 40     CALL    $4040
6bc1: 01 0d        LDAW    VV:0D
6bc3: 2c           LDAX    (DE+)
6bc4: 32           INX     HL
6bc5: 00           NOP     
6bc6: 00           NOP     
6bc7: 00           NOP     
6bc8: 00           NOP     
6bc9: 10           EXA     
6bca: 10           EXA     
6bcb: 18           MOV     EAH,A
6bcc: 10           EXA     
6bcd: 14 10 12     LXI     BC,$1210
6bd0: 50           EXH     
6bd1: 51           DCR     A
6bd2: 7f 50        CALF    $0F50
6bd4: 50           EXH     
6bd5: 00           NOP     
6bd6: 00           NOP     
6bd7: 00           NOP     
6bd8: 00           NOP     
6bd9: 27 20        GTI     A,$20
6bdb: 00           NOP     
6bdc: 44 44 44     LXI     EA,$4444
6bdf: 44 44 44     LXI     EA,$4444
6be2: 00           NOP     
6be3: 28           illegal 
6be4: 38           illegal 
6be5: 00           NOP     
6be6: 00           NOP     
6be7: 00           NOP     
6be8: 00           NOP     
6be9: 3c           STAX    (DE+)
6bea: 2a           LDAX    (DE)
6beb: 08           MOV     A,EAH
6bec: 40 41 41     CALL    $4141
6bef: 41           INR     A
6bf0: 41           INR     A
6bf1: 40 08 28     CALL    $2808
6bf4: 30 00        DCRW    VV:00
6bf6: 00           NOP     
6bf7: 00           NOP     
6bf8: 00           NOP     
6bf9: 01 00        LDAW    VV:00
6bfb: 00           NOP     
6bfc: 00           NOP     
6bfd: 00           NOP     
6bfe: 60 18        ORA     V,A
6c00: 00           NOP     
6c01: 04 00 02     LXI     SP,$0200
6c04: 01 00        LDAW    VV:00
6c06: 00           NOP     
6c07: 00           NOP     
6c08: 00           NOP     
6c09: 32           INX     HL
6c0a: 2d           LDAX    (HL+)
6c0b: 0d           MOV     A,E
6c0c: 40 40 40     CALL    $4040
6c0f: 40 40 40     CALL    $4040
6c12: 0d           MOV     A,E
6c13: 2d           LDAX    (HL+)
6c14: 32           INX     HL
6c15: 00           NOP     
6c16: 00           NOP     
6c17: 00           NOP     
6c18: 00           NOP     
6c19: 06           illegal 
6c1a: 05 01 08     ANIW    VV:01,$08
6c1d: 48 08        SK      NV
6c1f: 28           illegal 
6c20: 08           MOV     A,EAH
6c21: 18           MOV     EAH,A
6c22: 09           MOV     A,EAL
6c23: 0d           MOV     A,E
6c24: 06           illegal 
6c25: 00           NOP     
6c26: 00           NOP     
6c27: 00           NOP     
6c28: 00           NOP     
6c29: 00           NOP     
6c2a: 00           NOP     
6c2b: 00           NOP     
6c2c: 00           NOP     
6c2d: 24 24 24     LXI     DE,$2424
6c30: 24 00 00     LXI     DE,$0000
6c33: 00           NOP     
6c34: 00           NOP     
6c35: 00           NOP     
6c36: 00           NOP     
6c37: 00           NOP     
6c38: 00           NOP     
6c39: 00           NOP     
6c3a: 00           NOP     
6c3b: 00           NOP     
6c3c: 00           NOP     
6c3d: a9           DCX     EA
6c3e: 24 64 24     LXI     DE,$2464
6c41: 00           NOP     
6c42: 00           NOP     
6c43: 00           NOP     
6c44: 00           NOP     
6c45: 00           NOP     
6c46: 00           NOP     
6c47: 00           NOP     
6c48: 00           NOP     
6c49: 00           NOP     
6c4a: 08           MOV     A,EAH
6c4b: 00           NOP     
6c4c: 00           NOP     
6c4d: 14 00 00     LXI     BC,$0000
6c50: 22           INX     DE
6c51: 00           NOP     
6c52: 00           NOP     
6c53: 41           INR     A
6c54: 00           NOP     
6c55: 00           NOP     
6c56: 00           NOP     
6c57: 00           NOP     
6c58: 14 14 14     LXI     BC,$1414
6c5b: 14 14 14     LXI     BC,$1414
6c5e: 14 14 14     LXI     BC,$1414
6c61: 14 14 14     LXI     BC,$1414
6c64: 14 00 00     LXI     BC,$0000
6c67: 00           NOP     
6c68: 00           NOP     
6c69: 00           NOP     
6c6a: 41           INR     A
6c6b: 00           NOP     
6c6c: 00           NOP     
6c6d: 22           INX     DE
6c6e: 00           NOP     
6c6f: 00           NOP     
6c70: 14 00 00     LXI     BC,$0000
6c73: 08           MOV     A,EAH
6c74: 00           NOP     
6c75: 00           NOP     
6c76: 00           NOP     
6c77: 00           NOP     
6c78: 00           NOP     
6c79: 02           INX     SP
6c7a: 01 01        LDAW    VV:01
6c7c: 00           NOP     
6c7d: 00           NOP     
6c7e: 68 00        MVI     V,$00
6c80: 00           NOP     
6c81: 05 05 02     ANIW    VV:05,$02
6c84: 00           NOP     
6c85: 00           NOP     
6c86: 00           NOP     
6c87: 00           NOP     
6c88: 00           NOP     
6c89: 06           illegal 
6c8a: 01 31        LDAW    VV:31
6c8c: 40 48 48     CALL    $4848
6c8f: 48 38        RLD     
6c91: 40 41 21     CALL    $2141
6c94: 3e           STAX    (DE-)
6c95: 00           NOP     
6c96: 00           NOP     
6c97: 00           NOP     
6c98: 40 70 48     CALL    $4870
6c9b: 04 02 01     LXI     SP,$0102
6c9e: 00           NOP     
6c9f: 01 02        LDAW    VV:02
6ca1: 04 48 70     LXI     SP,$7048
6ca4: 40 00 00     CALL    $0000
6ca7: 00           NOP     
6ca8: 00           NOP     
6ca9: 40 40 7f     CALL    $7F40
6cac: 40 40 40     CALL    $4040
6caf: 40 40 45     CALL    $4540
6cb2: 0d           MOV     A,E
6cb3: 2a           LDAX    (DE)
6cb4: 30 00        DCRW    VV:00
6cb6: 00           NOP     
6cb7: 00           NOP     
6cb8: 00           NOP     
6cb9: 1e           MOV     H,A
6cba: 22           INX     DE
6cbb: 21           JB      
6cbc: 01 40        LDAW    VV:40
6cbe: 40 40 40     CALL    $4040
6cc1: 40 01 21     CALL    $2101
6cc4: 23           DCX     DE
6cc5: 00           NOP     
6cc6: 00           NOP     
6cc7: 00           NOP     
6cc8: 00           NOP     
6cc9: 40 40 7f     CALL    $7F40
6ccc: 40 40 40     CALL    $4040
6ccf: 40 40 40     CALL    $4040
6cd2: 01 21        LDAW    VV:21
6cd4: 3e           STAX    (DE-)
6cd5: 00           NOP     
6cd6: 00           NOP     
6cd7: 00           NOP     
6cd8: 00           NOP     
6cd9: 40 40 7f     CALL    $7F40
6cdc: 40 40 40     CALL    $4040
6cdf: 40 4c 40     CALL    $404C
6ce2: 40 40 63     CALL    $6340
6ce5: 00           NOP     
6ce6: 00           NOP     
6ce7: 00           NOP     
6ce8: 00           NOP     
6ce9: 40 40 7f     CALL    $7F40
6cec: 40 40 40     CALL    $4040
6cef: 40 0c 00     CALL    $000C
6cf2: 00           NOP     
6cf3: 00           NOP     
6cf4: 03           DCX     SP
6cf5: 00           NOP     
6cf6: 00           NOP     
6cf7: 00           NOP     
6cf8: 00           NOP     
6cf9: 1e           MOV     H,A
6cfa: 22           INX     DE
6cfb: 21           JB      
6cfc: 01 40        LDAW    VV:40
6cfe: 40 40 48     CALL    $4840
6d01: 48 09        illegal 
6d03: 29           LDAX    (BC)
6d04: 3b           STAX    (HL)
6d05: 00           NOP     
6d06: 00           NOP     
6d07: 00           NOP     
6d08: 00           NOP     
6d09: 40 7f 40     CALL    $407F
6d0c: 40 00 00     CALL    $0000
6d0f: 00           NOP     
6d10: 00           NOP     
6d11: 40 40 7f     CALL    $7F40
6d14: 40 00 00     CALL    $0000
6d17: 00           NOP     
6d18: 00           NOP     
6d19: 00           NOP     
6d1a: 00           NOP     
6d1b: 40 40 40     CALL    $4040
6d1e: 7f 40        CALF    $0F40
6d20: 40 40 00     CALL    $0040
6d23: 00           NOP     
6d24: 00           NOP     
6d25: 00           NOP     
6d26: 00           NOP     
6d27: 00           NOP     
6d28: 00           NOP     
6d29: 30 20        DCRW    VV:20
6d2b: 00           NOP     
6d2c: 40 40 40     CALL    $4040
6d2f: 40 00 20     CALL    $2000
6d32: 3f           STAX    (HL-)
6d33: 00           NOP     
6d34: 00           NOP     
6d35: 00           NOP     
6d36: 00           NOP     
6d37: 00           NOP     
6d38: 00           NOP     
6d39: 40 40 7f     CALL    $7F40
6d3c: 48 48        SKIT    FAD
6d3e: 04 10 02     LXI     SP,$0210
6d41: 60 41        ADD     A,A
6d43: 40 40 00     CALL    $0040
6d46: 00           NOP     
6d47: 00           NOP     
6d48: 00           NOP     
6d49: 40 40 7f     CALL    $7F40
6d4c: 40 40 40     CALL    $4040
6d4f: 40 40 40     CALL    $4040
6d52: 40 40 60     CALL    $6040
6d55: 00           NOP     
6d56: 00           NOP     
6d57: 00           NOP     
6d58: 40 7f 40     CALL    $407F
6d5b: 41           INR     A
6d5c: 02           INX     SP
6d5d: 04 08 04     LXI     SP,$0408
6d60: 02           INX     SP
6d61: 41           INR     A
6d62: 40 7f 40     CALL    $407F
6d65: 00           NOP     
6d66: 00           NOP     
6d67: 00           NOP     
6d68: 40 7f 41     CALL    $417F
6d6b: 42           INR     B
6d6c: 00           NOP     
6d6d: 04 08 00     LXI     SP,$0008
6d70: 10           EXA     
6d71: 60 40        ADD     V,A
6d73: 7f 40        CALF    $0F40
6d75: 00           NOP     
6d76: 00           NOP     
6d77: 00           NOP     
6d78: 00           NOP     
6d79: 3e           STAX    (DE-)
6d7a: 21           JB      
6d7b: 01 40        LDAW    VV:40
6d7d: 40 40 40     CALL    $4040
6d80: 40 40 01     CALL    $0140
6d83: 21           JB      
6d84: 3e           STAX    (DE-)
6d85: 00           NOP     
6d86: 00           NOP     
6d87: 00           NOP     
6d88: 40 40 7f     CALL    $7F40
6d8b: 48 48        SKIT    FAD
6d8d: 48 48        SKIT    FAD
6d8f: 08           MOV     A,EAH
6d90: 08           MOV     A,EAH
6d91: 08           MOV     A,EAH
6d92: 01 05        LDAW    VV:05
6d94: 06           illegal 
6d95: 00           NOP     
6d96: 00           NOP     
6d97: 00           NOP     
6d98: 00           NOP     
6d99: 3e           STAX    (DE-)
6d9a: 21           JB      
6d9b: 01 40        LDAW    VV:40
6d9d: 40 40 40     CALL    $4040
6da0: 50           EXH     
6da1: 40 21 21     CALL    $2121
6da4: 5e 00        BIT     6,VV:00
6da6: 00           NOP     
6da7: 00           NOP     
6da8: 40 40 7f     CALL    $7F40
6dab: 48 48        SKIT    FAD
6dad: 08           MOV     A,EAH
6dae: 08           MOV     A,EAH
6daf: 18           MOV     EAH,A
6db0: 08           MOV     A,EAH
6db1: 28           illegal 
6db2: 01 45        LDAW    VV:45
6db4: 46 00        ADI     A,$00
6db6: 00           NOP     
6db7: 00           NOP     
6db8: 00           NOP     
6db9: 62           RETI    
6dba: 25 05 40     GTIW    VV:05,$40
6dbd: 40 40 40     CALL    $4040
6dc0: 40 40 09     CALL    $0940
6dc3: 29           LDAX    (BC)
6dc4: 33           DCX     HL
6dc5: 00           NOP     
6dc6: 00           NOP     
6dc7: 00           NOP     
6dc8: 03           DCX     SP
6dc9: 00           NOP     
6dca: 00           NOP     
6dcb: 40 40 40     CALL    $4040
6dce: 7f 40        CALF    $0F40
6dd0: 40 40 00     CALL    $0040
6dd3: 00           NOP     
6dd4: 03           DCX     SP
6dd5: 00           NOP     
6dd6: 00           NOP     
6dd7: 00           NOP     
6dd8: 00           NOP     
6dd9: 3f           STAX    (HL-)
6dda: 20 00        INRW    VV:00
6ddc: 40 40 40     CALL    $4040
6ddf: 40 40 00     CALL    $0040
6de2: 20 3f        INRW    VV:3F
6de4: 00           NOP     
6de5: 00           NOP     
6de6: 00           NOP     
6de7: 00           NOP     
6de8: 00           NOP     
6de9: 03           DCX     SP
6dea: 04 08 10     LXI     SP,$1008
6ded: 20 40        INRW    VV:40
6def: 20 10        INRW    VV:10
6df1: 08           MOV     A,EAH
6df2: 04 03 00     LXI     SP,$0003
6df5: 00           NOP     
6df6: 00           NOP     
6df7: 00           NOP     
6df8: 03           DCX     SP
6df9: 04 18 60     LXI     SP,$6018
6dfc: 30 08        DCRW    VV:08
6dfe: 04 08 30     LXI     SP,$3008
6e01: 60 18        ORA     V,A
6e03: 04 03 00     LXI     SP,$0003
6e06: 00           NOP     
6e07: 40 41 60     CALL    $6041
6e0a: 02           INX     SP
6e0b: 10           EXA     
6e0c: 04 08 08     LXI     SP,$0808
6e0f: 04 10 02     LXI     SP,$0210
6e12: 60 41        ADD     A,A
6e14: 40 00 00     CALL    $0000
6e17: 00           NOP     
6e18: 00           NOP     
6e19: 01 02        LDAW    VV:02
6e1b: 40 44 40     CALL    $4044
6e1e: 78 40        CALF    $0840
6e20: 44 40 02     LXI     EA,$0240
6e23: 01 00        LDAW    VV:00
6e25: 00           NOP     
6e26: 00           NOP     
6e27: 00           NOP     
6e28: 00           NOP     
6e29: 41           INR     A
6e2a: 60 50        ADC     V,A
6e2c: 40 48 40     CALL    $4048
6e2f: 44 40 42     LXI     EA,$4240
6e32: 61           DAA     
6e33: 00           NOP     
6e34: 00           NOP     
6e35: 00           NOP     
6e36: 00           NOP     
6e37: 00           NOP     
6e38: 00           NOP     
6e39: 00           NOP     
6e3a: 00           NOP     
6e3b: 00           NOP     
6e3c: 7f 40        CALF    $0F40
6e3e: 40 40 40     CALL    $4040
6e41: 00           NOP     
6e42: 00           NOP     
6e43: 00           NOP     
6e44: 00           NOP     
6e45: 00           NOP     
6e46: 00           NOP     
6e47: 00           NOP     
6e48: 01 00        LDAW    VV:00
6e4a: 02           INX     SP
6e4b: 00           NOP     
6e4c: 04 00 08     LXI     SP,$0800
6e4f: 00           NOP     
6e50: 10           EXA     
6e51: 00           NOP     
6e52: 20 00        INRW    VV:00
6e54: 40 00 00     CALL    $0000
6e57: 00           NOP     
6e58: 00           NOP     
6e59: 00           NOP     
6e5a: 00           NOP     
6e5b: 00           NOP     
6e5c: 40 40 40     CALL    $4040
6e5f: 40 7f 00     CALL    $007F
6e62: 00           NOP     
6e63: 00           NOP     
6e64: 00           NOP     
6e65: 00           NOP     
6e66: 00           NOP     
6e67: 00           NOP     
6e68: 00           NOP     
6e69: 00           NOP     
6e6a: 00           NOP     
6e6b: 02           INX     SP
6e6c: 00           NOP     
6e6d: 01 00        LDAW    VV:00
6e6f: 01 00        LDAW    VV:00
6e71: 02           INX     SP
6e72: 00           NOP     
6e73: 00           NOP     
6e74: 00           NOP     
6e75: 00           NOP     
6e76: 00           NOP     
6e77: 00           NOP     
6e78: 00           NOP     
6e79: 00           NOP     
6e7a: 00           NOP     
6e7b: 00           NOP     
6e7c: 00           NOP     
6e7d: 00           NOP     
6e7e: 00           NOP     
6e7f: 00           NOP     
6e80: 00           NOP     
6e81: 00           NOP     
6e82: 00           NOP     
6e83: 00           NOP     
6e84: 00           NOP     
6e85: 00           NOP     
6e86: 00           NOP     
6e87: 00           NOP     
6e88: 00           NOP     
6e89: 00           NOP     
6e8a: 00           NOP     
6e8b: 00           NOP     
6e8c: 00           NOP     
6e8d: 01 00        LDAW    VV:00
6e8f: 02           INX     SP
6e90: 00           NOP     
6e91: 00           NOP     
6e92: 00           NOP     
6e93: 00           NOP     
6e94: 00           NOP     
6e95: 00           NOP     
6e96: 00           NOP     
6e97: 00           NOP     
6e98: 00           NOP     
6e99: 20 10        INRW    VV:10
6e9b: 40 40 40     CALL    $4040
6e9e: 40 40 40     CALL    $4040
6ea1: 04 38 40     LXI     SP,$4038
6ea4: 40 00 00     CALL    $0000
6ea7: 00           NOP     
6ea8: 40 7f 24     CALL    $247F
6eab: 04 40 40     LXI     SP,$4040
6eae: 40 40 40     CALL    $4040
6eb1: 40 04 24     CALL    $2404
6eb4: 38           illegal 
6eb5: 00           NOP     
6eb6: 00           NOP     
6eb7: 00           NOP     
6eb8: 00           NOP     
6eb9: 38           illegal 
6eba: 24 04 40     LXI     DE,$4004
6ebd: 40 40 40     CALL    $4040
6ec0: 40 04 24     CALL    $2404
6ec3: 24 00 00     LXI     DE,$0000
6ec6: 00           NOP     
6ec7: 00           NOP     
6ec8: 00           NOP     
6ec9: 38           illegal 
6eca: 24 04 40     LXI     DE,$4004
6ecd: 40 40 40     CALL    $4040
6ed0: 40 40 04     CALL    $0440
6ed3: 24 7f 40     LXI     DE,$407F
6ed6: 00           NOP     
6ed7: 00           NOP     
6ed8: 00           NOP     
6ed9: 38           illegal 
6eda: 24 04 40     LXI     DE,$4004
6edd: 40 40 40     CALL    $4040
6ee0: 40 04 04     CALL    $0404
6ee3: 08           MOV     A,EAH
6ee4: 00           NOP     
6ee5: 00           NOP     
6ee6: 00           NOP     
6ee7: 00           NOP     
6ee8: 00           NOP     
6ee9: 00           NOP     
6eea: 04 44 44     LXI     SP,$4444
6eed: 7e 45        CALF    $0E45
6eef: 45 44 44     ONIW    VV:44,$44
6ef2: 04 00 00     LXI     SP,$0000
6ef5: 00           NOP     
6ef6: 00           NOP     
6ef7: 00           NOP     
6ef8: 00           NOP     
6ef9: 18           MOV     EAH,A
6efa: a9           DCX     EA
6efb: a9           DCX     EA
6efc: 00           NOP     
6efd: 00           NOP     
6efe: 00           NOP     
6eff: 00           NOP     
6f00: 00           NOP     
6f01: 00           NOP     
6f02: a9           DCX     EA
6f03: a9           DCX     EA
6f04: 7c 00        CALF    $0C00
6f06: 00           NOP     
6f07: 00           NOP     
6f08: 40 7f 4c     CALL    $4C7F
6f0b: 04 00 00     LXI     SP,$0000
6f0e: 00           NOP     
6f0f: 00           NOP     
6f10: 04 44 78     LXI     SP,$7844
6f13: 40 00 00     CALL    $0000
6f16: 00           NOP     
6f17: 00           NOP     
6f18: 00           NOP     
6f19: 00           NOP     
6f1a: 00           NOP     
6f1b: 00           NOP     
6f1c: 40 41 7d     CALL    $7D41
6f1f: 40 40 00     CALL    $0040
6f22: 00           NOP     
6f23: 00           NOP     
6f24: 00           NOP     
6f25: 00           NOP     
6f26: 00           NOP     
6f27: 00           NOP     
6f28: 00           NOP     
6f29: 40 00 a0     CALL    $A000
6f2c: a0           POP     VA
6f2d: a0           POP     VA
6f2e: a0           POP     VA
6f2f: 01 7d        LDAW    VV:7D
6f31: 00           NOP     
6f32: 00           NOP     
6f33: 00           NOP     
6f34: 00           NOP     
6f35: 00           NOP     
6f36: 00           NOP     
6f37: 00           NOP     
6f38: 00           NOP     
6f39: 7f 00        CALF    $0F00
6f3b: 00           NOP     
6f3c: 18           MOV     EAH,A
6f3d: 18           MOV     EAH,A
6f3e: 00           NOP     
6f3f: 20 24        INRW    VV:24
6f41: 04 40 40     LXI     SP,$4040
6f44: 00           NOP     
6f45: 00           NOP     
6f46: 00           NOP     
6f47: 00           NOP     
6f48: 00           NOP     
6f49: 00           NOP     
6f4a: 00           NOP     
6f4b: 00           NOP     
6f4c: 00           NOP     
6f4d: 40 7f 40     CALL    $407F
6f50: 00           NOP     
6f51: 00           NOP     
6f52: 00           NOP     
6f53: 00           NOP     
6f54: 00           NOP     
6f55: 00           NOP     
6f56: 00           NOP     
6f57: 40 7c 44     CALL    $447C
6f5a: 00           NOP     
6f5b: 00           NOP     
6f5c: 00           NOP     
6f5d: 40 7c 40     CALL    $407C
6f60: 00           NOP     
6f61: 00           NOP     
6f62: 00           NOP     
6f63: 40 7c 40     CALL    $407C
6f66: 00           NOP     
6f67: 00           NOP     
6f68: 00           NOP     
6f69: 40 7c 44     CALL    $447C
6f6c: 00           NOP     
6f6d: 00           NOP     
6f6e: 00           NOP     
6f6f: 00           NOP     
6f70: 00           NOP     
6f71: 44 7c 40     LXI     EA,$407C
6f74: 00           NOP     
6f75: 00           NOP     
6f76: 00           NOP     
6f77: 00           NOP     
6f78: 00           NOP     
6f79: 38           illegal 
6f7a: 24 04 40     LXI     DE,$4004
6f7d: 40 40 40     CALL    $4040
6f80: 40 40 04     CALL    $0440
6f83: 24 38 00     LXI     DE,$0038
6f86: 00           NOP     
6f87: 00           NOP     
6f88: 00           NOP     
6f89: bf 24        STAX    (HL+$24)
6f8b: 24 00 00     LXI     DE,$0000
6f8e: 00           NOP     
6f8f: 00           NOP     
6f90: 00           NOP     
6f91: 24 24 18     LXI     DE,$1824
6f94: 00           NOP     
6f95: 00           NOP     
6f96: 00           NOP     
6f97: 00           NOP     
6f98: 00           NOP     
6f99: 18           MOV     EAH,A
6f9a: 24 24 00     LXI     DE,$0024
6f9d: 00           NOP     
6f9e: 00           NOP     
6f9f: 00           NOP     
6fa0: 00           NOP     
6fa1: 24 24 bf     LXI     DE,$BF24
6fa4: 00           NOP     
6fa5: 00           NOP     
6fa6: 00           NOP     
6fa7: 00           NOP     
6fa8: 00           NOP     
6fa9: 40 7c 44     CALL    $447C
6fac: 44 40 40     LXI     EA,$4040
6faf: 00           NOP     
6fb0: 00           NOP     
6fb1: 00           NOP     
6fb2: 00           NOP     
6fb3: 04 00 00     LXI     SP,$0000
6fb6: 00           NOP     
6fb7: 00           NOP     
6fb8: 00           NOP     
6fb9: 2c           LDAX    (DE+)
6fba: 0c           MOV     A,D
6fbb: 40 40 40     CALL    $4040
6fbe: 40 40 40     CALL    $4040
6fc1: 40 40 14     CALL    $1440
6fc4: 34 00 00     LXI     HL,$0000
6fc7: 00           NOP     
6fc8: 00           NOP     
6fc9: 00           NOP     
6fca: 00           NOP     
6fcb: 00           NOP     
6fcc: 3f           STAX    (HL-)
6fcd: 20 00        INRW    VV:00
6fcf: 40 40 40     CALL    $4040
6fd2: 00           NOP     
6fd3: 00           NOP     
6fd4: 00           NOP     
6fd5: 00           NOP     
6fd6: 00           NOP     
6fd7: 00           NOP     
6fd8: 00           NOP     
6fd9: 3c           STAX    (DE+)
6fda: 20 00        INRW    VV:00
6fdc: 40 40 40     CALL    $4040
6fdf: 40 00 20     CALL    $2000
6fe2: 3c           STAX    (DE+)
6fe3: 40 00 00     CALL    $0000
6fe6: 00           NOP     
6fe7: 00           NOP     
6fe8: 00           NOP     
6fe9: 00           NOP     
6fea: 04 08 10     LXI     SP,$1008
6fed: 20 40        INRW    VV:40
6fef: 20 10        INRW    VV:10
6ff1: 08           MOV     A,EAH
6ff2: 04 00 00     LXI     SP,$0000
6ff5: 00           NOP     
6ff6: 00           NOP     
6ff7: 00           NOP     
6ff8: 0c           MOV     A,D
6ff9: 10           EXA     
6ffa: 20 40        INRW    VV:40
6ffc: 20 00        INRW    VV:00
6ffe: 10           EXA     
6fff: 00           NOP     
7000: 20 40        INRW    VV:40
7002: 20 10        INRW    VV:10
7004: 0c           MOV     A,D
7005: 00           NOP     
7006: 00           NOP     
7007: 00           NOP     
7008: 40 40 44     CALL    $4440
700b: 20 08        INRW    VV:08
700d: 10           EXA     
700e: 10           EXA     
700f: 08           MOV     A,EAH
7010: 20 44        INRW    VV:44
7012: 40 40 00     CALL    $0040
7015: 00           NOP     
7016: 00           NOP     
7017: 00           NOP     
7018: 00           NOP     
7019: 00           NOP     
701a: 04 08 a4     LXI     SP,$A408
701d: 60 00        illegal 
701f: 20 10        INRW    VV:10
7021: 08           MOV     A,EAH
7022: 04 00 00     LXI     SP,$0000
7025: 00           NOP     
7026: 00           NOP     
7027: 00           NOP     
7028: 00           NOP     
7029: 44 40 60     LXI     EA,$6040
702c: 40 50 40     CALL    $4050
702f: 48 40        SKIT    NMI
7031: 44 60 00     LXI     EA,$0060
7034: 00           NOP     
7035: 00           NOP     
7036: 00           NOP     
7037: 00           NOP     
7038: 00           NOP     
7039: 00           NOP     
703a: 00           NOP     
703b: 00           NOP     
703c: 00           NOP     
703d: 3e           STAX    (DE-)
703e: 21           JB      
703f: 01 40        LDAW    VV:40
7041: 40 00 00     CALL    $0000
7044: 00           NOP     
7045: 00           NOP     
7046: 00           NOP     
7047: 00           NOP     
7048: 00           NOP     
7049: 00           NOP     
704a: 00           NOP     
704b: 00           NOP     
704c: 00           NOP     
704d: 00           NOP     
704e: 7f 00        CALF    $0F00
7050: 00           NOP     
7051: 00           NOP     
7052: 00           NOP     
7053: 00           NOP     
7054: 00           NOP     
7055: 00           NOP     
7056: 00           NOP     
7057: 00           NOP     
7058: 00           NOP     
7059: 00           NOP     
705a: 00           NOP     
705b: 40 40 01     CALL    $0140
705e: 21           JB      
705f: 3e           STAX    (DE-)
7060: 00           NOP     
7061: 00           NOP     
7062: 00           NOP     
7063: 00           NOP     
7064: 00           NOP     
7065: 00           NOP     
7066: 00           NOP     
7067: 00           NOP     
7068: 01 00        LDAW    VV:00
706a: 00           NOP     
706b: 00           NOP     
706c: 01 01        LDAW    VV:01
706e: 01 00        LDAW    VV:00
7070: 00           NOP     
7071: 00           NOP     
7072: 01 00        LDAW    VV:00
7074: 00           NOP     
7075: 00           NOP     
7076: 00           NOP     
7077: 00           NOP     
7078: 00           NOP     
7079: 00           NOP     
707a: 00           NOP     
707b: 00           NOP     
707c: 00           NOP     
707d: 00           NOP     
707e: 00           NOP     
707f: 00           NOP     
7080: 00           NOP     
7081: 00           NOP     
7082: 00           NOP     
7083: 00           NOP     
7084: 00           NOP     
7085: 00           NOP     
7086: 00           NOP     
7087: 18           MOV     EAH,A
7088: 3c           STAX    (DE+)
7089: 7c 7c        CALF    $0C7C
708b: 7c 7c        CALF    $0C7C
708d: 78 7d        CALF    $087D
708f: 7c 7c        CALF    $0C7C
7091: 7c 6c        CALF    $0C6C
7093: 00           NOP     
7094: 00           NOP     
7095: 00           NOP     
7096: 00           NOP     
7097: 18           MOV     EAH,A
7098: 24 40 00     LXI     DE,$0040
709b: 00           NOP     
709c: 44 44 45     LXI     EA,$4544
709f: 00           NOP     
70a0: 00           NOP     
70a1: 10           EXA     
70a2: 6c 00        MVI     D,$00
70a4: 00           NOP     
70a5: 00           NOP     
70a6: 00           NOP     
70a7: 00           NOP     
70a8: 00           NOP     
70a9: 7c 3c        CALF    $0C3C
70ab: 38           illegal 
70ac: 18           MOV     EAH,A
70ad: 10           EXA     
70ae: 10           EXA     
70af: 00           NOP     
70b0: 20 00        INRW    VV:00
70b2: 40 00 00     CALL    $0000
70b5: 00           NOP     
70b6: 00           NOP     
70b7: 00           NOP     
70b8: 00           NOP     
70b9: 41           INR     A
70ba: 00           NOP     
70bb: 22           INX     DE
70bc: 00           NOP     
70bd: 14 08 14     LXI     BC,$1408
70c0: 00           NOP     
70c1: 22           INX     DE
70c2: 00           NOP     
70c3: 41           INR     A
70c4: 00           NOP     
70c5: 00           NOP     
70c6: 00           NOP     
70c7: 00           NOP     
70c8: 08           MOV     A,EAH
70c9: 00           NOP     
70ca: 10           EXA     
70cb: 20 10        INRW    VV:10
70cd: 00           NOP     
70ce: 08           MOV     A,EAH
70cf: 00           NOP     
70d0: 04 00 02     LXI     SP,$0200
70d3: 00           NOP     
70d4: 00           NOP     
70d5: 00           NOP     
70d6: 00           NOP     
70d7: 00           NOP     
70d8: 08           MOV     A,EAH
70d9: 00           NOP     
70da: 10           EXA     
70db: 20 10        INRW    VV:10
70dd: 00           NOP     
70de: 08           MOV     A,EAH
70df: 00           NOP     
70e0: 04 00 02     LXI     SP,$0200
70e3: 00           NOP     
70e4: 00           NOP     
70e5: 00           NOP     
70e6: 00           NOP     
70e7: 00           NOP     
70e8: 30 30        DCRW    VV:30
70ea: 78 78        CALF    $0878
70ec: 00           NOP     
70ed: 00           NOP     
70ee: 00           NOP     
70ef: 00           NOP     
70f0: 00           NOP     
70f1: 00           NOP     
70f2: 00           NOP     
70f3: 1f           MOV     L,A
70f4: 00           NOP     
70f5: 00           NOP     
70f6: 00           NOP     
70f7: 00           NOP     
70f8: 00           NOP     
70f9: 00           NOP     
70fa: 00           NOP     
70fb: 00           NOP     
70fc: 00           NOP     
70fd: 00           NOP     
70fe: 00           NOP     
70ff: 00           NOP     
7100: 00           NOP     
7101: 00           NOP     
7102: 00           NOP     
7103: 00           NOP     
7104: 00           NOP     
7105: 00           NOP     
7106: 00           NOP     
7107: 00           NOP     
7108: 0c           MOV     A,D
7109: 00           NOP     
710a: 12           INX     BC
710b: 00           NOP     
710c: 21           JB      
710d: 00           NOP     
710e: 00           NOP     
710f: 00           NOP     
7110: 00           NOP     
7111: 00           NOP     
7112: 00           NOP     
7113: 00           NOP     
7114: 00           NOP     
7115: 00           NOP     
7116: 00           NOP     
7117: 00           NOP     
7118: 00           NOP     
7119: 00           NOP     
711a: 00           NOP     
711b: 00           NOP     
711c: 00           NOP     
711d: 00           NOP     
711e: 00           NOP     
711f: 00           NOP     
7120: 00           NOP     
7121: 00           NOP     
7122: 00           NOP     
7123: 00           NOP     
7124: 00           NOP     
7125: 00           NOP     
7126: 00           NOP     
7127: 00           NOP     
7128: 10           EXA     
7129: 00           NOP     
712a: 20 00        INRW    VV:00
712c: 40 7f 40     CALL    $407F
712f: 00           NOP     
7130: 20 00        INRW    VV:00
7132: 10           EXA     
7133: 00           NOP     
7134: 00           NOP     
7135: 00           NOP     
7136: 00           NOP     
7137: 00           NOP     
7138: 04 00 02     LXI     SP,$0200
713b: 00           NOP     
713c: 01 7f        LDAW    VV:7F
713e: 01 00        LDAW    VV:00
7140: 02           INX     SP
7141: 00           NOP     
7142: 04 00 00     LXI     SP,$0000
7145: 00           NOP     
7146: 00           NOP     
7147: 00           NOP     
7148: 00           NOP     
7149: 00           NOP     
714a: 00           NOP     
714b: 00           NOP     
714c: 00           NOP     
714d: 00           NOP     
714e: 00           NOP     
714f: 00           NOP     
7150: 00           NOP     
7151: 00           NOP     
7152: 00           NOP     
7153: 00           NOP     
7154: 00           NOP     
7155: 00           NOP     
7156: 00           NOP     
7157: 00           NOP     
7158: 30 30        DCRW    VV:30
715a: 78 78        CALF    $0878
715c: 00           NOP     
715d: 00           NOP     
715e: 00           NOP     
715f: 00           NOP     
7160: 00           NOP     
7161: 00           NOP     
7162: 00           NOP     
7163: 1f           MOV     L,A
7164: 00           NOP     
7165: 00           NOP     
7166: 00           NOP     
7167: 7f 7f        CALF    $0F7F
7169: 7f 7f        CALF    $0F7F
716b: 7f 7f        CALF    $0F7F
716d: 7f 7f        CALF    $0F7F
716f: 7f 7f        CALF    $0F7F
7171: 7f 7f        CALF    $0F7F
7173: 7f 7f        CALF    $0F7F
7175: 00           NOP     
7176: 00           NOP     
7177: 00           NOP     
7178: 00           NOP     
7179: 00           NOP     
717a: 0c           MOV     A,D
717b: 0c           MOV     A,D
717c: 1e           MOV     H,A
717d: 1e           MOV     H,A
717e: 3f           STAX    (HL-)
717f: 3f           STAX    (HL-)
7180: 00           NOP     
7181: 00           NOP     
7182: 00           NOP     
7183: 00           NOP     
7184: 00           NOP     
7185: 00           NOP     
7186: 00           NOP     
7187: 00           NOP     
7188: 00           NOP     
7189: 00           NOP     
718a: 00           NOP     
718b: 00           NOP     
718c: 00           NOP     
718d: 00           NOP     
718e: 3f           STAX    (HL-)
718f: 3f           STAX    (HL-)
7190: 1e           MOV     H,A
7191: 1e           MOV     H,A
7192: 0c           MOV     A,D
7193: 0c           MOV     A,D
7194: 00           NOP     
7195: 00           NOP     
7196: 00           NOP     
7197: 41           INR     A
7198: 00           NOP     
7199: 00           NOP     
719a: 08           MOV     A,EAH
719b: 08           MOV     A,EAH
719c: 18           MOV     EAH,A
719d: 18           MOV     EAH,A
719e: 38           illegal 
719f: 3e           STAX    (DE-)
71a0: 38           illegal 
71a1: 18           MOV     EAH,A
71a2: 18           MOV     EAH,A
71a3: 08           MOV     A,EAH
71a4: 08           MOV     A,EAH
71a5: 00           NOP     
71a6: 41           INR     A
71a7: 41           INR     A
71a8: 00           NOP     
71a9: 00           NOP     
71aa: 08           MOV     A,EAH
71ab: 08           MOV     A,EAH
71ac: 0c           MOV     A,D
71ad: 0c           MOV     A,D
71ae: 0e           MOV     A,H
71af: 3e           STAX    (DE-)
71b0: 0e           MOV     A,H
71b1: 0c           MOV     A,D
71b2: 0c           MOV     A,D
71b3: 08           MOV     A,EAH
71b4: 08           MOV     A,EAH
71b5: 00           NOP     
71b6: 41           INR     A
71b7: 00           NOP     
71b8: 00           NOP     
71b9: 00           NOP     
71ba: 00           NOP     
71bb: 00           NOP     
71bc: 00           NOP     
71bd: 00           NOP     
71be: 00           NOP     
71bf: 00           NOP     
71c0: 00           NOP     
71c1: 00           NOP     
71c2: 00           NOP     
71c3: 00           NOP     
71c4: 00           NOP     
71c5: 00           NOP     
71c6: 00           NOP     
71c7: 7f 00        CALF    $0F00
71c9: 00           NOP     
71ca: 00           NOP     
71cb: 00           NOP     
71cc: 00           NOP     
71cd: 00           NOP     
71ce: 00           NOP     
71cf: 00           NOP     
71d0: 00           NOP     
71d1: 00           NOP     
71d2: 00           NOP     
71d3: 00           NOP     
71d4: 00           NOP     
71d5: 00           NOP     
71d6: 00           NOP     
71d7: 00           NOP     
71d8: 00           NOP     
71d9: 00           NOP     
71da: 00           NOP     
71db: 00           NOP     
71dc: 00           NOP     
71dd: 00           NOP     
71de: 00           NOP     
71df: 00           NOP     
71e0: 21           JB      
71e1: 00           NOP     
71e2: 12           INX     BC
71e3: 00           NOP     
71e4: 0c           MOV     A,D
71e5: 00           NOP     
71e6: 00           NOP     
71e7: 00           NOP     
71e8: 00           NOP     
71e9: 00           NOP     
71ea: 00           NOP     
71eb: 00           NOP     
71ec: 00           NOP     
71ed: 00           NOP     
71ee: 00           NOP     
71ef: 00           NOP     
71f0: 00           NOP     
71f1: 00           NOP     
71f2: 00           NOP     
71f3: 00           NOP     
71f4: 00           NOP     
71f5: 00           NOP     
71f6: 00           NOP     
71f7: 00           NOP     
71f8: 00           NOP     
71f9: 00           NOP     
71fa: 00           NOP     
71fb: 00           NOP     
71fc: 00           NOP     
71fd: 00           NOP     
71fe: 00           NOP     
71ff: 00           NOP     
7200: 00           NOP     
7201: 00           NOP     
7202: 00           NOP     
7203: 00           NOP     
7204: 00           NOP     
7205: 00           NOP     
7206: 00           NOP     
7207: 00           NOP     
7208: 00           NOP     
7209: 00           NOP     
720a: 00           NOP     
720b: 7c 44        CALF    $0C44
720d: 46 42        ADI     A,$42
720f: 42           INR     B
7210: 42           INR     B
7211: 42           INR     B
7212: 42           INR     B
7213: 42           INR     B
7214: 42           INR     B
7215: 46 44        ADI     A,$44
7217: 44 44 44     LXI     EA,$4444
721a: 44 44 44     LXI     EA,$4444
721d: 44 44 44     LXI     EA,$4444
7220: 40 78 00     CALL    $0078
7223: 00           NOP     
7224: 00           NOP     
7225: 00           NOP     
7226: 00           NOP     
7227: 00           NOP     
7228: 00           NOP     
7229: 00           NOP     
722a: 00           NOP     
722b: 00           NOP     
722c: 00           NOP     
722d: 00           NOP     
722e: 00           NOP     
722f: 00           NOP     
7230: 00           NOP     
7231: 00           NOP     
7232: 00           NOP     
7233: 00           NOP     
7234: 00           NOP     
7235: 00           NOP     
7236: 7f 00        CALF    $0F00
7238: 08           MOV     A,EAH
7239: 08           MOV     A,EAH
723a: 1c           MOV     D,A
723b: 1c           MOV     D,A
723c: 3e           STAX    (DE-)
723d: 3e           STAX    (DE-)
723e: 7f 3e        CALF    $0F3E
7240: 3e           STAX    (DE-)
7241: 1c           MOV     D,A
7242: 1c           MOV     D,A
7243: 08           MOV     A,EAH
7244: 08           MOV     A,EAH
7245: 00           NOP     
7246: 00           NOP     
7247: 00           NOP     
7248: 00           NOP     
7249: 00           NOP     
724a: 00           NOP     
724b: 00           NOP     
724c: 00           NOP     
724d: 00           NOP     
724e: 00           NOP     
724f: 00           NOP     
7250: 00           NOP     
7251: 00           NOP     
7252: 00           NOP     
7253: 00           NOP     
7254: 00           NOP     
7255: 00           NOP     
7256: 00           NOP     
7257: 00           NOP     
7258: 14 14 14     LXI     BC,$1414
725b: 14 77 00     LXI     BC,$0077
725e: 00           NOP     
725f: 00           NOP     
7260: 77 14        EQI     A,$14
7262: 14 14 14     LXI     BC,$1414
7265: 00           NOP     
7266: 00           NOP     
7267: 00           NOP     
7268: 00           NOP     
7269: 00           NOP     
726a: 00           NOP     
726b: 08           MOV     A,EAH
726c: 08           MOV     A,EAH
726d: 08           MOV     A,EAH
726e: 00           NOP     
726f: 00           NOP     
7270: 00           NOP     
7271: 00           NOP     
7272: 7f 00        CALF    $0F00
7274: 00           NOP     
7275: 00           NOP     
7276: 00           NOP     
7277: 7f 00        CALF    $0F00
7279: 00           NOP     
727a: 00           NOP     
727b: 00           NOP     
727c: 00           NOP     
727d: 00           NOP     
727e: 00           NOP     
727f: 00           NOP     
7280: 00           NOP     
7281: 00           NOP     
7282: 00           NOP     
7283: 00           NOP     
7284: 00           NOP     
7285: 00           NOP     
7286: 00           NOP     
7287: 12           INX     BC
7288: fb           JR      $7284
7289: 73           illegal 
728a: 10           EXA     
728b: 0f           MOV     A,L
728c: 74 0b 23     ANI     C,$23
728f: 74 0c 32     ANI     D,$32
7292: 74 0d 3e     ANI     E,$3E
7295: 74 0c 4b     ANI     D,$4B
7298: 74 10 57     XRI     V,$57
729b: 74 0c 67     ANI     D,$67
729e: 74 10 73     XRI     V,$73
72a1: 74 0c 83     ANI     D,$83
72a4: 74 0c 8f     ANI     D,$8F
72a7: 74 0c 9b     ANI     D,$9B
72aa: 74 0c a7     ANI     D,$A7
72ad: 74 0e b3     ANI     H,$B3
72b0: 74 0c c1     ANI     D,$C1
72b3: 74 0d cd     ANI     E,$CD
72b6: 74 0a da     ANI     B,$DA
72b9: 74 0c e4     ANI     D,$E4
72bc: 74 07        illegal 
72be: f0           JR      $72AF
72bf: 74 0c f7     ANI     D,$F7
72c2: 74 0c 03     ANI     D,$03
72c5: 75 10 0f     EQIW    VV:10,$0F
72c8: 75 0d 1f     EQIW    VV:0D,$1F
72cb: 75 0f 2c     EQIW    VV:0F,$2C
72ce: 75 0f 3b     EQIW    VV:0F,$3B
72d1: 75 0c 4a     EQIW    VV:0C,$4A
72d4: 75 0c 56     EQIW    VV:0C,$56
72d7: 75 08 62     EQIW    VV:08,$62
72da: 75 07 6a     EQIW    VV:07,$6A
72dd: 75 07 71     EQIW    VV:07,$71
72e0: 75 0a 78     EQIW    VV:0A,$78
72e3: 75 0e 82     EQIW    VV:0E,$82
72e6: 75 0c 90     EQIW    VV:0C,$90
72e9: 75 10 9c     EQIW    VV:10,$9C
72ec: 75 0d ac     EQIW    VV:0D,$AC
72ef: 75 07 b9     EQIW    VV:07,$B9
72f2: 75 07 c0     EQIW    VV:07,$C0
72f5: 75 07 c7     EQIW    VV:07,$C7
72f8: 75 0c ce     EQIW    VV:0C,$CE
72fb: 75 0c da     EQIW    VV:0C,$DA
72fe: 75 07 e6     EQIW    VV:07,$E6
7301: 75 0c ed     EQIW    VV:0C,$ED
7304: 75 07 f9     EQIW    VV:07,$F9
7307: 75 0c 00     EQIW    VV:0C,$00
730a: 76 0c        SBI     A,$0C
730c: 0c           MOV     A,D
730d: 76 0c        SBI     A,$0C
730f: 18           MOV     EAH,A
7310: 76 0c        SBI     A,$0C
7312: 24 76 0c     LXI     DE,$0C76
7315: 30 76        DCRW    VV:76
7317: 0c           MOV     A,D
7318: 3c           STAX    (DE+)
7319: 76 0c        SBI     A,$0C
731b: 48 76        illegal 
731d: 0c           MOV     A,D
731e: 54 76 0c     JMP     $0C76
7321: 60 76        SBB     H,A
7323: 0c           MOV     A,D
7324: 6c 76        MVI     D,$76
7326: 0c           MOV     A,D
7327: 78 76        CALF    $0876
7329: 07 84        ANI     A,$84
732b: 76 07        SBI     A,$07
732d: 8b           CALT    ($0096)
732e: 76 0c        SBI     A,$0C
7330: 92           CALT    ($00A4)
7331: 76 0c        SBI     A,$0C
7333: 9e           CALT    ($00BC)
7334: 76 0c        SBI     A,$0C
7336: aa           EI      
7337: 76 0c        SBI     A,$0C
7339: b6           DMOV    DE,EA
733a: 76 0e        SBI     A,$0E
733c: c2           JR      $733F
733d: 76 10        SBI     A,$10
733f: d0           JR      $7350
7340: 76 0f        SBI     A,$0F
7342: e0           JR      $7323
7343: 76 0e        SBI     A,$0E
7345: ef           JR      $7335
7346: 76 0f        SBI     A,$0F
7348: fd           JR      $7346
7349: 76 0f        SBI     A,$0F
734b: 0c           MOV     A,D
734c: 77 0f        EQI     A,$0F
734e: 1b           MOV     C,A
734f: 77 0e        EQI     A,$0E
7351: 2a           LDAX    (DE)
7352: 77 0f        EQI     A,$0F
7354: 38           illegal 
7355: 77 09        EQI     A,$09
7357: 47 77        ONI     A,$77
7359: 0d           MOV     A,E
735a: 50           EXH     
735b: 77 0c        EQI     A,$0C
735d: 5d 77        BIT     5,VV:77
735f: 0d           MOV     A,E
7360: 69 77        MVI     A,$77
7362: 11           EXX     
7363: 76 77        SBI     A,$77
7365: 10           EXA     
7366: 87           CALT    ($008E)
7367: 77 0f        EQI     A,$0F
7369: 97           CALT    ($00AE)
736a: 77 0d        EQI     A,$0D
736c: a6           DMOV    EA,DE
736d: 77 10        EQI     A,$10
736f: b3           PUSH    HL
7370: 77 0f        EQI     A,$0F
7372: c3           JR      $7376
7373: 77 0c        EQI     A,$0C
7375: d2           JR      $7388
7376: 77 0e        EQI     A,$0E
7378: de           JR      $7397
7379: 77 0f        EQI     A,$0F
737b: ec           JR      $7368
737c: 77 10        EQI     A,$10
737e: fb           JR      $737A
737f: 77 11        EQI     A,$11
7381: 0b           MOV     A,C
7382: 78 0b        CALF    $080B
7384: 1c           MOV     D,A
7385: 78 0e        CALF    $080E
7387: 27 78        GTI     A,$78
7389: 0b           MOV     A,C
738a: 35 78 0c     LTIW    VV:78,$0C
738d: 40 78 0c     CALL    $0C78
7390: 4c 78        illegal 
7392: 0c           MOV     A,D
7393: 58 78        BIT     0,VV:78
7395: 0c           MOV     A,D
7396: 64 78 11     EQI     PA,$11
7399: 70 78 07 81  MOV     ($8107),V
739d: 78 0c        CALF    $080C
739f: 88           CALT    ($0090)
73a0: 78 0c        CALF    $080C
73a2: 94           CALT    ($00A8)
73a3: 78 0a        CALF    $080A
73a5: a0           POP     VA
73a6: 78 0c        CALF    $080C
73a8: aa           EI      
73a9: 78 0c        CALF    $080C
73ab: b6           DMOV    DE,EA
73ac: 78 0a        CALF    $080A
73ae: c2           JR      $73B1
73af: 78 0c        CALF    $080C
73b1: cc           JR      $73BE
73b2: 78 0c        CALF    $080C
73b4: d8           JR      $73CD
73b5: 78 08        CALF    $0808
73b7: e4           JR      $739C
73b8: 78 07        CALF    $0807
73ba: ec           JR      $73A7
73bb: 78 0a        CALF    $080A
73bd: f3           JR      $73B1
73be: 78 08        CALF    $0808
73c0: fd           JR      $73BE
73c1: 78 10        CALF    $0810
73c3: 05 79 0c     ANIW    VV:79,$0C
73c6: 15 79 0c     ORIW    VV:79,$0C
73c9: 21           JB      
73ca: 79 0c        CALF    $090C
73cc: 2d           LDAX    (HL+)
73cd: 79 0c        CALF    $090C
73cf: 39           STAX    (BC)
73d0: 79 0a        CALF    $090A
73d2: 45 79 0c     ONIW    VV:79,$0C
73d5: 4f 79        JRE     $7350
73d7: 0a           MOV     A,B
73d8: 5b 79        BIT     3,VV:79
73da: 0c           MOV     A,D
73db: 65 79 0c     NEIW    VV:79,$0C
73de: 71 79 10     MVIW    VV:79,$10
73e1: 7d 79        CALF    $0D79
73e3: 0c           MOV     A,D
73e4: 8d           CALT    ($009A)
73e5: 79 0c        CALF    $090C
73e7: 99           CALT    ($00B2)
73e8: 79 0a        CALF    $090A
73ea: a5           DMOV    EA,BC
73eb: 79 0a        CALF    $090A
73ed: af 79        LDAX    (HL+$79)
73ef: 07 b9        ANI     A,$B9
73f1: 79 0a        CALF    $090A
73f3: c0           JR      $73F4
73f4: 79 0d        CALF    $090D
73f6: ca           JR      $7401
73f7: 79 07        CALF    $0907
73f9: d7           JR      $7411
73fa: 79 00        CALF    $0900
73fc: 00           NOP     
73fd: 78 08        CALF    $0808
73ff: 0c           MOV     A,D
7400: 08           MOV     A,EAH
7401: 0a           MOV     A,B
7402: 08           MOV     A,EAH
7403: 09           MOV     A,EAL
7404: 7f 09        CALF    $0F09
7406: 09           MOV     A,EAL
7407: 09           MOV     A,EAL
7408: 1d           MOV     E,A
7409: 01 43        LDAW    VV:43
740b: 00           NOP     
740c: 00           NOP     
740d: 00           NOP     
740e: 00           NOP     
740f: 00           NOP     
7410: 60 44        ADD     D,A
7412: 14 14 14     LXI     BC,$1414
7415: 50           EXH     
7416: 78 50        CALF    $0850
7418: 14 14 14     LXI     BC,$1414
741b: 50           EXH     
741c: 58 00        BIT     0,VV:00
741e: 00           NOP     
741f: 00           NOP     
7420: 00           NOP     
7421: 00           NOP     
7422: 00           NOP     
7423: 00           NOP     
7424: ae           LDAX    (HL+EA)
7425: 40 04 24     CALL    $2404
7428: 14 0c 40     LXI     BC,$400C
742b: 3c           STAX    (DE+)
742c: 00           NOP     
742d: 00           NOP     
742e: 00           NOP     
742f: 00           NOP     
7430: 00           NOP     
7431: 00           NOP     
7432: 00           NOP     
7433: 3e           STAX    (DE-)
7434: 60 11        XRA     A,A
7436: 01 09        LDAW    VV:09
7438: 05 40 3e     ANIW    VV:40,$3E
743b: 00           NOP     
743c: 00           NOP     
743d: 00           NOP     
743e: 00           NOP     
743f: 40 08 08     CALL    $0808
7442: 7e 09        CALF    $0E09
7444: 49 49        MVIX    BC,$49
7446: 0a           MOV     A,B
7447: 00           NOP     
7448: 00           NOP     
7449: 00           NOP     
744a: 00           NOP     
744b: 00           NOP     
744c: 00           NOP     
744d: 0a           MOV     A,B
744e: 40 15 15     CALL    $1515
7451: 15 40 2a     ORIW    VV:40,$2A
7454: 00           NOP     
7455: 00           NOP     
7456: 00           NOP     
7457: 00           NOP     
7458: 00           NOP     
7459: 40 21 11     CALL    $1121
745c: 08           MOV     A,EAH
745d: 04 02 04     LXI     SP,$0402
7460: 08           MOV     A,EAH
7461: 11           EXX     
7462: 21           JB      
7463: 40 00 00     CALL    $0000
7466: 00           NOP     
7467: 00           NOP     
7468: 00           NOP     
7469: 79 41        CALF    $0941
746b: 04 04 04     LXI     SP,$0404
746e: 41           INR     A
746f: 79 00        CALF    $0900
7471: 00           NOP     
7472: 00           NOP     
7473: 00           NOP     
7474: 00           NOP     
7475: 60 10        XRA     V,A
7477: 00           NOP     
7478: 0a           MOV     A,B
7479: 05 05 05     ANIW    VV:05,$05
747c: 0a           MOV     A,B
747d: 00           NOP     
747e: 10           EXA     
747f: 60 00        illegal 
7481: 00           NOP     
7482: 00           NOP     
7483: 00           NOP     
7484: 00           NOP     
7485: 78 50        CALF    $0850
7487: 16 14        XRI     A,$14
7489: 15 50 58     ORIW    VV:50,$58
748c: 00           NOP     
748d: 00           NOP     
748e: 00           NOP     
748f: 00           NOP     
7490: 20 41        INRW    VV:41
7492: 15 14 14     ORIW    VV:14,$14
7495: 14 51 79     LXI     BC,$7951
7498: 00           NOP     
7499: 00           NOP     
749a: 00           NOP     
749b: 00           NOP     
749c: 20 40        INRW    VV:40
749e: 12           INX     BC
749f: 15 15 15     ORIW    VV:15,$15
74a2: 5a 70        BIT     2,VV:70
74a4: 00           NOP     
74a5: 00           NOP     
74a6: 00           NOP     
74a7: 00           NOP     
74a8: 3c           STAX    (DE+)
74a9: 41           INR     A
74aa: 01 00        LDAW    VV:00
74ac: 00           NOP     
74ad: 00           NOP     
74ae: 01 41        LDAW    VV:41
74b0: 7c 00        CALF    $0C00
74b2: 00           NOP     
74b3: 00           NOP     
74b4: 00           NOP     
74b5: 40 3e 04     CALL    $043E
74b8: 05 05 05     ANIW    VV:05,$05
74bb: 20 2a        INRW    VV:2A
74bd: 18           MOV     EAH,A
74be: 00           NOP     
74bf: 00           NOP     
74c0: 00           NOP     
74c1: 00           NOP     
74c2: 20 40        INRW    VV:40
74c4: 14 15 14     LXI     BC,$1415
74c7: 16 50        XRI     A,$50
74c9: 78 00        CALF    $0800
74cb: 00           NOP     
74cc: 00           NOP     
74cd: 00           NOP     
74ce: 00           NOP     
74cf: 00           NOP     
74d0: 01 01        LDAW    VV:01
74d2: 00           NOP     
74d3: 00           NOP     
74d4: 00           NOP     
74d5: 01 01        LDAW    VV:01
74d7: 00           NOP     
74d8: 00           NOP     
74d9: 00           NOP     
74da: 00           NOP     
74db: ce           JR      $74EA
74dc: c0           JR      $74DD
74dd: d1           JR      $74EF
74de: b1           PUSH    BC
74df: 44 00 28     LXI     EA,$2800
74e2: 00           NOP     
74e3: 00           NOP     
74e4: 00           NOP     
74e5: 78 50        CALF    $0850
74e7: 15 14 16     ORIW    VV:14,$16
74ea: 14 50 58     LXI     BC,$5850
74ed: 00           NOP     
74ee: 00           NOP     
74ef: 00           NOP     
74f0: 00           NOP     
74f1: 00           NOP     
74f2: 00           NOP     
74f3: fb           JR      $74EF
74f4: 00           NOP     
74f5: 00           NOP     
74f6: 00           NOP     
74f7: 00           NOP     
74f8: b0           PUSH    VA
74f9: 00           NOP     
74fa: c9           JR      $7504
74fb: c5           JR      $7501
74fc: c1           JR      $74FE
74fd: c0           JR      $74FE
74fe: 00           NOP     
74ff: a0           POP     VA
7500: 00           NOP     
7501: 00           NOP     
7502: 00           NOP     
7503: 02           INX     SP
7504: 7c 01        CALF    $0C01
7506: 05 05 04     ANIW    VV:05,$04
7509: 06           illegal 
750a: 06           illegal 
750b: 02           INX     SP
750c: 78 01        CALF    $0801
750e: 00           NOP     
750f: 00           NOP     
7510: 00           NOP     
7511: 06           illegal 
7512: 7c 05        CALF    $0C05
7514: 09           MOV     A,EAL
7515: 01 10        LDAW    VV:10
7517: 02           INX     SP
7518: 22           INX     DE
7519: 06           illegal 
751a: 7c 05        CALF    $0C05
751c: 00           NOP     
751d: 00           NOP     
751e: 00           NOP     
751f: 00           NOP     
7520: 00           NOP     
7521: 00           NOP     
7522: 02           INX     SP
7523: 05 05 05     ANIW    VV:05,$05
7526: 02           INX     SP
7527: 00           NOP     
7528: 00           NOP     
7529: 00           NOP     
752a: 00           NOP     
752b: 00           NOP     
752c: 00           NOP     
752d: 38           illegal 
752e: 45 45 00     ONIW    VV:45,$00
7531: 00           NOP     
7532: 00           NOP     
7533: 00           NOP     
7534: 00           NOP     
7535: 00           NOP     
7536: 45 45 38     ONIW    VV:45,$38
7539: 00           NOP     
753a: 00           NOP     
753b: 00           NOP     
753c: 04 3d 45     LXI     SP,$453D
753f: 40 00 00     CALL    $0000
7542: 00           NOP     
7543: 00           NOP     
7544: 40 45 3d     CALL    $3D45
7547: 04 00 00     LXI     SP,$0000
754a: 00           NOP     
754b: 3c           STAX    (DE+)
754c: 40 00 01     CALL    $0100
754f: 00           NOP     
7550: 02           INX     SP
7551: 00           NOP     
7552: 40 7c 00     CALL    $007C
7555: 00           NOP     
7556: 00           NOP     
7557: 78 40        CALF    $0840
7559: 04 05 04     LXI     SP,$0405
755c: 06           illegal 
755d: 04 40 78     LXI     SP,$7840
7560: 00           NOP     
7561: 00           NOP     
7562: 00           NOP     
7563: 01 00        LDAW    VV:00
7565: 7a 00        CALF    $0A00
7567: 00           NOP     
7568: 00           NOP     
7569: 00           NOP     
756a: 00           NOP     
756b: 00           NOP     
756c: 00           NOP     
756d: 00           NOP     
756e: 00           NOP     
756f: 00           NOP     
7570: 00           NOP     
7571: 00           NOP     
7572: 00           NOP     
7573: 40 4f 40     CALL    $404F
7576: 00           NOP     
7577: 00           NOP     
7578: 00           NOP     
7579: 07 00        ANI     A,$00
757b: 00           NOP     
757c: 00           NOP     
757d: 07 00        ANI     A,$00
757f: 00           NOP     
7580: 00           NOP     
7581: 00           NOP     
7582: 00           NOP     
7583: 00           NOP     
7584: 04 04 7f     LXI     SP,$7F04
7587: 04 04 04     LXI     SP,$0404
758a: 04 7f 04     LXI     SP,$047F
758d: 04 00 00     LXI     SP,$0000
7590: 00           NOP     
7591: 24 20 0a     LXI     DE,$0A20
7594: 0a           MOV     A,B
7595: 7f 0a        CALF    $0F0A
7597: 0a           MOV     A,B
7598: 20 30        INRW    VV:30
759a: 00           NOP     
759b: 00           NOP     
759c: 00           NOP     
759d: 42           INR     B
759e: 05 25 05     ANIW    VV:25,$05
75a1: 12           INX     BC
75a2: 00           NOP     
75a3: 08           MOV     A,EAH
75a4: 60 04        illegal 
75a6: 00           NOP     
75a7: 02           INX     SP
75a8: 60 00        illegal 
75aa: 00           NOP     
75ab: 00           NOP     
75ac: 00           NOP     
75ad: 30 42        DCRW    VV:42
75af: 0d           MOV     A,E
75b0: 09           MOV     A,EAL
75b1: 05 12 40     ANIW    VV:12,$40
75b4: 20 50        INRW    VV:50
75b6: 00           NOP     
75b7: 00           NOP     
75b8: 00           NOP     
75b9: 00           NOP     
75ba: 00           NOP     
75bb: 04 02 01     LXI     SP,$0102
75be: 00           NOP     
75bf: 00           NOP     
75c0: 00           NOP     
75c1: 00           NOP     
75c2: 1c           MOV     D,A
75c3: 22           INX     DE
75c4: 41           INR     A
75c5: 00           NOP     
75c6: 00           NOP     
75c7: 00           NOP     
75c8: 41           INR     A
75c9: 22           INX     DE
75ca: 1c           MOV     D,A
75cb: 00           NOP     
75cc: 00           NOP     
75cd: 00           NOP     
75ce: 00           NOP     
75cf: 08           MOV     A,EAH
75d0: 2a           LDAX    (DE)
75d1: 08           MOV     A,EAH
75d2: 14 14 14     LXI     BC,$1414
75d5: 08           MOV     A,EAH
75d6: 2a           LDAX    (DE)
75d7: 08           MOV     A,EAH
75d8: 00           NOP     
75d9: 00           NOP     
75da: 00           NOP     
75db: 08           MOV     A,EAH
75dc: 08           MOV     A,EAH
75dd: 08           MOV     A,EAH
75de: 08           MOV     A,EAH
75df: 3e           STAX    (DE-)
75e0: 08           MOV     A,EAH
75e1: 08           MOV     A,EAH
75e2: 08           MOV     A,EAH
75e3: 08           MOV     A,EAH
75e4: 00           NOP     
75e5: 00           NOP     
75e6: 00           NOP     
75e7: 00           NOP     
75e8: d0           JR      $75F9
75e9: 40 b0 00     CALL    $00B0
75ec: 00           NOP     
75ed: 00           NOP     
75ee: 08           MOV     A,EAH
75ef: 08           MOV     A,EAH
75f0: 08           MOV     A,EAH
75f1: 08           MOV     A,EAH
75f2: 08           MOV     A,EAH
75f3: 08           MOV     A,EAH
75f4: 08           MOV     A,EAH
75f5: 08           MOV     A,EAH
75f6: 08           MOV     A,EAH
75f7: 00           NOP     
75f8: 00           NOP     
75f9: 00           NOP     
75fa: 00           NOP     
75fb: 40 40 40     CALL    $4040
75fe: 00           NOP     
75ff: 00           NOP     
7600: 00           NOP     
7601: 00           NOP     
7602: 40 20 10     CALL    $1020
7605: 08           MOV     A,EAH
7606: 04 02 01     LXI     SP,$0102
7609: 00           NOP     
760a: 00           NOP     
760b: 00           NOP     
760c: 00           NOP     
760d: 3e           STAX    (DE-)
760e: 40 01 01     CALL    $0101
7611: 01 01        LDAW    VV:01
7613: 40 3e 00     CALL    $003E
7616: 00           NOP     
7617: 00           NOP     
7618: 00           NOP     
7619: 00           NOP     
761a: 00           NOP     
761b: 04 02 7f     LXI     SP,$7F02
761e: 00           NOP     
761f: 00           NOP     
7620: 00           NOP     
7621: 00           NOP     
7622: 00           NOP     
7623: 00           NOP     
7624: 00           NOP     
7625: 02           INX     SP
7626: 40 21 01     CALL    $0121
7629: 11           EXX     
762a: 09           MOV     A,EAL
762b: 00           NOP     
762c: 06           illegal 
762d: 00           NOP     
762e: 00           NOP     
762f: 00           NOP     
7630: 00           NOP     
7631: 02           INX     SP
7632: 40 09 09     CALL    $0909
7635: 09           MOV     A,EAL
7636: 09           MOV     A,EAL
7637: 40 36 00     CALL    $0036
763a: 00           NOP     
763b: 00           NOP     
763c: 00           NOP     
763d: 10           EXA     
763e: 08           MOV     A,EAH
763f: 04 02 00     LXI     SP,$0002
7642: 01 7f        LDAW    VV:7F
7644: 00           NOP     
7645: 00           NOP     
7646: 00           NOP     
7647: 00           NOP     
7648: 00           NOP     
7649: 0f           MOV     A,L
764a: 49 01        MVIX    BC,$01
764c: 01 01        LDAW    VV:01
764e: 01 49        LDAW    VV:49
7650: 31           BLOCK   
7651: 00           NOP     
7652: 00           NOP     
7653: 00           NOP     
7654: 00           NOP     
7655: 30 48        DCRW    VV:48
7657: 4c 0a        illegal 
7659: 0a           MOV     A,B
765a: 48 51        SKIT    AN5
765c: 31           BLOCK   
765d: 00           NOP     
765e: 00           NOP     
765f: 00           NOP     
7660: 00           NOP     
7661: 01 01        LDAW    VV:01
7663: 01 61        LDAW    VV:61
7665: 11           EXX     
7666: 09           MOV     A,EAL
7667: 05 03 00     ANIW    VV:03,$00
766a: 00           NOP     
766b: 00           NOP     
766c: 00           NOP     
766d: 36 40        SUINB   A,$40
766f: 09           MOV     A,EAL
7670: 09           MOV     A,EAL
7671: 09           MOV     A,EAL
7672: 09           MOV     A,EAL
7673: 40 36 00     CALL    $0036
7676: 00           NOP     
7677: 00           NOP     
7678: 00           NOP     
7679: 06           illegal 
767a: 0a           MOV     A,B
767b: 09           MOV     A,EAL
767c: 01 41        LDAW    VV:41
767e: 21           JB      
767f: 1a           MOV     B,A
7680: 0e           MOV     A,H
7681: 00           NOP     
7682: 00           NOP     
7683: 00           NOP     
7684: 00           NOP     
7685: 00           NOP     
7686: 44 44 00     LXI     EA,$0044
7689: 00           NOP     
768a: 00           NOP     
768b: 00           NOP     
768c: 00           NOP     
768d: 44 b1 00     LXI     EA,$00B1
7690: 00           NOP     
7691: 00           NOP     
7692: 00           NOP     
7693: 00           NOP     
7694: 18           MOV     EAH,A
7695: 00           NOP     
7696: 24 00 42     LXI     DE,$4200
7699: 00           NOP     
769a: 00           NOP     
769b: 00           NOP     
769c: 00           NOP     
769d: 00           NOP     
769e: 00           NOP     
769f: 00           NOP     
76a0: 00           NOP     
76a1: 00           NOP     
76a2: 00           NOP     
76a3: 00           NOP     
76a4: 00           NOP     
76a5: 00           NOP     
76a6: 00           NOP     
76a7: 00           NOP     
76a8: 00           NOP     
76a9: 00           NOP     
76aa: 00           NOP     
76ab: 00           NOP     
76ac: 00           NOP     
76ad: 42           INR     B
76ae: 00           NOP     
76af: 24 00 18     LXI     DE,$1800
76b2: 00           NOP     
76b3: 00           NOP     
76b4: 00           NOP     
76b5: 00           NOP     
76b6: 00           NOP     
76b7: 02           INX     SP
76b8: 00           NOP     
76b9: 01 41        LDAW    VV:41
76bb: 51           DCR     A
76bc: 49 00        MVIX    BC,$00
76be: 06           illegal 
76bf: 00           NOP     
76c0: 00           NOP     
76c1: 00           NOP     
76c2: 00           NOP     
76c3: 00           NOP     
76c4: 06           illegal 
76c5: 72           SOFTI   
76c6: 40 09 09     CALL    $0909
76c9: 09           MOV     A,EAL
76ca: 71 01 00     MVIW    VV:01,$00
76cd: 42           INR     B
76ce: 7e 00        CALF    $0E00
76d0: 00           NOP     
76d1: 00           NOP     
76d2: 60 11        XRA     A,A
76d4: 1d           MOV     E,A
76d5: 13           DCX     BC
76d6: 11           EXX     
76d7: 11           EXX     
76d8: 11           EXX     
76d9: 12           INX     BC
76da: 1c           MOV     D,A
76db: 10           EXA     
76dc: 60 00        illegal 
76de: 00           NOP     
76df: 00           NOP     
76e0: 00           NOP     
76e1: 01 01        LDAW    VV:01
76e3: 7f 09        CALF    $0F09
76e5: 09           MOV     A,EAL
76e6: 09           MOV     A,EAL
76e7: 09           MOV     A,EAL
76e8: 09           MOV     A,EAL
76e9: 09           MOV     A,EAL
76ea: 48 56        illegal 
76ec: 36 00        SUINB   A,$00
76ee: 00           NOP     
76ef: 00           NOP     
76f0: 3e           STAX    (DE-)
76f1: 42           INR     B
76f2: 40 01 01     CALL    $0101
76f5: 01 01        LDAW    VV:01
76f7: 01 40        LDAW    VV:40
76f9: 42           INR     B
76fa: 23           DCX     DE
76fb: 00           NOP     
76fc: 00           NOP     
76fd: 00           NOP     
76fe: 01 01        LDAW    VV:01
7700: 7f 01        CALF    $0F01
7702: 01 01        LDAW    VV:01
7704: 01 01        LDAW    VV:01
7706: 40 42 22     CALL    $2242
7709: 3c           STAX    (DE+)
770a: 00           NOP     
770b: 00           NOP     
770c: 00           NOP     
770d: 01 7f        LDAW    VV:7F
770f: 09           MOV     A,EAL
7710: 09           MOV     A,EAL
7711: 09           MOV     A,EAL
7712: 09           MOV     A,EAL
7713: 1d           MOV     E,A
7714: 01 01        LDAW    VV:01
7716: 43           INR     C
7717: 00           NOP     
7718: 00           NOP     
7719: 00           NOP     
771a: 00           NOP     
771b: 00           NOP     
771c: 00           NOP     
771d: 01 7f        LDAW    VV:7F
771f: 09           MOV     A,EAL
7720: 09           MOV     A,EAL
7721: 09           MOV     A,EAL
7722: 09           MOV     A,EAL
7723: 1d           MOV     E,A
7724: 01 01        LDAW    VV:01
7726: 03           DCX     SP
7727: 00           NOP     
7728: 00           NOP     
7729: 00           NOP     
772a: 00           NOP     
772b: 3e           STAX    (DE-)
772c: 42           INR     B
772d: 40 01 01     CALL    $0101
7730: 01 01        LDAW    VV:01
7732: 01 40        LDAW    VV:40
7734: 73           illegal 
7735: 00           NOP     
7736: 00           NOP     
7737: 00           NOP     
7738: 00           NOP     
7739: 01 7f        LDAW    VV:7F
773b: 09           MOV     A,EAL
773c: 08           MOV     A,EAH
773d: 08           MOV     A,EAH
773e: 08           MOV     A,EAH
773f: 08           MOV     A,EAH
7740: 08           MOV     A,EAH
7741: 08           MOV     A,EAH
7742: 09           MOV     A,EAL
7743: 7f 01        CALF    $0F01
7745: 00           NOP     
7746: 00           NOP     
7747: 00           NOP     
7748: 01 01        LDAW    VV:01
774a: 7f 01        CALF    $0F01
774c: 01 00        LDAW    VV:00
774e: 00           NOP     
774f: 00           NOP     
7750: 00           NOP     
7751: 00           NOP     
7752: 60 40        ADD     V,A
7754: 00           NOP     
7755: 00           NOP     
7756: 01 41        LDAW    VV:41
7758: 7f 01        CALF    $0F01
775a: 01 00        LDAW    VV:00
775c: 00           NOP     
775d: 00           NOP     
775e: 01 7f        LDAW    VV:7F
7760: 01 18        LDAW    VV:18
7762: 00           NOP     
7763: 24 00 43     LXI     DE,$4300
7766: 01 01        LDAW    VV:01
7768: 00           NOP     
7769: 00           NOP     
776a: 01 7f        LDAW    VV:7F
776c: 01 00        LDAW    VV:00
776e: 00           NOP     
776f: 00           NOP     
7770: 00           NOP     
7771: 00           NOP     
7772: 00           NOP     
7773: 60 00        illegal 
7775: 00           NOP     
7776: 00           NOP     
7777: 00           NOP     
7778: 01 7f        LDAW    VV:7F
777a: 02           INX     SP
777b: 04 08 10     LXI     SP,$1008
777e: 08           MOV     A,EAH
777f: 04 02 7f     LXI     SP,$7F02
7782: 01 00        LDAW    VV:00
7784: 00           NOP     
7785: 00           NOP     
7786: 00           NOP     
7787: 00           NOP     
7788: 00           NOP     
7789: 01 7f        LDAW    VV:7F
778b: 00           NOP     
778c: 02           INX     SP
778d: 04 08 10     LXI     SP,$1008
7790: 20 41        INRW    VV:41
7792: 7f 01        CALF    $0F01
7794: 00           NOP     
7795: 00           NOP     
7796: 00           NOP     
7797: 00           NOP     
7798: 3e           STAX    (DE-)
7799: 42           INR     B
779a: 40 01 01     CALL    $0101
779d: 01 01        LDAW    VV:01
779f: 01 01        LDAW    VV:01
77a1: 40 42 3e     CALL    $3E42
77a4: 00           NOP     
77a5: 00           NOP     
77a6: 00           NOP     
77a7: 01 7f        LDAW    VV:7F
77a9: 01 01        LDAW    VV:01
77ab: 01 01        LDAW    VV:01
77ad: 01 08        LDAW    VV:08
77af: 0a           MOV     A,B
77b0: 06           illegal 
77b1: 00           NOP     
77b2: 00           NOP     
77b3: 00           NOP     
77b4: 3e           STAX    (DE-)
77b5: 42           INR     B
77b6: 40 01 01     CALL    $0101
77b9: 01 01        LDAW    VV:01
77bb: 01 21        LDAW    VV:21
77bd: 40 42 3e     CALL    $3E42
77c0: 00           NOP     
77c1: 00           NOP     
77c2: 00           NOP     
77c3: 00           NOP     
77c4: 01 7f        LDAW    VV:7F
77c6: 01 01        LDAW    VV:01
77c8: 01 01        LDAW    VV:01
77ca: 11           EXX     
77cb: 21           JB      
77cc: 48 0a        SK      CY
77ce: 06           illegal 
77cf: 00           NOP     
77d0: 00           NOP     
77d1: 00           NOP     
77d2: 00           NOP     
77d3: 66 46        SUI     A,$46
77d5: 40 09 09     CALL    $0909
77d8: 09           MOV     A,EAL
77d9: 40 52 33     CALL    $3352
77dc: 00           NOP     
77dd: 00           NOP     
77de: 00           NOP     
77df: 03           DCX     SP
77e0: 01 01        LDAW    VV:01
77e2: 01 01        LDAW    VV:01
77e4: 7f 01        CALF    $0F01
77e6: 01 01        LDAW    VV:01
77e8: 01 03        LDAW    VV:03
77ea: 00           NOP     
77eb: 00           NOP     
77ec: 00           NOP     
77ed: 01 3f        LDAW    VV:3F
77ef: 41           INR     A
77f0: 40 00 00     CALL    $0000
77f3: 00           NOP     
77f4: 00           NOP     
77f5: 40 41 3f     CALL    $3F41
77f8: 01 00        LDAW    VV:00
77fa: 00           NOP     
77fb: 00           NOP     
77fc: 00           NOP     
77fd: 01 03        LDAW    VV:03
77ff: 05 08 10     ANIW    VV:08,$10
7802: 20 40        INRW    VV:40
7804: 20 10        INRW    VV:10
7806: 08           MOV     A,EAH
7807: 05 03 01     ANIW    VV:03,$01
780a: 00           NOP     
780b: 00           NOP     
780c: 01 07        LDAW    VV:07
780e: 09           MOV     A,EAL
780f: 30 40        DCRW    VV:40
7811: 20 10        INRW    VV:10
7813: 08           MOV     A,EAH
7814: 10           EXA     
7815: 20 40        INRW    VV:40
7817: 30 09        DCRW    VV:09
7819: 07 01        ANI     A,$01
781b: 00           NOP     
781c: 00           NOP     
781d: 01 41        LDAW    VV:41
781f: 22           INX     DE
7820: 14 08 14     LXI     BC,$1408
7823: 22           INX     DE
7824: 41           INR     A
7825: 01 00        LDAW    VV:00
7827: 00           NOP     
7828: 01 01        LDAW    VV:01
782a: 03           DCX     SP
782b: 04 08 70     LXI     SP,$7008
782e: 08           MOV     A,EAH
782f: 04 03 01     LXI     SP,$0103
7832: 01 00        LDAW    VV:00
7834: 00           NOP     
7835: 00           NOP     
7836: 00           NOP     
7837: 43           INR     C
7838: 21           JB      
7839: 11           EXX     
783a: 09           MOV     A,EAL
783b: 05 03 41     ANIW    VV:03,$41
783e: 00           NOP     
783f: 00           NOP     
7840: 00           NOP     
7841: 00           NOP     
7842: 00           NOP     
7843: 7f 01        CALF    $0F01
7845: 01 01        LDAW    VV:01
7847: 01 01        LDAW    VV:01
7849: 00           NOP     
784a: 00           NOP     
784b: 00           NOP     
784c: 00           NOP     
784d: 00           NOP     
784e: 01 02        LDAW    VV:02
7850: 04 08 10     LXI     SP,$1008
7853: 20 40        INRW    VV:40
7855: 00           NOP     
7856: 00           NOP     
7857: 00           NOP     
7858: 00           NOP     
7859: 00           NOP     
785a: 00           NOP     
785b: 01 01        LDAW    VV:01
785d: 01 01        LDAW    VV:01
785f: 01 7f        LDAW    VV:7F
7861: 00           NOP     
7862: 00           NOP     
7863: 00           NOP     
7864: 00           NOP     
7865: 00           NOP     
7866: 00           NOP     
7867: 02           INX     SP
7868: 00           NOP     
7869: 01 00        LDAW    VV:00
786b: 02           INX     SP
786c: 00           NOP     
786d: 00           NOP     
786e: 00           NOP     
786f: 00           NOP     
7870: c0           JR      $7871
7871: c0           JR      $7872
7872: c0           JR      $7873
7873: c0           JR      $7874
7874: c0           JR      $7875
7875: c0           JR      $7876
7876: c0           JR      $7877
7877: c0           JR      $7878
7878: c0           JR      $7879
7879: c0           JR      $787A
787a: c0           JR      $787B
787b: c0           JR      $787C
787c: c0           JR      $787D
787d: c0           JR      $787E
787e: c0           JR      $787F
787f: c0           JR      $7880
7880: c0           JR      $7881
7881: 00           NOP     
7882: 00           NOP     
7883: 01 02        LDAW    VV:02
7885: 04 00 00     LXI     SP,$0000
7888: 00           NOP     
7889: 60 40        ADD     V,A
788b: 14 14 14     LXI     BC,$1414
788e: 14 50 78     LXI     BC,$7850
7891: 00           NOP     
7892: 00           NOP     
7893: 00           NOP     
7894: 00           NOP     
7895: 7f 40        CALF    $0F40
7897: 04 04 04     LXI     SP,$0404
789a: 04 40 78     LXI     SP,$7840
789d: 00           NOP     
789e: 00           NOP     
789f: 00           NOP     
78a0: 00           NOP     
78a1: 38           illegal 
78a2: 40 04 04     CALL    $0404
78a5: 04 40 48     LXI     SP,$4840
78a8: 00           NOP     
78a9: 00           NOP     
78aa: 00           NOP     
78ab: 78 40        CALF    $0840
78ad: 04 04 04     LXI     SP,$0404
78b0: 04 40 7f     LXI     SP,$7F40
78b3: 00           NOP     
78b4: 00           NOP     
78b5: 00           NOP     
78b6: 00           NOP     
78b7: 78 50        CALF    $0850
78b9: 14 14 14     LXI     BC,$1414
78bc: 14 50 58     LXI     BC,$5850
78bf: 00           NOP     
78c0: 00           NOP     
78c1: 00           NOP     
78c2: 00           NOP     
78c3: 00           NOP     
78c4: 00           NOP     
78c5: 7e 00        CALF    $0E00
78c7: 00           NOP     
78c8: 01 01        LDAW    VV:01
78ca: 00           NOP     
78cb: 00           NOP     
78cc: 00           NOP     
78cd: 38           illegal 
78ce: 20 c1        INRW    VV:C1
78d0: c1           JR      $78D2
78d1: c1           JR      $78D3
78d2: 04 a8 bf     LXI     SP,$BFA8
78d5: 00           NOP     
78d6: 00           NOP     
78d7: 00           NOP     
78d8: 00           NOP     
78d9: 7f 00        CALF    $0F00
78db: 04 04 04     LXI     SP,$0404
78de: 04 00 78     LXI     SP,$7800
78e1: 00           NOP     
78e2: 00           NOP     
78e3: 00           NOP     
78e4: 00           NOP     
78e5: 00           NOP     
78e6: 05 7c 00     ANIW    VV:7C,$00
78e9: 00           NOP     
78ea: 00           NOP     
78eb: 00           NOP     
78ec: 00           NOP     
78ed: a0           POP     VA
78ee: 00           NOP     
78ef: 00           NOP     
78f0: 01 bf        LDAW    VV:BF
78f2: 00           NOP     
78f3: 00           NOP     
78f4: 7f 20        CALF    $0F20
78f6: 00           NOP     
78f7: 10           EXA     
78f8: 20 08        INRW    VV:08
78fa: 40 04 00     CALL    $0004
78fd: 00           NOP     
78fe: 01 01        LDAW    VV:01
7900: 7f 00        CALF    $0F00
7902: 00           NOP     
7903: 00           NOP     
7904: 00           NOP     
7905: 00           NOP     
7906: 00           NOP     
7907: 7c 00        CALF    $0C00
7909: 04 04 00     LXI     SP,$0004
790c: 78 00        CALF    $0800
790e: 04 04 00     LXI     SP,$0004
7911: 78 00        CALF    $0800
7913: 00           NOP     
7914: 00           NOP     
7915: 00           NOP     
7916: 7c 00        CALF    $0C00
7918: 04 04 04     LXI     SP,$0404
791b: 04 04 00     LXI     SP,$0004
791e: 78 00        CALF    $0800
7920: 00           NOP     
7921: 00           NOP     
7922: 78 40        CALF    $0840
7924: 04 04 04     LXI     SP,$0404
7927: 04 04 40     LXI     SP,$4004
792a: 78 00        CALF    $0800
792c: 00           NOP     
792d: 00           NOP     
792e: ff           JR      $792E
792f: 28           illegal 
7930: 00           NOP     
7931: 44 44 44     LXI     EA,$4444
7934: 00           NOP     
7935: 28           illegal 
7936: 38           illegal 
7937: 00           NOP     
7938: 00           NOP     
7939: 00           NOP     
793a: 38           illegal 
793b: 28           illegal 
793c: 00           NOP     
793d: 44 44 44     LXI     EA,$4444
7940: 00           NOP     
7941: 28           illegal 
7942: ff           JR      $7942
7943: 00           NOP     
7944: 00           NOP     
7945: 00           NOP     
7946: 7c 08        CALF    $0C08
7948: 00           NOP     
7949: 04 04 04     LXI     SP,$0404
794c: 00           NOP     
794d: 00           NOP     
794e: 00           NOP     
794f: 00           NOP     
7950: 48 40        SKIT    NMI
7952: 14 14 14     LXI     BC,$1414
7955: 14 14 40     LXI     BC,$4014
7958: 6c 00        MVI     D,$00
795a: 00           NOP     
795b: 00           NOP     
795c: 04 04 7e     LXI     SP,$7E04
795f: 44 04 04     LXI     EA,$0404
7962: 04 00 00     LXI     SP,$0000
7965: 00           NOP     
7966: 7c 40        CALF    $0C40
7968: 00           NOP     
7969: 00           NOP     
796a: 00           NOP     
796b: 00           NOP     
796c: 00           NOP     
796d: 40 7c 00     CALL    $007C
7970: 00           NOP     
7971: 00           NOP     
7972: 04 0c 10     LXI     SP,$100C
7975: 20 40        INRW    VV:40
7977: 20 10        INRW    VV:10
7979: 0c           MOV     A,D
797a: 04 00 00     LXI     SP,$0000
797d: 00           NOP     
797e: 0c           MOV     A,D
797f: 34 40 20     LXI     HL,$2040
7982: 00           NOP     
7983: 10           EXA     
7984: 00           NOP     
7985: 10           EXA     
7986: 00           NOP     
7987: 20 40        INRW    VV:40
7989: 34 0c 00     LXI     HL,$000C
798c: 00           NOP     
798d: 00           NOP     
798e: 44 0c 20     LXI     EA,$200C
7991: 10           EXA     
7992: 20 0c        INRW    VV:0C
7994: 44 00 00     LXI     EA,$0000
7997: 00           NOP     
7998: 00           NOP     
7999: 00           NOP     
799a: 04 c3 a4     LXI     SP,$A4C3
799d: 60 20        ADDNC   V,A
799f: 10           EXA     
79a0: 0c           MOV     A,D
79a1: 04 00 00     LXI     SP,$0000
79a4: 00           NOP     
79a5: 00           NOP     
79a6: 4c 04        illegal 
79a8: 24 14 04     LXI     DE,$0414
79ab: 0c           MOV     A,D
79ac: 44 00 00     LXI     EA,$0000
79af: 00           NOP     
79b0: 08           MOV     A,EAH
79b1: 08           MOV     A,EAH
79b2: 76 01        SBI     A,$01
79b4: 01 01        LDAW    VV:01
79b6: 00           NOP     
79b7: 00           NOP     
79b8: 00           NOP     
79b9: 00           NOP     
79ba: 00           NOP     
79bb: 7f 00        CALF    $0F00
79bd: 00           NOP     
79be: 00           NOP     
79bf: 00           NOP     
79c0: 00           NOP     
79c1: 01 01        LDAW    VV:01
79c3: 01 76        LDAW    VV:76
79c5: 08           MOV     A,EAH
79c6: 08           MOV     A,EAH
79c7: 00           NOP     
79c8: 00           NOP     
79c9: 00           NOP     
79ca: 02           INX     SP
79cb: 00           NOP     
79cc: 01 01        LDAW    VV:01
79ce: 01 00        LDAW    VV:00
79d0: 02           INX     SP
79d1: 02           INX     SP
79d2: 02           INX     SP
79d3: 00           NOP     
79d4: 01 00        LDAW    VV:00
79d6: 00           NOP     
79d7: 00           NOP     
79d8: 00           NOP     
79d9: 00           NOP     
79da: 00           NOP     
79db: 00           NOP     
79dc: 00           NOP     
79dd: 00           NOP     
79de: 00           NOP     
79df: 40 78 44     CALL    $4478
79e2: 00           NOP     
79e3: 02           INX     SP
79e4: 00           NOP     
79e5: 01 00        LDAW    VV:00
79e7: 7f 40        CALF    $0F40
79e9: 40 40 4c     CALL    $4C40
79ec: 40 61 00     CALL    $0061
79ef: 00           NOP     
79f0: 00           NOP     
79f1: 00           NOP     
79f2: 00           NOP     
79f3: 30 10        DCRW    VV:10
79f5: 40 40 40     CALL    $4040
79f8: 04 3c 04     LXI     SP,$043C
79fb: 40 40 40     CALL    $4040
79fe: 04 0c 00     LXI     SP,$000C
7a01: 00           NOP     
7a02: 00           NOP     
7a03: 00           NOP     
7a04: 00           NOP     
7a05: 00           NOP     
7a06: 00           NOP     
7a07: 78 04        CALF    $0804
7a09: 60 50        ADC     V,A
7a0b: 48 40        SKIT    NMI
7a0d: 04 3a 00     LXI     SP,$003A
7a10: 00           NOP     
7a11: 00           NOP     
7a12: 00           NOP     
7a13: 00           NOP     
7a14: 00           NOP     
7a15: 00           NOP     
7a16: 3e           STAX    (DE-)
7a17: 01 50        LDAW    VV:50
7a19: 48 44        SKIT    F2
7a1b: 40 03 3e     CALL    $3E03
7a1e: 00           NOP     
7a1f: 00           NOP     
7a20: 00           NOP     
7a21: 00           NOP     
7a22: 00           NOP     
7a23: 60 60        SUB     V,A
7a25: 3f           STAX    (HL-)
7a26: 20 00        INRW    VV:00
7a28: 00           NOP     
7a29: 41           INR     A
7a2a: 40 00 00     CALL    $0000
7a2d: 00           NOP     
7a2e: 00           NOP     
7a2f: 00           NOP     
7a30: 20 0f        INRW    VV:0F
7a32: 40 40 40     CALL    $4040
7a35: 1d           MOV     E,A
7a36: 20 00        INRW    VV:00
7a38: 00           NOP     
7a39: 00           NOP     
7a3a: 00           NOP     
7a3b: 40 60 51     CALL    $5160
7a3e: 19           MOV     EAL,A
7a3f: 14 12 10     LXI     BC,$1012
7a42: 12           INX     BC
7a43: 14 19 51     LXI     BC,$5119
7a46: 60 40        ADD     V,A
7a48: 00           NOP     
7a49: 00           NOP     
7a4a: 00           NOP     
7a4b: 00           NOP     
7a4c: 3d           STAX    (HL+)
7a4d: 05 40 40     ANIW    VV:40,$40
7a50: 40 05 3d     CALL    $3D05
7a53: 00           NOP     
7a54: 00           NOP     
7a55: 00           NOP     
7a56: 00           NOP     
7a57: 40 60 50     CALL    $5060
7a5a: 18           MOV     EAH,A
7a5b: 17 10        ORI     A,$10
7a5d: 10           EXA     
7a5e: 10           EXA     
7a5f: 17 18        ORI     A,$18
7a61: 50           EXH     
7a62: 60 40        ADD     V,A
7a64: 00           NOP     
7a65: 00           NOP     
7a66: 00           NOP     
7a67: 00           NOP     
7a68: 3c           STAX    (DE+)
7a69: 04 40 41     LXI     SP,$4140
7a6c: 40 04 0c     CALL    $0C04
7a6f: 00           NOP     
7a70: 00           NOP     
7a71: 00           NOP     
7a72: 00           NOP     
7a73: 20 11        INRW    VV:11
7a75: 41           INR     A
7a76: 40 40 40     CALL    $4040
7a79: 05 39 40     ANIW    VV:39,$40
7a7c: 00           NOP     
7a7d: 00           NOP     
7a7e: 00           NOP     
7a7f: 20 10        INRW    VV:10
7a81: 47 44        ONI     A,$44
7a83: 44 44 03     LXI     EA,$0344
7a86: 38           illegal 
7a87: 40 00 00     CALL    $0000
7a8a: 00           NOP     
7a8b: 3c           STAX    (DE+)
7a8c: 01 41        LDAW    VV:41
7a8e: 40 40 40     CALL    $4040
7a91: 41           INR     A
7a92: 01 3c        LDAW    VV:3C
7a94: 40 00 00     CALL    $0000
7a97: 40 00 3f     CALL    $3F00
7a9a: 21           JB      
7a9b: 20 20        INRW    VV:20
7a9d: 20 07        INRW    VV:07
7a9f: 17 18        ORI     A,$18
7aa1: 00           NOP     
7aa2: 00           NOP     
7aa3: 00           NOP     
7aa4: 00           NOP     
7aa5: 20 10        INRW    VV:10
7aa7: 40 40 41     CALL    $4140
7aaa: 40 04 38     CALL    $3804
7aad: 40 00 00     CALL    $0000
7ab0: 00           NOP     
7ab1: 00           NOP     
7ab2: 00           NOP     
7ab3: 01 01        LDAW    VV:01
7ab5: 00           NOP     
7ab6: 00           NOP     
7ab7: 00           NOP     
7ab8: 01 01        LDAW    VV:01
7aba: 00           NOP     
7abb: 00           NOP     
7abc: 00           NOP     
7abd: 00           NOP     
7abe: 3c           STAX    (DE+)
7abf: 24 00 b0     LXI     DE,$B000
7ac2: 00           NOP     
7ac3: 24 24 00     LXI     DE,$0024
7ac6: 00           NOP     
7ac7: 00           NOP     
7ac8: 3c           STAX    (DE+)
7ac9: 04 40 41     LXI     SP,$4140
7acc: 40 40 04     CALL    $0440
7acf: 0c           MOV     A,D
7ad0: 00           NOP     
7ad1: 00           NOP     
7ad2: 00           NOP     
7ad3: 00           NOP     
7ad4: 00           NOP     
7ad5: 04 bd 04     LXI     SP,$04BD
7ad8: 00           NOP     
7ad9: 00           NOP     
7ada: 00           NOP     
7adb: 40 a8 00     CALL    $00A8
7ade: 16 00        XRI     A,$00
7ae0: 00           NOP     
7ae1: a0           POP     VA
7ae2: 00           NOP     
7ae3: 00           NOP     
7ae4: 00           NOP     
7ae5: 00           NOP     
7ae6: 00           NOP     
7ae7: 7d 04        CALF    $0D04
7ae9: 00           NOP     
7aea: 00           NOP     
7aeb: 01 00        LDAW    VV:00
7aed: 00           NOP     
7aee: 04 7d 00     LXI     SP,$007D
7af1: 00           NOP     
7af2: 00           NOP     
7af3: 00           NOP     
7af4: 40 7d 44     CALL    $447D
7af7: 00           NOP     
7af8: 08           MOV     A,EAH
7af9: 01 10        LDAW    VV:10
7afb: 00           NOP     
7afc: 60 7d        EQA     E,A
7afe: 40 00 00     CALL    $0000
7b01: 00           NOP     
7b02: 00           NOP     
7b03: 00           NOP     
7b04: 00           NOP     
7b05: 03           DCX     SP
7b06: 00           NOP     
7b07: 00           NOP     
7b08: 00           NOP     
7b09: 03           DCX     SP
7b0a: 00           NOP     
7b0b: 00           NOP     
7b0c: 00           NOP     
7b0d: 00           NOP     
7b0e: 00           NOP     
7b0f: 00           NOP     
7b10: 3c           STAX    (DE+)
7b11: 25 01 42     GTIW    VV:01,$42
7b14: 42           INR     B
7b15: 42           INR     B
7b16: 42           INR     B
7b17: 42           INR     B
7b18: 42           INR     B
7b19: 01 25        LDAW    VV:25
7b1b: 3c           STAX    (DE+)
7b1c: 00           NOP     
7b1d: 00           NOP     
7b1e: 00           NOP     
7b1f: 00           NOP     
7b20: 3d           STAX    (HL+)
7b21: 21           JB      
7b22: 00           NOP     
7b23: 40 40 40     CALL    $4040
7b26: 40 00 21     CALL    $2100
7b29: 3d           STAX    (HL+)
7b2a: 00           NOP     
7b2b: 00           NOP     
7b2c: 00           NOP     
7b2d: 00           NOP     
7b2e: 3c           STAX    (DE+)
7b2f: 00           NOP     
7b30: 40 40 41     CALL    $4140
7b33: 40 40 00     CALL    $0040
7b36: 3c           STAX    (DE+)
7b37: 40 00 00     CALL    $0000
7b3a: 3c           STAX    (DE+)
7b3b: 04 40 40     LXI     SP,$4040
7b3e: 41           INR     A
7b3f: 40 40 04     CALL    $0440
7b42: 3c           STAX    (DE+)
7b43: 00           NOP     
7b44: 00           NOP     
7b45: 00           NOP     
7b46: 44 45 7c     LXI     EA,$7C45
7b49: 40 40 00     CALL    $0040
7b4c: 00           NOP     
7b4d: 00           NOP     
7b4e: 00           NOP     
7b4f: 00           NOP     
7b50: 00           NOP     
7b51: 00           NOP     
7b52: 00           NOP     
7b53: 00           NOP     
7b54: 00           NOP     
7b55: 00           NOP     
7b56: 00           NOP     
7b57: 6f 00        MVI     L,$00
7b59: 00           NOP     
7b5a: 00           NOP     
7b5b: 00           NOP     
7b5c: 07 00        ANI     A,$00
7b5e: 00           NOP     
7b5f: 00           NOP     
7b60: 07 00        ANI     A,$00
7b62: 00           NOP     
7b63: 00           NOP     
7b64: 00           NOP     
7b65: 00           NOP     
7b66: 00           NOP     
7b67: 10           EXA     
7b68: 10           EXA     
7b69: 7f 10        CALF    $0F10
7b6b: 10           EXA     
7b6c: 10           EXA     
7b6d: 10           EXA     
7b6e: 7f 10        CALF    $0F10
7b70: 10           EXA     
7b71: 00           NOP     
7b72: 00           NOP     
7b73: 00           NOP     
7b74: 06           illegal 
7b75: 06           illegal 
7b76: 20 20        INRW    VV:20
7b78: 7f 20        CALF    $0F20
7b7a: 20 0a        INRW    VV:0A
7b7c: 1a           MOV     B,A
7b7d: 00           NOP     
7b7e: 00           NOP     
7b7f: 00           NOP     
7b80: 03           DCX     SP
7b81: 20 00        INRW    VV:00
7b83: 10           EXA     
7b84: 03           DCX     SP
7b85: 08           MOV     A,EAH
7b86: 00           NOP     
7b87: 24 50 52     LXI     DE,$5250
7b8a: 50           EXH     
7b8b: 21           JB      
7b8c: 00           NOP     
7b8d: 00           NOP     
7b8e: 00           NOP     
7b8f: 00           NOP     
7b90: 30 0b        DCRW    VV:0B
7b92: 40 44 48     CALL    $4844
7b95: 43           INR     C
7b96: 10           EXA     
7b97: 20 10        INRW    VV:10
7b99: 40 00 00     CALL    $0000
7b9c: 00           NOP     
7b9d: 00           NOP     
7b9e: 04 02 01     LXI     SP,$0102
7ba1: 00           NOP     
7ba2: 00           NOP     
7ba3: 00           NOP     
7ba4: 00           NOP     
7ba5: 1c           MOV     D,A
7ba6: 22           INX     DE
7ba7: 41           INR     A
7ba8: 00           NOP     
7ba9: 00           NOP     
7baa: 00           NOP     
7bab: 41           INR     A
7bac: 22           INX     DE
7bad: 1c           MOV     D,A
7bae: 00           NOP     
7baf: 00           NOP     
7bb0: 00           NOP     
7bb1: 00           NOP     
7bb2: 00           NOP     
7bb3: 00           NOP     
7bb4: 12           INX     BC
7bb5: 0c           MOV     A,D
7bb6: 00           NOP     
7bb7: 0c           MOV     A,D
7bb8: 12           INX     BC
7bb9: 00           NOP     
7bba: 00           NOP     
7bbb: 00           NOP     
7bbc: 00           NOP     
7bbd: 00           NOP     
7bbe: 00           NOP     
7bbf: 00           NOP     
7bc0: 00           NOP     
7bc1: 00           NOP     
7bc2: 1e           MOV     H,A
7bc3: 00           NOP     
7bc4: 00           NOP     
7bc5: 00           NOP     
7bc6: 00           NOP     
7bc7: 00           NOP     
7bc8: 00           NOP     
7bc9: 00           NOP     
7bca: 00           NOP     
7bcb: 00           NOP     
7bcc: b8           RET     
7bcd: 40 00 00     CALL    $0000
7bd0: 00           NOP     
7bd1: 00           NOP     
7bd2: 00           NOP     
7bd3: 00           NOP     
7bd4: 00           NOP     
7bd5: 00           NOP     
7bd6: 00           NOP     
7bd7: 00           NOP     
7bd8: 00           NOP     
7bd9: 00           NOP     
7bda: 00           NOP     
7bdb: 00           NOP     
7bdc: 00           NOP     
7bdd: 00           NOP     
7bde: 60 60        SUB     V,A
7be0: 60 00        illegal 
7be2: 00           NOP     
7be3: 00           NOP     
7be4: 00           NOP     
7be5: 40 20 10     CALL    $1020
7be8: 08           MOV     A,EAH
7be9: 04 02 01     LXI     SP,$0102
7bec: 00           NOP     
7bed: 00           NOP     
7bee: 00           NOP     
7bef: 00           NOP     
7bf0: 3e           STAX    (DE-)
7bf1: 01 40        LDAW    VV:40
7bf3: 40 40 40     CALL    $4040
7bf6: 01 3e        LDAW    VV:3E
7bf8: 00           NOP     
7bf9: 00           NOP     
7bfa: 00           NOP     
7bfb: 00           NOP     
7bfc: 00           NOP     
7bfd: 00           NOP     
7bfe: 42           INR     B
7bff: 41           INR     A
7c00: 7f 40        CALF    $0F40
7c02: 40 00 00     CALL    $0000
7c05: 00           NOP     
7c06: 00           NOP     
7c07: 00           NOP     
7c08: 40 41 60     CALL    $6041
7c0b: 50           EXH     
7c0c: 40 48 45     CALL    $4548
7c0f: 42           INR     B
7c10: 00           NOP     
7c11: 00           NOP     
7c12: 00           NOP     
7c13: 00           NOP     
7c14: 20 01        INRW    VV:01
7c16: 40 40 40     CALL    $4040
7c19: 40 0d 32     CALL    $320D
7c1c: 00           NOP     
7c1d: 00           NOP     
7c1e: 00           NOP     
7c1f: 00           NOP     
7c20: 10           EXA     
7c21: 18           MOV     EAH,A
7c22: 14 12 51     LXI     BC,$5112
7c25: 50           EXH     
7c26: 7f 50        CALF    $0F50
7c28: 50           EXH     
7c29: 00           NOP     
7c2a: 00           NOP     
7c2b: 00           NOP     
7c2c: 27 00        GTI     A,$00
7c2e: 44 44 44     LXI     EA,$4444
7c31: 44 00 38     LXI     EA,$3800
7c34: 00           NOP     
7c35: 00           NOP     
7c36: 00           NOP     
7c37: 00           NOP     
7c38: 38           illegal 
7c39: 2c           LDAX    (DE+)
7c3a: 42           INR     B
7c3b: 40 41 49     CALL    $4941
7c3e: 28           illegal 
7c3f: 30 00        DCRW    VV:00
7c41: 00           NOP     
7c42: 00           NOP     
7c43: 00           NOP     
7c44: 01 00        LDAW    VV:00
7c46: 00           NOP     
7c47: 60 10        XRA     V,A
7c49: 08           MOV     A,EAH
7c4a: 04 03 00     LXI     SP,$0003
7c4d: 00           NOP     
7c4e: 00           NOP     
7c4f: 00           NOP     
7c50: 32           INX     HL
7c51: 0d           MOV     A,E
7c52: 40 40 40     CALL    $4040
7c55: 40 0d 32     CALL    $320D
7c58: 00           NOP     
7c59: 00           NOP     
7c5a: 00           NOP     
7c5b: 00           NOP     
7c5c: 06           illegal 
7c5d: 05 09 48     ANIW    VV:09,$48
7c60: 28           illegal 
7c61: 19           MOV     EAL,A
7c62: 0d           MOV     A,E
7c63: 06           illegal 
7c64: 00           NOP     
7c65: 00           NOP     
7c66: 00           NOP     
7c67: 00           NOP     
7c68: 00           NOP     
7c69: 24 24 00     LXI     DE,$0024
7c6c: 00           NOP     
7c6d: 00           NOP     
7c6e: 00           NOP     
7c6f: 00           NOP     
7c70: a9           DCX     EA
7c71: 64 00 00     MVI     PA,$00
7c74: 00           NOP     
7c75: 00           NOP     
7c76: 08           MOV     A,EAH
7c77: 00           NOP     
7c78: 14 00 22     LXI     BC,$2200
7c7b: 00           NOP     
7c7c: 41           INR     A
7c7d: 00           NOP     
7c7e: 00           NOP     
7c7f: 00           NOP     
7c80: 00           NOP     
7c81: 00           NOP     
7c82: 14 14 14     LXI     BC,$1414
7c85: 14 14 14     LXI     BC,$1414
7c88: 14 14 00     LXI     BC,$0014
7c8b: 00           NOP     
7c8c: 00           NOP     
7c8d: 00           NOP     
7c8e: 00           NOP     
7c8f: 41           INR     A
7c90: 00           NOP     
7c91: 22           INX     DE
7c92: 00           NOP     
7c93: 14 00 08     LXI     BC,$0800
7c96: 00           NOP     
7c97: 00           NOP     
7c98: 00           NOP     
7c99: 00           NOP     
7c9a: 00           NOP     
7c9b: 01 00        LDAW    VV:00
7c9d: 00           NOP     
7c9e: 68 00        MVI     V,$00
7ca0: 05 02 00     ANIW    VV:02,$00
7ca3: 00           NOP     
7ca4: 00           NOP     
7ca5: 00           NOP     
7ca6: 00           NOP     
7ca7: 06           illegal 
7ca8: 31           BLOCK   
7ca9: 09           MOV     A,EAL
7caa: 40 40 40     CALL    $4040
7cad: 78 40        CALF    $0840
7caf: 41           INR     A
7cb0: 01 3e        LDAW    VV:3E
7cb2: 00           NOP     
7cb3: 00           NOP     
7cb4: 40 60 58     CALL    $5860
7cb7: 04 02 01     LXI     SP,$0102
7cba: 00           NOP     
7cbb: 01 02        LDAW    VV:02
7cbd: 04 58 60     LXI     SP,$6058
7cc0: 40 00 00     CALL    $0000
7cc3: 00           NOP     
7cc4: 40 40 7f     CALL    $7F40
7cc7: 40 40 40     CALL    $4040
7cca: 40 40 40     CALL    $4040
7ccd: 0d           MOV     A,E
7cce: 2d           LDAX    (HL+)
7ccf: 32           INX     HL
7cd0: 00           NOP     
7cd1: 00           NOP     
7cd2: 00           NOP     
7cd3: 3e           STAX    (DE-)
7cd4: 21           JB      
7cd5: 01 40        LDAW    VV:40
7cd7: 40 40 40     CALL    $4040
7cda: 40 01 21     CALL    $2101
7cdd: 23           DCX     DE
7cde: 00           NOP     
7cdf: 00           NOP     
7ce0: 00           NOP     
7ce1: 40 40 7f     CALL    $7F40
7ce4: 40 40 40     CALL    $4040
7ce7: 40 40 01     CALL    $0140
7cea: 21           JB      
7ceb: 22           INX     DE
7cec: 1e           MOV     H,A
7ced: 00           NOP     
7cee: 00           NOP     
7cef: 00           NOP     
7cf0: 40 7f 40     CALL    $407F
7cf3: 40 40 40     CALL    $4040
7cf6: 4c 40        illegal 
7cf8: 40 61 00     CALL    $0061
7cfb: 00           NOP     
7cfc: 00           NOP     
7cfd: 00           NOP     
7cfe: 00           NOP     
7cff: 00           NOP     
7d00: 40 7f 40     CALL    $407F
7d03: 40 00 00     CALL    $0000
7d06: 0c           MOV     A,D
7d07: 00           NOP     
7d08: 00           NOP     
7d09: 01 00        LDAW    VV:00
7d0b: 00           NOP     
7d0c: 00           NOP     
7d0d: 00           NOP     
7d0e: 3e           STAX    (DE-)
7d0f: 21           JB      
7d10: 01 40        LDAW    VV:40
7d12: 40 40 40     CALL    $4040
7d15: 48 09        illegal 
7d17: 39           STAX    (BC)
7d18: 08           MOV     A,EAH
7d19: 08           MOV     A,EAH
7d1a: 00           NOP     
7d1b: 00           NOP     
7d1c: 40 7f 40     CALL    $407F
7d1f: 00           NOP     
7d20: 00           NOP     
7d21: 00           NOP     
7d22: 00           NOP     
7d23: 00           NOP     
7d24: 00           NOP     
7d25: 40 7f 40     CALL    $407F
7d28: 00           NOP     
7d29: 00           NOP     
7d2a: 00           NOP     
7d2b: 40 40 7f     CALL    $7F40
7d2e: 40 40 00     CALL    $0040
7d31: 00           NOP     
7d32: 00           NOP     
7d33: 00           NOP     
7d34: 00           NOP     
7d35: 30 00        DCRW    VV:00
7d37: 40 40 40     CALL    $4040
7d3a: 00           NOP     
7d3b: 3f           STAX    (HL-)
7d3c: 00           NOP     
7d3d: 00           NOP     
7d3e: 00           NOP     
7d3f: 00           NOP     
7d40: 00           NOP     
7d41: 40 7f 48     CALL    $487F
7d44: 00           NOP     
7d45: 14 00 62     LXI     BC,$6200
7d48: 40 41 40     CALL    $4041
7d4b: 00           NOP     
7d4c: 00           NOP     
7d4d: 00           NOP     
7d4e: 7f 40        CALF    $0F40
7d50: 40 40 40     CALL    $4040
7d53: 40 40 40     CALL    $4040
7d56: 60 00        illegal 
7d58: 00           NOP     
7d59: 00           NOP     
7d5a: 00           NOP     
7d5b: 40 7f 41     CALL    $417F
7d5e: 02           INX     SP
7d5f: 04 08 04     LXI     SP,$0408
7d62: 02           INX     SP
7d63: 41           INR     A
7d64: 7f 40        CALF    $0F40
7d66: 00           NOP     
7d67: 00           NOP     
7d68: 00           NOP     
7d69: 00           NOP     
7d6a: 00           NOP     
7d6b: 00           NOP     
7d6c: 40 7f 41     CALL    $417F
7d6f: 02           INX     SP
7d70: 04 08 10     LXI     SP,$1008
7d73: 20 00        INRW    VV:00
7d75: 7f 40        CALF    $0F40
7d77: 00           NOP     
7d78: 00           NOP     
7d79: 00           NOP     
7d7a: 00           NOP     
7d7b: 3e           STAX    (DE-)
7d7c: 21           JB      
7d7d: 01 40        LDAW    VV:40
7d7f: 40 40 40     CALL    $4040
7d82: 40 40 01     CALL    $0140
7d85: 21           JB      
7d86: 3e           STAX    (DE-)
7d87: 00           NOP     
7d88: 00           NOP     
7d89: 00           NOP     
7d8a: 40 7f 48     CALL    $487F
7d8d: 08           MOV     A,EAH
7d8e: 08           MOV     A,EAH
7d8f: 08           MOV     A,EAH
7d90: 08           MOV     A,EAH
7d91: 01 05        LDAW    VV:05
7d93: 06           illegal 
7d94: 00           NOP     
7d95: 00           NOP     
7d96: 00           NOP     
7d97: 3e           STAX    (DE-)
7d98: 21           JB      
7d99: 01 40        LDAW    VV:40
7d9b: 40 50 50     CALL    $5050
7d9e: 50           EXH     
7d9f: 60 01        illegal 
7da1: 61           DAA     
7da2: 7e 40        CALF    $0E40
7da4: 40 00 00     CALL    $0000
7da7: 40 7f 48     CALL    $487F
7daa: 08           MOV     A,EAH
7dab: 08           MOV     A,EAH
7dac: 08           MOV     A,EAH
7dad: 18           MOV     EAH,A
7dae: 28           illegal 
7daf: 41           INR     A
7db0: 45 46 00     ONIW    VV:46,$00
7db3: 00           NOP     
7db4: 00           NOP     
7db5: 00           NOP     
7db6: 62           RETI    
7db7: 25 05 40     GTIW    VV:05,$40
7dba: 40 40 09     CALL    $0940
7dbd: 29           LDAX    (BC)
7dbe: 33           DCX     HL
7dbf: 00           NOP     
7dc0: 00           NOP     
7dc1: 00           NOP     
7dc2: 01 00        LDAW    VV:00
7dc4: 00           NOP     
7dc5: 00           NOP     
7dc6: 40 7f 40     CALL    $407F
7dc9: 00           NOP     
7dca: 00           NOP     
7dcb: 00           NOP     
7dcc: 01 00        LDAW    VV:00
7dce: 00           NOP     
7dcf: 00           NOP     
7dd0: 00           NOP     
7dd1: 3f           STAX    (HL-)
7dd2: 20 00        INRW    VV:00
7dd4: 40 40 40     CALL    $4040
7dd7: 40 00 20     CALL    $2000
7dda: 3f           STAX    (HL-)
7ddb: 00           NOP     
7ddc: 00           NOP     
7ddd: 00           NOP     
7dde: 00           NOP     
7ddf: 00           NOP     
7de0: 00           NOP     
7de1: 03           DCX     SP
7de2: 04 08 10     LXI     SP,$1008
7de5: 20 40        INRW    VV:40
7de7: 20 10        INRW    VV:10
7de9: 08           MOV     A,EAH
7dea: 04 03 00     LXI     SP,$0003
7ded: 00           NOP     
7dee: 00           NOP     
7def: 00           NOP     
7df0: 03           DCX     SP
7df1: 0c           MOV     A,D
7df2: 10           EXA     
7df3: 60 10        XRA     V,A
7df5: 08           MOV     A,EAH
7df6: 04 08 10     LXI     SP,$1008
7df9: 60 10        XRA     V,A
7dfb: 0c           MOV     A,D
7dfc: 03           DCX     SP
7dfd: 00           NOP     
7dfe: 00           NOP     
7dff: 00           NOP     
7e00: 40 41 22     CALL    $2241
7e03: 14 08 14     LXI     BC,$1408
7e06: 22           INX     DE
7e07: 41           INR     A
7e08: 40 00 00     CALL    $0000
7e0b: 00           NOP     
7e0c: 01 02        LDAW    VV:02
7e0e: 04 48 70     LXI     SP,$7048
7e11: 48 04        illegal 
7e13: 02           INX     SP
7e14: 01 00        LDAW    VV:00
7e16: 00           NOP     
7e17: 00           NOP     
7e18: 00           NOP     
7e19: 00           NOP     
7e1a: 41           INR     A
7e1b: 60 50        ADC     V,A
7e1d: 48 44        SKIT    F2
7e1f: 42           INR     B
7e20: 61           DAA     
7e21: 00           NOP     
7e22: 00           NOP     
7e23: 00           NOP     
7e24: 00           NOP     
7e25: 00           NOP     
7e26: 7f 40        CALF    $0F40
7e28: 40 40 40     CALL    $4040
7e2b: 40 00 00     CALL    $0000
7e2e: 00           NOP     
7e2f: 00           NOP     
7e30: 00           NOP     
7e31: 01 02        LDAW    VV:02
7e33: 04 08 10     LXI     SP,$1008
7e36: 20 40        INRW    VV:40
7e38: 00           NOP     
7e39: 00           NOP     
7e3a: 00           NOP     
7e3b: 00           NOP     
7e3c: 00           NOP     
7e3d: 00           NOP     
7e3e: 40 40 40     CALL    $4040
7e41: 40 40 7f     CALL    $7F40
7e44: 00           NOP     
7e45: 00           NOP     
7e46: 00           NOP     
7e47: 00           NOP     
7e48: 00           NOP     
7e49: 00           NOP     
7e4a: 00           NOP     
7e4b: 01 00        LDAW    VV:00
7e4d: 01 00        LDAW    VV:00
7e4f: 00           NOP     
7e50: 00           NOP     
7e51: 00           NOP     
7e52: 00           NOP     
7e53: 00           NOP     
7e54: 00           NOP     
7e55: 00           NOP     
7e56: 00           NOP     
7e57: 00           NOP     
7e58: 00           NOP     
7e59: 00           NOP     
7e5a: 00           NOP     
7e5b: 00           NOP     
7e5c: 00           NOP     
7e5d: 00           NOP     
7e5e: 00           NOP     
7e5f: 00           NOP     
7e60: 00           NOP     
7e61: 00           NOP     
7e62: 00           NOP     
7e63: 00           NOP     
7e64: 00           NOP     
7e65: 00           NOP     
7e66: 01 02        LDAW    VV:02
7e68: 04 00 00     LXI     SP,$0000
7e6b: 00           NOP     
7e6c: 30 10        DCRW    VV:10
7e6e: 40 40 40     CALL    $4040
7e71: 40 04 3c     CALL    $3C04
7e74: 40 00 00     CALL    $0000
7e77: 00           NOP     
7e78: 7f 04        CALF    $0F04
7e7a: 40 40 40     CALL    $4040
7e7d: 40 04 3c     CALL    $3C04
7e80: 00           NOP     
7e81: 00           NOP     
7e82: 00           NOP     
7e83: 00           NOP     
7e84: 38           illegal 
7e85: 04 40 40     LXI     SP,$4040
7e88: 40 04 24     CALL    $2404
7e8b: 00           NOP     
7e8c: 00           NOP     
7e8d: 00           NOP     
7e8e: 3c           STAX    (DE+)
7e8f: 04 40 40     LXI     SP,$4040
7e92: 40 40 04     CALL    $0440
7e95: 7f 00        CALF    $0F00
7e97: 00           NOP     
7e98: 00           NOP     
7e99: 00           NOP     
7e9a: 3c           STAX    (DE+)
7e9b: 04 40 40     LXI     SP,$4040
7e9e: 40 40 04     CALL    $0440
7ea1: 0c           MOV     A,D
7ea2: 00           NOP     
7ea3: 00           NOP     
7ea4: 00           NOP     
7ea5: 00           NOP     
7ea6: 44 44 7e     LXI     EA,$7E44
7ea9: 45 45 44     ONIW    VV:45,$44
7eac: 44 00 00     LXI     EA,$0000
7eaf: 00           NOP     
7eb0: a7           DMOV    EA,HL
7eb1: a1           POP     BC
7eb2: 20 20        INRW    VV:20
7eb4: 20 a8        INRW    VV:A8
7eb6: a1           POP     BC
7eb7: 7c 00        CALF    $0C00
7eb9: 00           NOP     
7eba: 00           NOP     
7ebb: 00           NOP     
7ebc: 7f 04        CALF    $0F04
7ebe: 00           NOP     
7ebf: 00           NOP     
7ec0: 00           NOP     
7ec1: 00           NOP     
7ec2: 04 7c 00     LXI     SP,$007C
7ec5: 00           NOP     
7ec6: 00           NOP     
7ec7: 00           NOP     
7ec8: 40 40 7d     CALL    $7D40
7ecb: 40 40 00     CALL    $0040
7ece: 00           NOP     
7ecf: 00           NOP     
7ed0: 40 a0 a0     CALL    $A0A0
7ed3: a0           POP     VA
7ed4: 7d 00        CALF    $0D00
7ed6: 00           NOP     
7ed7: 7f 00        CALF    $0F00
7ed9: 10           EXA     
7eda: 10           EXA     
7edb: 08           MOV     A,EAH
7edc: 20 04        INRW    VV:04
7ede: 40 00 00     CALL    $0000
7ee1: 40 40 7f     CALL    $7F40
7ee4: 40 40 00     CALL    $0040
7ee7: 00           NOP     
7ee8: 00           NOP     
7ee9: 00           NOP     
7eea: 7c 04        CALF    $0C04
7eec: 00           NOP     
7eed: 00           NOP     
7eee: 04 7c 04     LXI     SP,$047C
7ef1: 00           NOP     
7ef2: 00           NOP     
7ef3: 04 7c 00     LXI     SP,$007C
7ef6: 00           NOP     
7ef7: 00           NOP     
7ef8: 00           NOP     
7ef9: 7c 04        CALF    $0C04
7efb: 00           NOP     
7efc: 00           NOP     
7efd: 00           NOP     
7efe: 00           NOP     
7eff: 00           NOP     
7f00: 04 7c 00     LXI     SP,$007C
7f03: 00           NOP     
7f04: 00           NOP     
7f05: 3c           STAX    (DE+)
7f06: 04 40 40     LXI     SP,$4040
7f09: 40 40 40     CALL    $4040
7f0c: 04 3c 00     LXI     SP,$003C
7f0f: 00           NOP     
7f10: 00           NOP     
7f11: bf 24        STAX    (HL+$24)
7f13: 24 00 00     LXI     DE,$0000
7f16: 00           NOP     
7f17: 24 24 18     LXI     DE,$1824
7f1a: 00           NOP     
7f1b: 00           NOP     
7f1c: 00           NOP     
7f1d: 18           MOV     EAH,A
7f1e: 24 24 00     LXI     DE,$0024
7f21: 00           NOP     
7f22: 00           NOP     
7f23: 24 24 bf     LXI     DE,$BF24
7f26: 00           NOP     
7f27: 00           NOP     
7f28: 00           NOP     
7f29: 7c 04        CALF    $0C04
7f2b: 04 00 00     LXI     SP,$0000
7f2e: 00           NOP     
7f2f: 04 00 00     LXI     SP,$0000
7f32: 00           NOP     
7f33: 6c 0c        MVI     D,$0C
7f35: 40 40 40     CALL    $4040
7f38: 40 40 14     CALL    $1440
7f3b: 34 00 00     LXI     HL,$0000
7f3e: 00           NOP     
7f3f: 00           NOP     
7f40: 00           NOP     
7f41: 3f           STAX    (HL-)
7f42: 00           NOP     
7f43: 40 40 40     CALL    $4040
7f46: 00           NOP     
7f47: 00           NOP     
7f48: 00           NOP     
7f49: 3c           STAX    (DE+)
7f4a: 00           NOP     
7f4b: 40 40 40     CALL    $4040
7f4e: 40 40 00     CALL    $0040
7f51: 7c 00        CALF    $0C00
7f53: 00           NOP     
7f54: 00           NOP     
7f55: 04 08 10     LXI     SP,$1008
7f58: 20 40        INRW    VV:40
7f5a: 20 10        INRW    VV:10
7f5c: 08           MOV     A,EAH
7f5d: 04 00 00     LXI     SP,$0000
7f60: 00           NOP     
7f61: 0c           MOV     A,D
7f62: 10           EXA     
7f63: 60 00        illegal 
7f65: 10           EXA     
7f66: 00           NOP     
7f67: 08           MOV     A,EAH
7f68: 00           NOP     
7f69: 10           EXA     
7f6a: 00           NOP     
7f6b: 60 10        XRA     V,A
7f6d: 0c           MOV     A,D
7f6e: 00           NOP     
7f6f: 00           NOP     
7f70: 00           NOP     
7f71: 44 60 08     LXI     EA,$0860
7f74: 10           EXA     
7f75: 08           MOV     A,EAH
7f76: 60 44        ADD     D,A
7f78: 00           NOP     
7f79: 00           NOP     
7f7a: 00           NOP     
7f7b: 00           NOP     
7f7c: 00           NOP     
7f7d: 04 a2 50     LXI     SP,$50A2
7f80: 20 20        INRW    VV:20
7f82: 10           EXA     
7f83: 08           MOV     A,EAH
7f84: 04 00 00     LXI     SP,$0000
7f87: 00           NOP     
7f88: 00           NOP     
7f89: 44 60 40     LXI     EA,$4060
7f8c: 50           EXH     
7f8d: 48 40        SKIT    NMI
7f8f: 64 00 00     MVI     PA,$00
7f92: 00           NOP     
7f93: 00           NOP     
7f94: 00           NOP     
7f95: 3f           STAX    (HL-)
7f96: 40 40 40     CALL    $4040
7f99: 00           NOP     
7f9a: 00           NOP     
7f9b: 00           NOP     
7f9c: 00           NOP     
7f9d: 00           NOP     
7f9e: 7f 00        CALF    $0F00
7fa0: 00           NOP     
7fa1: 00           NOP     
7fa2: 00           NOP     
7fa3: 00           NOP     
7fa4: 40 40 40     CALL    $4040
7fa7: 3f           STAX    (HL-)
7fa8: 00           NOP     
7fa9: 00           NOP     
7faa: 00           NOP     
7fab: 00           NOP     
7fac: 00           NOP     
7fad: 00           NOP     
7fae: 01 00        LDAW    VV:00
7fb0: 00           NOP     
7fb1: 00           NOP     
7fb2: 01 00        LDAW    VV:00
7fb4: 00           NOP     
7fb5: 00           NOP     
7fb6: 01 00        LDAW    VV:00
7fb8: 00           NOP     
7fb9: 00           NOP     
7fba: 00           NOP     
7fbb: 00           NOP     
7fbc: 00           NOP     
7fbd: 00           NOP     
7fbe: 00           NOP     
7fbf: 00           NOP     
7fc0: 00           NOP     
7fc1: 59 0f        BIT     1,VV:0F
7fc3: 14 af a8     LXI     BC,$A8AF
7fc6: b8           RET     
7fc7: 59 0f        BIT     1,VV:0F
7fc9: 70 69 07 aa  MOV     A,($AA07)
7fcd: b8           RET     
7fce: 50           EXH     
7fcf: 0f           MOV     A,L
7fd0: 54 f9 1c     JMP     $1CF9
7fd3: 70 79 63 fe  MOV     ($FE63),A
7fd7: 54 d9 1c     JMP     $1CD9
7fda: 48 0a        SK      CY
7fdc: c3           JR      $7FE0
7fdd: 48 2a        CLC     
7fdf: b9           RETS    
7fe0: 8b           CALT    ($0096)
7fe1: 48 2b        STC     
7fe3: b9           RETS    
7fe4: ff           JR      $7FE4
7fe5: ff           JR      $7FE5
7fe6: ff           JR      $7FE6
7fe7: ff           JR      $7FE7
7fe8: ff           JR      $7FE8
7fe9: 64 de        illegal 
7feb: 80           CALT    ($0080)
7fec: b9           RETS    
7fed: 58 a3        BIT     0,VV:A3
7fef: b8           RET     
7ff0: 5b a3        BIT     3,VV:A3
7ff2: 54 49 04     JMP     $0449
7ff5: 58 43        BIT     0,VV:43
7ff7: 5b a3        BIT     3,VV:A3
7ff9: b8           RET     
7ffa: ff           JR      $7FFA
7ffb: ff           JR      $7FFB
7ffc: ff           JR      $7FFC
7ffd: ff           JR      $7FFD
7ffe: ff           JR      $7FFE
7fff: ff           JR      $7FFF
